 canvas

 Timestamp is 63a49fef (Thu Dec 22 18:20:31 2022)

 Preferred load address is 0000000180000000

 Start         Length     Name                   Class
 0001:00000000 00000640H .text                   CODE
 0001:00000640 00001e60H .text$di                CODE
 0001:000024a0 00057780H .text$mn                CODE
 0001:00059c20 00000200H .text$mn$00             CODE
 0001:00059e20 00002970H .text$x                 CODE
 0001:0005c790 00000278H .text$yd                CODE
 0002:00000000 000009a0H .idata$5                DATA
 0002:000009a0 00000028H .00cfg                  DATA
 0002:000009c8 00000008H .CRT$XCA                DATA
 0002:000009d0 00000018H .CRT$XCC                DATA
 0002:000009e8 00000010H .CRT$XCL                DATA
 0002:000009f8 00000078H .CRT$XCU                DATA
 0002:00000a70 00000008H .CRT$XCZ                DATA
 0002:00000a78 00000008H .CRT$XIA                DATA
 0002:00000a80 00000028H .CRT$XIC                DATA
 0002:00000aa8 00000008H .CRT$XIZ                DATA
 0002:00000ab0 00000008H .CRT$XPA                DATA
 0002:00000ab8 00000010H .CRT$XPX                DATA
 0002:00000ac8 00000008H .CRT$XPXA               DATA
 0002:00000ad0 00000008H .CRT$XPZ                DATA
 0002:00000ad8 00000008H .CRT$XTA                DATA
 0002:00000ae0 00000010H .CRT$XTZ                DATA
 0002:00000ae8 00000000H .gehcont$y              DATA
 0002:00000ae8 00000000H .gfids$y                DATA
 0002:00000af0 00012510H .rdata                  DATA
 0002:00013000 00000000H .rdata$CastGuardVftablesA DATA
 0002:00013000 00000000H .rdata$CastGuardVftablesC DATA
 0002:00013000 0000075cH .rdata$r                DATA
 0002:0001375c 00000018H .rdata$voltmd           DATA
 0002:00013774 00000464H .rdata$zzzdbg           DATA
 0002:00013bd8 00000008H .rtc$IAA                DATA
 0002:00013be0 00000008H .rtc$IZZ                DATA
 0002:00013be8 00000008H .rtc$TAA                DATA
 0002:00013bf0 00000008H .rtc$TZZ                DATA
 0002:00013bf8 00006108H .xdata                  DATA
 0002:00019d00 0000037cH .xdata$x                DATA
 0002:0001a07c 00000020H .didat$2                DATA
 0002:0001a09c 00000024H .didat$3                DATA
 0002:0001a0c0 00000348H .didat$4                DATA
 0002:0001a408 00001c68H .didat$6                DATA
 0002:0001c070 00000350H .didat$7                DATA
 0002:0001c3c0 00000250H .edata                  DATA
 0002:0001c610 000000f0H .idata$2                DATA
 0002:0001c700 00000018H .idata$3                DATA
 0002:0001c718 000009a0H .idata$4                DATA
 0002:0001d0b8 00001a38H .idata$6                DATA
 0002:0001eaf0 000003c4H .idata$7                DATA
 0003:00000000 00000c80H .data                   DATA
 0003:00000c80 00000290H .data$r                 DATA
 0003:00000f10 00000120H .data$rs                DATA
 0003:00001030 00000350H .didat$5                DATA
 0003:00001380 0000178cH .bss                    DATA
 0004:00000000 00003de0H .pdata                  DATA
 0005:00000000 000000fcH _RDATA                  DATA
 0006:00000000 00000060H .rsrc$01                DATA
 0006:00000060 00000180H .rsrc$02                DATA

  Address         Publics by Value              Rva+Base               Lib:Object

 0000:00000000       ___safe_se_handler_table   0000000000000000     <absolute>
 0000:00000000       __guard_longjmp_table      0000000000000000     <absolute>
 0000:00000000       __x64_code_ranges_to_entry_points 0000000000000000     <absolute>
 0000:00000000       __arm64x_redirection_metadata 0000000000000000     <absolute>
 0000:00000000       __guard_iat_table          0000000000000000     <absolute>
 0000:00000000       __guard_fids_count         0000000000000000     <absolute>
 0000:00000000       __arm64x_extra_rfe_table   0000000000000000     <absolute>
 0000:00000000       __guard_iat_count          0000000000000000     <absolute>
 0000:00000000       __guard_longjmp_count      0000000000000000     <absolute>
 0000:00000000       __dynamic_value_reloc_table 0000000000000000     <absolute>
 0000:00000000       __x64_code_ranges_to_entry_points_count 0000000000000000     <absolute>
 0000:00000000       __hybrid_code_map          0000000000000000     <absolute>
 0000:00000000       __hybrid_auxiliary_iat     0000000000000000     <absolute>
 0000:00000000       __arm64x_extra_rfe_table_size 0000000000000000     <absolute>
 0000:00000000       __hybrid_auxiliary_iat_copy 0000000000000000     <absolute>
 0000:00000000       ___safe_se_handler_count   0000000000000000     <absolute>
 0000:00000000       __AbsoluteZero             0000000000000000     <absolute>
 0000:00000000       __guard_check_icall_a64n_fptr 0000000000000000     <absolute>
 0000:00000000       __guard_eh_cont_count      0000000000000000     <absolute>
 0000:00000000       __guard_fids_table         0000000000000000     <absolute>
 0000:00000000       __arm64x_redirection_metadata_count 0000000000000000     <absolute>
 0000:00000000       __enclave_config           0000000000000000     <absolute>
 0000:00000000       __guard_eh_cont_table      0000000000000000     <absolute>
 0000:00000000       __arm64x_native_entrypoint 0000000000000000     <absolute>
 0000:00000000       __hybrid_code_map_count    0000000000000000     <absolute>
 0000:00000100       __guard_flags              0000000000000100     <absolute>
 0000:00000000       __ImageBase                0000000180000000     <linker-defined>
 0001:00000000       cairo_surface_destroy      0000000180001000     libcairo-2:D__a__temp_msys64_mingw64_lib_libcairo_2_lib_s01412.o
 0001:00000008       cairo_status_to_string     0000000180001008     libcairo-2:D__a__temp_msys64_mingw64_lib_libcairo_2_lib_s01403.o
 0001:00000010       cairo_surface_status       0000000180001010     libcairo-2:D__a__temp_msys64_mingw64_lib_libcairo_2_lib_s01445.o
 0001:00000018       cairo_image_surface_create 0000000180001018     libcairo-2:D__a__temp_msys64_mingw64_lib_libcairo_2_lib_s01204.o
 0001:00000020       cairo_image_surface_get_stride 0000000180001020     libcairo-2:D__a__temp_msys64_mingw64_lib_libcairo_2_lib_s01211.o
 0001:00000028       cairo_surface_finish       0000000180001028     libcairo-2:D__a__temp_msys64_mingw64_lib_libcairo_2_lib_s01413.o
 0001:00000030       cairo_image_surface_get_data 0000000180001030     libcairo-2:D__a__temp_msys64_mingw64_lib_libcairo_2_lib_s01208.o
 0001:00000038       cairo_pdf_surface_set_size 0000000180001038     libcairo-2:D__a__temp_msys64_mingw64_lib_libcairo_2_lib_s01286.o
 0001:00000040       cairo_pdf_surface_create_for_stream 0000000180001040     libcairo-2:D__a__temp_msys64_mingw64_lib_libcairo_2_lib_s01281.o
 0001:00000048       cairo_svg_surface_create_for_stream 0000000180001048     libcairo-2:D__a__temp_msys64_mingw64_lib_libcairo_2_lib_s01452.o
 0001:00000050       cairo_image_surface_get_format 0000000180001050     libcairo-2:D__a__temp_msys64_mingw64_lib_libcairo_2_lib_s01209.o
 0001:00000058       cairo_destroy              0000000180001058     libcairo-2:D__a__temp_msys64_mingw64_lib_libcairo_2_lib_s01116.o
 0001:00000060       cairo_image_surface_get_height 0000000180001060     libcairo-2:D__a__temp_msys64_mingw64_lib_libcairo_2_lib_s01210.o
 0001:00000068       cairo_surface_flush        0000000180001068     libcairo-2:D__a__temp_msys64_mingw64_lib_libcairo_2_lib_s01414.o
 0001:00000070       cairo_pdf_surface_set_metadata 0000000180001070     libcairo-2:D__a__temp_msys64_mingw64_lib_libcairo_2_lib_s01284.o
 0001:00000078       cairo_set_line_width       0000000180001078     libcairo-2:D__a__temp_msys64_mingw64_lib_libcairo_2_lib_s01387.o
 0001:00000080       cairo_image_surface_get_width 0000000180001080     libcairo-2:D__a__temp_msys64_mingw64_lib_libcairo_2_lib_s01212.o
 0001:00000088       cairo_create               0000000180001088     libcairo-2:D__a__temp_msys64_mingw64_lib_libcairo_2_lib_s01113.o
 0001:00000090       cairo_pattern_add_color_stop_rgba 0000000180001090     libcairo-2:D__a__temp_msys64_mingw64_lib_libcairo_2_lib_s01251.o
 0001:00000098       cairo_pattern_create_radial 0000000180001098     libcairo-2:D__a__temp_msys64_mingw64_lib_libcairo_2_lib_s01255.o
 0001:000000a0       cairo_pattern_create_linear 00000001800010a0     libcairo-2:D__a__temp_msys64_mingw64_lib_libcairo_2_lib_s01253.o
 0001:000000a8       cairo_pattern_destroy      00000001800010a8     libcairo-2:D__a__temp_msys64_mingw64_lib_libcairo_2_lib_s01259.o
 0001:000000b0       cairo_pattern_set_user_data 00000001800010b0     libcairo-2:D__a__temp_msys64_mingw64_lib_libcairo_2_lib_s01276.o
 0001:000000b8       cairo_matrix_init          00000001800010b8     libcairo-2:D__a__temp_msys64_mingw64_lib_libcairo_2_lib_s01219.o
 0001:000000c0       cairo_pattern_set_matrix   00000001800010c0     libcairo-2:D__a__temp_msys64_mingw64_lib_libcairo_2_lib_s01275.o
 0001:000000c8       cairo_pattern_get_user_data 00000001800010c8     libcairo-2:D__a__temp_msys64_mingw64_lib_libcairo_2_lib_s01271.o
 0001:000000d0       cairo_pattern_create_for_surface 00000001800010d0     libcairo-2:D__a__temp_msys64_mingw64_lib_libcairo_2_lib_s01252.o
 0001:000000d8       cairo_matrix_invert        00000001800010d8     libcairo-2:D__a__temp_msys64_mingw64_lib_libcairo_2_lib_s01224.o
 0001:000000e0       cairo_path_destroy         00000001800010e0     libcairo-2:D__a__temp_msys64_mingw64_lib_libcairo_2_lib_s01248.o
 0001:000000e8       cairo_in_fill              00000001800010e8     libcairo-2:D__a__temp_msys64_mingw64_lib_libcairo_2_lib_s01214.o
 0001:000000f0       cairo_set_operator         00000001800010f0     libcairo-2:D__a__temp_msys64_mingw64_lib_libcairo_2_lib_s01390.o
 0001:000000f8       cairo_pattern_get_linear_points 00000001800010f8     libcairo-2:D__a__temp_msys64_mingw64_lib_libcairo_2_lib_s01264.o
 0001:00000100       cairo_surface_mark_dirty_rectangle 0000000180001100     libcairo-2:D__a__temp_msys64_mingw64_lib_libcairo_2_lib_s01428.o
 0001:00000108       cairo_save                 0000000180001108     libcairo-2:D__a__temp_msys64_mingw64_lib_libcairo_2_lib_s01349.o
 0001:00000110       cairo_get_matrix           0000000180001110     libcairo-2:D__a__temp_msys64_mingw64_lib_libcairo_2_lib_s01189.o
 0001:00000118       cairo_arc_negative         0000000180001118     libcairo-2:D__a__temp_msys64_mingw64_lib_libcairo_2_lib_s01104.o
 0001:00000120       cairo_stroke_preserve      0000000180001120     libcairo-2:D__a__temp_msys64_mingw64_lib_libcairo_2_lib_s01406.o
 0001:00000128       cairo_rectangle            0000000180001128     libcairo-2:D__a__temp_msys64_mingw64_lib_libcairo_2_lib_s01317.o
 0001:00000130       cairo_set_line_join        0000000180001130     libcairo-2:D__a__temp_msys64_mingw64_lib_libcairo_2_lib_s01386.o
 0001:00000138       cairo_pattern_get_filter   0000000180001138     libcairo-2:D__a__temp_msys64_mingw64_lib_libcairo_2_lib_s01263.o
 0001:00000140       cairo_set_source_surface   0000000180001140     libcairo-2:D__a__temp_msys64_mingw64_lib_libcairo_2_lib_s01395.o
 0001:00000148       cairo_status               0000000180001148     libcairo-2:D__a__temp_msys64_mingw64_lib_libcairo_2_lib_s01402.o
 0001:00000150       cairo_fill                 0000000180001150     libcairo-2:D__a__temp_msys64_mingw64_lib_libcairo_2_lib_s01139.o
 0001:00000158       cairo_set_line_cap         0000000180001158     libcairo-2:D__a__temp_msys64_mingw64_lib_libcairo_2_lib_s01385.o
 0001:00000160       cairo_get_source           0000000180001160     libcairo-2:D__a__temp_msys64_mingw64_lib_libcairo_2_lib_s01194.o
 0001:00000168       cairo_mask_surface         0000000180001168     libcairo-2:D__a__temp_msys64_mingw64_lib_libcairo_2_lib_s01218.o
 0001:00000170       cairo_pattern_set_filter   0000000180001170     libcairo-2:D__a__temp_msys64_mingw64_lib_libcairo_2_lib_s01274.o
 0001:00000178       cairo_fill_extents         0000000180001178     libcairo-2:D__a__temp_msys64_mingw64_lib_libcairo_2_lib_s01140.o
 0001:00000180       cairo_show_page            0000000180001180     libcairo-2:D__a__temp_msys64_mingw64_lib_libcairo_2_lib_s01399.o
 0001:00000188       cairo_restore              0000000180001188     libcairo-2:D__a__temp_msys64_mingw64_lib_libcairo_2_lib_s01347.o
 0001:00000190       cairo_line_to              0000000180001190     libcairo-2:D__a__temp_msys64_mingw64_lib_libcairo_2_lib_s01216.o
 0001:00000198       cairo_set_fill_rule        0000000180001198     libcairo-2:D__a__temp_msys64_mingw64_lib_libcairo_2_lib_s01379.o
 0001:000001a0       cairo_paint                00000001800011a0     libcairo-2:D__a__temp_msys64_mingw64_lib_libcairo_2_lib_s01246.o
 0001:000001a8       cairo_push_group           00000001800011a8     libcairo-2:D__a__temp_msys64_mingw64_lib_libcairo_2_lib_s01302.o
 0001:000001b0       cairo_stroke               00000001800011b0     libcairo-2:D__a__temp_msys64_mingw64_lib_libcairo_2_lib_s01404.o
 0001:000001b8       cairo_move_to              00000001800011b8     libcairo-2:D__a__temp_msys64_mingw64_lib_libcairo_2_lib_s01243.o
 0001:000001c0       cairo_get_line_cap         00000001800011c0     libcairo-2:D__a__temp_msys64_mingw64_lib_libcairo_2_lib_s01186.o
 0001:000001c8       cairo_pattern_set_extend   00000001800011c8     libcairo-2:D__a__temp_msys64_mingw64_lib_libcairo_2_lib_s01273.o
 0001:000001d0       cairo_get_operator         00000001800011d0     libcairo-2:D__a__temp_msys64_mingw64_lib_libcairo_2_lib_s01191.o
 0001:000001d8       cairo_clip                 00000001800011d8     libcairo-2:D__a__temp_msys64_mingw64_lib_libcairo_2_lib_s01105.o
 0001:000001e0       cairo_get_antialias        00000001800011e0     libcairo-2:D__a__temp_msys64_mingw64_lib_libcairo_2_lib_s01176.o
 0001:000001e8       cairo_set_source_rgba      00000001800011e8     libcairo-2:D__a__temp_msys64_mingw64_lib_libcairo_2_lib_s01394.o
 0001:000001f0       cairo_copy_path_flat       00000001800011f0     libcairo-2:D__a__temp_msys64_mingw64_lib_libcairo_2_lib_s01112.o
 0001:000001f8       cairo_set_source           00000001800011f8     libcairo-2:D__a__temp_msys64_mingw64_lib_libcairo_2_lib_s01392.o
 0001:00000200       cairo_scale                0000000180001200     libcairo-2:D__a__temp_msys64_mingw64_lib_libcairo_2_lib_s01350.o
 0001:00000208       cairo_user_to_device_distance 0000000180001208     libcairo-2:D__a__temp_msys64_mingw64_lib_libcairo_2_lib_s01485.o
 0001:00000210       cairo_pattern_get_color_stop_count 0000000180001210     libcairo-2:D__a__temp_msys64_mingw64_lib_libcairo_2_lib_s01260.o
 0001:00000218       cairo_set_matrix           0000000180001218     libcairo-2:D__a__temp_msys64_mingw64_lib_libcairo_2_lib_s01388.o
 0001:00000220       cairo_surface_mark_dirty   0000000180001220     libcairo-2:D__a__temp_msys64_mingw64_lib_libcairo_2_lib_s01427.o
 0001:00000228       cairo_copy_path            0000000180001228     libcairo-2:D__a__temp_msys64_mingw64_lib_libcairo_2_lib_s01111.o
 0001:00000230       cairo_fill_preserve        0000000180001230     libcairo-2:D__a__temp_msys64_mingw64_lib_libcairo_2_lib_s01141.o
 0001:00000238       cairo_pattern_get_surface  0000000180001238     libcairo-2:D__a__temp_msys64_mingw64_lib_libcairo_2_lib_s01269.o
 0001:00000240       cairo_rotate               0000000180001240     libcairo-2:D__a__temp_msys64_mingw64_lib_libcairo_2_lib_s01348.o
 0001:00000248       cairo_stroke_extents       0000000180001248     libcairo-2:D__a__temp_msys64_mingw64_lib_libcairo_2_lib_s01405.o
 0001:00000250       cairo_pop_group_to_source  0000000180001250     libcairo-2:D__a__temp_msys64_mingw64_lib_libcairo_2_lib_s01290.o
 0001:00000258       cairo_get_dash             0000000180001258     libcairo-2:D__a__temp_msys64_mingw64_lib_libcairo_2_lib_s01178.o
 0001:00000260       cairo_get_miter_limit      0000000180001260     libcairo-2:D__a__temp_msys64_mingw64_lib_libcairo_2_lib_s01190.o
 0001:00000268       cairo_pattern_get_color_stop_rgba 0000000180001268     libcairo-2:D__a__temp_msys64_mingw64_lib_libcairo_2_lib_s01261.o
 0001:00000270       cairo_append_path          0000000180001270     libcairo-2:D__a__temp_msys64_mingw64_lib_libcairo_2_lib_s01102.o
 0001:00000278       cairo_new_path             0000000180001278     libcairo-2:D__a__temp_msys64_mingw64_lib_libcairo_2_lib_s01244.o
 0001:00000280       cairo_identity_matrix      0000000180001280     libcairo-2:D__a__temp_msys64_mingw64_lib_libcairo_2_lib_s01203.o
 0001:00000288       cairo_get_line_join        0000000180001288     libcairo-2:D__a__temp_msys64_mingw64_lib_libcairo_2_lib_s01187.o
 0001:00000290       cairo_in_stroke            0000000180001290     libcairo-2:D__a__temp_msys64_mingw64_lib_libcairo_2_lib_s01215.o
 0001:00000298       cairo_paint_with_alpha     0000000180001298     libcairo-2:D__a__temp_msys64_mingw64_lib_libcairo_2_lib_s01247.o
 0001:000002a0       cairo_set_antialias        00000001800012a0     libcairo-2:D__a__temp_msys64_mingw64_lib_libcairo_2_lib_s01377.o
 0001:000002a8       cairo_get_dash_count       00000001800012a8     libcairo-2:D__a__temp_msys64_mingw64_lib_libcairo_2_lib_s01179.o
 0001:000002b0       cairo_set_dash             00000001800012b0     libcairo-2:D__a__temp_msys64_mingw64_lib_libcairo_2_lib_s01378.o
 0001:000002b8       cairo_transform            00000001800012b8     libcairo-2:D__a__temp_msys64_mingw64_lib_libcairo_2_lib_s01471.o
 0001:000002c0       cairo_close_path           00000001800012c0     libcairo-2:D__a__temp_msys64_mingw64_lib_libcairo_2_lib_s01108.o
 0001:000002c8       cairo_arc                  00000001800012c8     libcairo-2:D__a__temp_msys64_mingw64_lib_libcairo_2_lib_s01103.o
 0001:000002d0       cairo_get_line_width       00000001800012d0     libcairo-2:D__a__temp_msys64_mingw64_lib_libcairo_2_lib_s01188.o
 0001:000002d8       cairo_pattern_get_type     00000001800012d8     libcairo-2:D__a__temp_msys64_mingw64_lib_libcairo_2_lib_s01270.o
 0001:000002e0       cairo_clip_preserve        00000001800012e0     libcairo-2:D__a__temp_msys64_mingw64_lib_libcairo_2_lib_s01107.o
 0001:000002e8       cairo_path_extents         00000001800012e8     libcairo-2:D__a__temp_msys64_mingw64_lib_libcairo_2_lib_s01249.o
 0001:000002f0       cairo_set_miter_limit      00000001800012f0     libcairo-2:D__a__temp_msys64_mingw64_lib_libcairo_2_lib_s01389.o
 0001:000002f8       cairo_get_current_point    00000001800012f8     libcairo-2:D__a__temp_msys64_mingw64_lib_libcairo_2_lib_s01177.o
 0001:00000300       cairo_translate            0000000180001300     libcairo-2:D__a__temp_msys64_mingw64_lib_libcairo_2_lib_s01472.o
 0001:00000308       cairo_pattern_get_radial_circles 0000000180001308     libcairo-2:D__a__temp_msys64_mingw64_lib_libcairo_2_lib_s01266.o
 0001:00000310       cairo_curve_to             0000000180001310     libcairo-2:D__a__temp_msys64_mingw64_lib_libcairo_2_lib_s01114.o
 0001:00000318       cairo_format_stride_for_width 0000000180001318     libcairo-2:D__a__temp_msys64_mingw64_lib_libcairo_2_lib_s01167.o
 0001:00000320       cairo_image_surface_create_from_png 0000000180001320     libcairo-2:D__a__temp_msys64_mingw64_lib_libcairo_2_lib_s01206.o
 0001:00000328       cairo_image_surface_create_from_png_stream 0000000180001328     libcairo-2:D__a__temp_msys64_mingw64_lib_libcairo_2_lib_s01207.o
 0001:00000330       cairo_image_surface_create_for_data 0000000180001330     libcairo-2:D__a__temp_msys64_mingw64_lib_libcairo_2_lib_s01205.o
 0001:00000338       cairo_surface_set_mime_data 0000000180001338     libcairo-2:D__a__temp_msys64_mingw64_lib_libcairo_2_lib_s01442.o
 0001:00000340       cairo_version_string       0000000180001340     libcairo-2:D__a__temp_msys64_mingw64_lib_libcairo_2_lib_s01487.o
 0001:00000350       png_destroy_write_struct   0000000180001350     libpng16-16:D__a__temp_msys64_mingw64_lib_libpng16_16_lib_s00019.o
 0001:00000358       png_set_bKGD               0000000180001358     libpng16-16:D__a__temp_msys64_mingw64_lib_libpng16_16_lib_s00155.o
 0001:00000360       png_set_write_user_transform_fn 0000000180001360     libpng16-16:D__a__temp_msys64_mingw64_lib_libpng16_16_lib_s00247.o
 0001:00000368       png_set_tRNS               0000000180001368     libpng16-16:D__a__temp_msys64_mingw64_lib_libpng16_16_lib_s00233.o
 0001:00000370       png_set_pHYs               0000000180001370     libpng16-16:D__a__temp_msys64_mingw64_lib_libpng16_16_lib_s00204.o
 0001:00000378       png_set_longjmp_fn         0000000180001378     libpng16-16:D__a__temp_msys64_mingw64_lib_libpng16_16_lib_s00198.o
 0001:00000380       png_malloc                 0000000180001380     libpng16-16:D__a__temp_msys64_mingw64_lib_libpng16_16_lib_s00129.o
 0001:00000388       png_get_io_ptr             0000000180001388     libpng16-16:D__a__temp_msys64_mingw64_lib_libpng16_16_lib_s00058.o
 0001:00000390       png_write_info             0000000180001390     libpng16-16:D__a__temp_msys64_mingw64_lib_libpng16_16_lib_s00260.o
 0001:00000398       png_set_packswap           0000000180001398     libpng16-16:D__a__temp_msys64_mingw64_lib_libpng16_16_lib_s00206.o
 0001:000003a0       png_write_image            00000001800013a0     libpng16-16:D__a__temp_msys64_mingw64_lib_libpng16_16_lib_s00259.o
 0001:000003a8       png_get_error_ptr          00000001800013a8     libpng16-16:D__a__temp_msys64_mingw64_lib_libpng16_16_lib_s00044.o
 0001:000003b0       png_set_packing            00000001800013b0     libpng16-16:D__a__temp_msys64_mingw64_lib_libpng16_16_lib_s00205.o
 0001:000003b8       png_set_PLTE               00000001800013b8     libpng16-16:D__a__temp_msys64_mingw64_lib_libpng16_16_lib_s00150.o
 0001:000003c0       png_set_filter             00000001800013c0     libpng16-16:D__a__temp_msys64_mingw64_lib_libpng16_16_lib_s00181.o
 0001:000003c8       png_data_freer             00000001800013c8     libpng16-16:D__a__temp_msys64_mingw64_lib_libpng16_16_lib_s00016.o
 0001:000003d0       png_set_compression_level  00000001800013d0     libpng16-16:D__a__temp_msys64_mingw64_lib_libpng16_16_lib_s00168.o
 0001:000003d8       png_set_IHDR               00000001800013d8     libpng16-16:D__a__temp_msys64_mingw64_lib_libpng16_16_lib_s00149.o
 0001:000003e0       png_set_write_fn           00000001800013e0     libpng16-16:D__a__temp_msys64_mingw64_lib_libpng16_16_lib_s00245.o
 0001:000003e8       png_create_info_struct     00000001800013e8     libpng16-16:D__a__temp_msys64_mingw64_lib_libpng16_16_lib_s00011.o
 0001:000003f0       png_set_filler             00000001800013f0     libpng16-16:D__a__temp_msys64_mingw64_lib_libpng16_16_lib_s00180.o
 0001:000003f8       png_write_end              00000001800013f8     libpng16-16:D__a__temp_msys64_mingw64_lib_libpng16_16_lib_s00255.o
 0001:00000400       png_error                  0000000180001400     libpng16-16:D__a__temp_msys64_mingw64_lib_libpng16_16_lib_s00020.o
 0001:00000408       png_create_write_struct_2  0000000180001408     libpng16-16:D__a__temp_msys64_mingw64_lib_libpng16_16_lib_s00015.o
 0001:00000410       jpeg_simple_progression    0000000180001410     libjpeg-8:D__a__temp_msys64_mingw64_lib_libjpeg_8_lib_s00091.o
 0001:00000418       jpeg_set_quality           0000000180001418     libjpeg-8:D__a__temp_msys64_mingw64_lib_libjpeg_8_lib_s00090.o
 0001:00000420       jpeg_CreateCompress        0000000180001420     libjpeg-8:D__a__temp_msys64_mingw64_lib_libjpeg_8_lib_s00029.o
 0001:00000428       jpeg_std_error             0000000180001428     libjpeg-8:D__a__temp_msys64_mingw64_lib_libjpeg_8_lib_s00096.o
 0001:00000430       jpeg_destroy_compress      0000000180001430     libjpeg-8:D__a__temp_msys64_mingw64_lib_libjpeg_8_lib_s00046.o
 0001:00000438       jpeg_set_defaults          0000000180001438     libjpeg-8:D__a__temp_msys64_mingw64_lib_libjpeg_8_lib_s00087.o
 0001:00000440       jpeg_finish_compress       0000000180001440     libjpeg-8:D__a__temp_msys64_mingw64_lib_libjpeg_8_lib_s00052.o
 0001:00000448       jpeg_write_scanlines       0000000180001448     libjpeg-8:D__a__temp_msys64_mingw64_lib_libjpeg_8_lib_s00106.o
 0001:00000450       jpeg_start_compress        0000000180001450     libjpeg-8:D__a__temp_msys64_mingw64_lib_libjpeg_8_lib_s00093.o
 0001:00000458       jpeg_CreateDecompress      0000000180001458     libjpeg-8:D__a__temp_msys64_mingw64_lib_libjpeg_8_lib_s00030.o
 0001:00000460       jpeg_destroy_decompress    0000000180001460     libjpeg-8:D__a__temp_msys64_mingw64_lib_libjpeg_8_lib_s00047.o
 0001:00000468       jpeg_read_header           0000000180001468     libjpeg-8:D__a__temp_msys64_mingw64_lib_libjpeg_8_lib_s00080.o
 0001:00000470       jpeg_start_decompress      0000000180001470     libjpeg-8:D__a__temp_msys64_mingw64_lib_libjpeg_8_lib_s00094.o
 0001:00000478       jpeg_stdio_src             0000000180001478     libjpeg-8:D__a__temp_msys64_mingw64_lib_libjpeg_8_lib_s00098.o
 0001:00000480       jpeg_finish_decompress     0000000180001480     libjpeg-8:D__a__temp_msys64_mingw64_lib_libjpeg_8_lib_s00053.o
 0001:00000488       jpeg_abort_decompress      0000000180001488     libjpeg-8:D__a__temp_msys64_mingw64_lib_libjpeg_8_lib_s00033.o
 0001:00000490       jpeg_mem_src               0000000180001490     libjpeg-8:D__a__temp_msys64_mingw64_lib_libjpeg_8_lib_s00074.o
 0001:00000498       jpeg_read_scanlines        0000000180001498     libjpeg-8:D__a__temp_msys64_mingw64_lib_libjpeg_8_lib_s00083.o
 0001:000004a0       pango_font_description_better_match 00000001800014a0     libpango-1.0-0:D__a__temp_msys64_mingw64_lib_libpango_1_0_0_lib_s00141.o
 0001:000004a8       pango_font_description_set_style 00000001800014a8     libpango-1.0-0:D__a__temp_msys64_mingw64_lib_libpango_1_0_0_lib_s00168.o
 0001:000004b0       pango_font_description_set_weight 00000001800014b0     libpango-1.0-0:D__a__temp_msys64_mingw64_lib_libpango_1_0_0_lib_s00172.o
 0001:000004b8       pango_font_description_equal 00000001800014b8     libpango-1.0-0:D__a__temp_msys64_mingw64_lib_libpango_1_0_0_lib_s00144.o
 0001:000004c0       pango_font_description_new 00000001800014c0     libpango-1.0-0:D__a__temp_msys64_mingw64_lib_libpango_1_0_0_lib_s00161.o
 0001:000004c8       pango_font_description_free 00000001800014c8     libpango-1.0-0:D__a__temp_msys64_mingw64_lib_libpango_1_0_0_lib_s00145.o
 0001:000004d0       pango_font_description_get_family 00000001800014d0     libpango-1.0-0:D__a__temp_msys64_mingw64_lib_libpango_1_0_0_lib_s00147.o
 0001:000004d8       pango_font_description_set_family 00000001800014d8     libpango-1.0-0:D__a__temp_msys64_mingw64_lib_libpango_1_0_0_lib_s00163.o
 0001:000004e0       pango_font_description_copy 00000001800014e0     libpango-1.0-0:D__a__temp_msys64_mingw64_lib_libpango_1_0_0_lib_s00142.o
 0001:000004e8       pango_layout_get_font_description 00000001800014e8     libpango-1.0-0:D__a__temp_msys64_mingw64_lib_libpango_1_0_0_lib_s00305.o
 0001:000004f0       pango_context_get_metrics  00000001800014f0     libpango-1.0-0:D__a__temp_msys64_mingw64_lib_libpango_1_0_0_lib_s00102.o
 0001:000004f8       pango_layout_set_font_description 00000001800014f8     libpango-1.0-0:D__a__temp_msys64_mingw64_lib_libpango_1_0_0_lib_s00378.o
 0001:00000500       pango_layout_get_context   0000000180001500     libpango-1.0-0:D__a__temp_msys64_mingw64_lib_libpango_1_0_0_lib_s00300.o
 0001:00000508       pango_layout_get_extents   0000000180001508     libpango-1.0-0:D__a__temp_msys64_mingw64_lib_libpango_1_0_0_lib_s00304.o
 0001:00000510       pango_layout_line_get_extents 0000000180001510     libpango-1.0-0:D__a__temp_msys64_mingw64_lib_libpango_1_0_0_lib_s00357.o
 0001:00000518       pango_font_description_from_string 0000000180001518     libpango-1.0-0:D__a__temp_msys64_mingw64_lib_libpango_1_0_0_lib_s00146.o
 0001:00000520       pango_layout_get_pixel_extents 0000000180001520     libpango-1.0-0:D__a__temp_msys64_mingw64_lib_libpango_1_0_0_lib_s00319.o
 0001:00000528       pango_font_description_set_absolute_size 0000000180001528     libpango-1.0-0:D__a__temp_msys64_mingw64_lib_libpango_1_0_0_lib_s00162.o
 0001:00000530       pango_context_get_language 0000000180001530     libpango-1.0-0:D__a__temp_msys64_mingw64_lib_libpango_1_0_0_lib_s00100.o
 0001:00000538       pango_font_metrics_unref   0000000180001538     libpango-1.0-0:D__a__temp_msys64_mingw64_lib_libpango_1_0_0_lib_s00223.o
 0001:00000540       pango_layout_get_baseline  0000000180001540     libpango-1.0-0:D__a__temp_msys64_mingw64_lib_libpango_1_0_0_lib_s00297.o
 0001:00000548       pango_layout_set_text      0000000180001548     libpango-1.0-0:D__a__temp_msys64_mingw64_lib_libpango_1_0_0_lib_s00389.o
 0001:00000550       pango_layout_get_line      0000000180001550     libpango-1.0-0:D__a__temp_msys64_mingw64_lib_libpango_1_0_0_lib_s00311.o
 0001:00000558       pango_font_metrics_get_ascent 0000000180001558     libpango-1.0-0:D__a__temp_msys64_mingw64_lib_libpango_1_0_0_lib_s00213.o
 0001:00000560       pango_font_description_set_stretch 0000000180001560     libpango-1.0-0:D__a__temp_msys64_mingw64_lib_libpango_1_0_0_lib_s00167.o
 0001:00000568       pango_font_description_set_family_static 0000000180001568     libpango-1.0-0:D__a__temp_msys64_mingw64_lib_libpango_1_0_0_lib_s00164.o
 0001:00000570       pango_cairo_show_layout    0000000180001570     libpangocairo-1.0-0:D__a__temp_msys64_mingw64_lib_libpangocairo_1_0_0_lib_s00029.o
 0001:00000578       pango_cairo_update_layout  0000000180001578     libpangocairo-1.0-0:D__a__temp_msys64_mingw64_lib_libpangocairo_1_0_0_lib_s00032.o
 0001:00000580       pango_cairo_layout_path    0000000180001580     libpangocairo-1.0-0:D__a__temp_msys64_mingw64_lib_libpangocairo_1_0_0_lib_s00024.o
 0001:00000588       pango_cairo_create_layout  0000000180001588     libpangocairo-1.0-0:D__a__temp_msys64_mingw64_lib_libpangocairo_1_0_0_lib_s00007.o
 0001:00000590       pango_cairo_font_map_set_default 0000000180001590     libpangocairo-1.0-0:D__a__temp_msys64_mingw64_lib_libpangocairo_1_0_0_lib_s00020.o
 0001:000005a0       g_object_unref             00000001800015a0     libgobject-2.0-0:D__a__temp_msys64_mingw64_lib_libgobject_2_0_0_lib_s00172.o
 0001:000005b0       g_iconv_open               00000001800015b0     libglib-2.0-0:D__a__temp_msys64_mingw64_lib_libglib_2_0_0_lib_s00539.o
 0001:000005b8       g_iconv                    00000001800015b8     libglib-2.0-0:D__a__temp_msys64_mingw64_lib_libglib_2_0_0_lib_s00537.o
 0001:000005c0       DGifOpen                   00000001800015c0     libgif-7:D__a__temp_msys64_mingw64_lib_libgif_7_lib_s00014.o
 0001:000005c8       DGifSlurp                  00000001800015c8     libgif-7:D__a__temp_msys64_mingw64_lib_libgif_7_lib_s00018.o
 0001:000005d0       DGifCloseFile              00000001800015d0     libgif-7:D__a__temp_msys64_mingw64_lib_libgif_7_lib_s00000.o
 0001:000005e0       FT_Get_Sfnt_Table          00000001800015e0     libfreetype-6:D__a__temp_msys64_mingw64_lib_libfreetype_6_lib_s00092.o
 0001:000005e8       FT_Done_FreeType           00000001800015e8     libfreetype-6:D__a__temp_msys64_mingw64_lib_libfreetype_6_lib_s00035.o
 0001:000005f0       FT_Done_Face               00000001800015f0     libfreetype-6:D__a__temp_msys64_mingw64_lib_libfreetype_6_lib_s00034.o
 0001:000005f8       FT_Get_Sfnt_Name_Count     00000001800015f8     libfreetype-6:D__a__temp_msys64_mingw64_lib_libfreetype_6_lib_s00091.o
 0001:00000600       FT_Init_FreeType           0000000180001600     libfreetype-6:D__a__temp_msys64_mingw64_lib_libfreetype_6_lib_s00113.o
 0001:00000608       FT_Open_Face               0000000180001608     libfreetype-6:D__a__temp_msys64_mingw64_lib_libfreetype_6_lib_s00139.o
 0001:00000610       FT_Get_Sfnt_Name           0000000180001610     libfreetype-6:D__a__temp_msys64_mingw64_lib_libfreetype_6_lib_s00090.o
 0001:00000620       rsvg_handle_render_cairo   0000000180001620     librsvg-2-2:D__a__temp_msys64_mingw64_lib_librsvg_2_2_lib_s00029.o
 0001:00000628       rsvg_handle_new_from_data  0000000180001628     librsvg-2-2:D__a__temp_msys64_mingw64_lib_librsvg_2_2_lib_s00023.o
 0001:00000630       rsvg_handle_get_dimensions 0000000180001630     librsvg-2-2:D__a__temp_msys64_mingw64_lib_librsvg_2_2_lib_s00008.o
 0001:000024e0       ?what@exception@stdext@@UEBAPEBDXZ 00000001800034e0 f i Backend.obj
 0001:00002500       ?_Raise@exception@stdext@@QEBAXXZ 0000000180003500 f i Backend.obj
 0001:00002540       ?init_closure_destination@@YAXPEAUjpeg_compress_struct@@@Z 0000000180003540 f i Canvas.obj
 0001:00002540       ?stream_pdf_free@@YAXPEADPEAX@Z 0000000180003540 f i Canvas.obj
 0001:00002540       _guard_check_icall_nop     0000000180003540 f i LIBCMT:guard_support.obj
 0001:00002540       ?_Unlock@?$basic_streambuf@DU?$char_traits@D@std@@@std@@UEAAXXZ 0000000180003540 f i Canvas.obj
 0001:00002540       ?_Doraise@exception@stdext@@MEBAXXZ 0000000180003540 f i Backend.obj
 0001:00002540       ?imbue@?$basic_streambuf@DU?$char_traits@D@std@@@std@@MEAAXAEBVlocale@2@@Z 0000000180003540 f i Canvas.obj
 0001:00002540       ?_Lock@?$basic_streambuf@DU?$char_traits@D@std@@@std@@UEAAXXZ 0000000180003540 f i Canvas.obj
 0001:00002550       ??_Eruntime_error@std@@UEAAPEAXI@Z 0000000180003550 f i * CIL library *:* CIL module *
 0001:00002550       ??_Ebad_array_new_length@stdext@@UEAAPEAXI@Z 0000000180003550 f i * CIL library *:* CIL module *
 0001:00002550       ??_Gexception@stdext@@UEAAPEAXI@Z 0000000180003550 f i Backend.obj
 0001:00002550       ??_Eexception@stdext@@UEAAPEAXI@Z 0000000180003550 f i * CIL library *:* CIL module *
 0001:00002550       ??_Gruntime_error@std@@UEAAPEAXI@Z 0000000180003550 f i Canvas.obj
 0001:00002550       ??_Gbad_array_new_length@stdext@@UEAAPEAXI@Z 0000000180003550 f i Backend.obj
 0001:00002580       ?_Doraise@failure@ios_base@std@@MEBAXXZ 0000000180003580 f i Canvas.obj
 0001:00002580       ?_Doraise@bad_alloc@stdext@@MEBAXXZ 0000000180003580 f i Backend.obj
 0001:00002580       ?_Doraise@system_error@std@@MEBAXXZ 0000000180003580 f i Canvas.obj
 0001:00002580       ?_Doraise@runtime_error@std@@MEBAXXZ 0000000180003580 f i Canvas.obj
 0001:000025a0       ??0bad_array_new_length@stdext@@QEAA@XZ 00000001800035a0 f i Backend.obj
 0001:000025c0       ??1failure@ios_base@std@@UEAA@XZ 00000001800035c0 f i Canvas.obj
 0001:000025c0       ??1bad_array_new_length@stdext@@UEAA@XZ 00000001800035c0 f i Backend.obj
 0001:000025c0       ??1runtime_error@std@@UEAA@XZ 00000001800035c0 f i Canvas.obj
 0001:000025d0       ?_Throw_bad_array_new_length@std@@YAXXZ 00000001800035d0 f i Backend.obj
 0001:000025f0       ?_Xlen_string@std@@YAXXZ   00000001800035f0 f i Backend.obj
 0001:00002610       ??1ObjectWrap@Nan@@UEAA@XZ 0000000180003610 f i Backend.obj
 0001:00002650       ?Wrap@ObjectWrap@Nan@@IEAAXV?$Local@VObject@v8@@@v8@@@Z 0000000180003650 f i Backend.obj
 0001:00002720       ?Ref@ObjectWrap@Nan@@MEAAXXZ 0000000180003720 f i Backend.obj
 0001:00002760       ?Unref@ObjectWrap@Nan@@MEAAXXZ 0000000180003760 f i Backend.obj
 0001:00002810       ?WeakCallback@ObjectWrap@Nan@@CAXAEBV?$WeakCallbackInfo@VObjectWrap@Nan@@@v8@@@Z 0000000180003810 f i Backend.obj
 0001:00002870       ??_EObjectWrap@Nan@@UEAAPEAXI@Z 0000000180003870 f i * CIL library *:* CIL module *
 0001:00002870       ??_GObjectWrap@Nan@@UEAAPEAXI@Z 0000000180003870 f i Backend.obj
 0001:000028d0       ?pbackfail@?$basic_streambuf@DU?$char_traits@D@std@@@std@@MEAAHH@Z 00000001800038d0 f i Canvas.obj
 0001:000028d0       ?overflow@?$basic_streambuf@DU?$char_traits@D@std@@@std@@MEAAHH@Z 00000001800038d0 f i Canvas.obj
 0001:000028d0       ?getFormat@Backend@@UEAA?AW4_cairo_format@@XZ 00000001800038d0 f i Backend.obj
 0001:000028d0       ?underflow@?$basic_streambuf@DU?$char_traits@D@std@@@std@@MEAAHXZ 00000001800038d0 f i Canvas.obj
 0001:000028e0       ??0Backend@@IEAA@V?$basic_string@DU?$char_traits@D@std@@V?$allocator@D@2@@std@@HH@Z 00000001800038e0 f   Backend.obj
 0001:000029c0       ??_EBackend@@UEAAPEAXI@Z   00000001800039c0 f i * CIL library *:* CIL module *
 0001:000029c0       ??_GBackend@@UEAAPEAXI@Z   00000001800039c0 f i Backend.obj
 0001:00002a00       ??1Backend@@UEAA@XZ        0000000180003a00 f   Backend.obj
 0001:00002ac0       ?init@Backend@@KAXAEBV?$FunctionCallbackInfo@VValue@v8@@@Nan@@@Z 0000000180003ac0 f   Backend.obj
 0001:00002c30       ?recreateSurface@Backend@@UEAAPEAU_cairo_surface@@XZ 0000000180003c30 f   Backend.obj
 0001:00002c50       ?getSurface@Backend@@QEAAPEAU_cairo_surface@@XZ 0000000180003c50 f   Backend.obj
 0001:00002c80       ?destroySurface@Backend@@UEAAXXZ 0000000180003c80 f   Backend.obj
 0001:00002cb0       ?getName@Backend@@QEAA?AV?$basic_string@DU?$char_traits@D@std@@V?$allocator@D@2@@std@@XZ 0000000180003cb0 f   Backend.obj
 0001:00002cd0       ?getWidth@Backend@@QEAAHXZ 0000000180003cd0 f   Backend.obj
 0001:00002ce0       ?setWidth@Backend@@UEAAXH@Z 0000000180003ce0 f   Backend.obj
 0001:00002cf0       ?getHeight@Backend@@QEAAHXZ 0000000180003cf0 f   Backend.obj
 0001:00002d00       ?setHeight@Backend@@UEAAXH@Z 0000000180003d00 f   Backend.obj
 0001:00002d10       ??1?$basic_string@DU?$char_traits@D@std@@V?$allocator@D@2@@std@@QEAA@XZ 0000000180003d10 f i Backend.obj
 0001:00002d10       ??1?$pair@$$CBV?$basic_string@DU?$char_traits@D@std@@V?$allocator@D@2@@std@@W4_cairo_operator@@@std@@QEAA@XZ 0000000180003d10 f i CanvasRenderingContext2d.obj
 0001:00002d10       ??1?$pair@$$CBV?$basic_string@DU?$char_traits@D@std@@V?$allocator@D@2@@std@@I@std@@QEAA@XZ 0000000180003d10 f i color.obj
 0001:00002d10       ??1?$pair@$$CBV?$basic_string@DU?$char_traits@D@std@@V?$allocator@D@2@@std@@W4text_baseline_t@@@std@@QEAA@XZ 0000000180003d10 f i CanvasRenderingContext2d.obj
 0001:00002d10       ??1?$pair@$$CBV?$basic_string@DU?$char_traits@D@std@@V?$allocator@D@2@@std@@W4text_align_t@@@std@@QEAA@XZ 0000000180003d10 f i CanvasRenderingContext2d.obj
 0001:00002d70       ??0?$basic_string@DU?$char_traits@D@std@@V?$allocator@D@2@@std@@QEAA@AEBV01@@Z 0000000180003d70 f i Backend.obj
 0001:00002e50       ??$?HDU?$char_traits@D@std@@V?$allocator@D@1@@std@@YA?AV?$basic_string@DU?$char_traits@D@std@@V?$allocator@D@2@@0@QEBDAEBV10@@Z 0000000180003e50 f i Backend.obj
 0001:00002fa0       ??$?HDU?$char_traits@D@std@@V?$allocator@D@1@@std@@YA?AV?$basic_string@DU?$char_traits@D@std@@V?$allocator@D@2@@0@$$QEAV10@QEBD@Z 0000000180003fa0 f i Backend.obj
 0001:00003000       ?append@?$basic_string@DU?$char_traits@D@std@@V?$allocator@D@2@@std@@QEAAAEAV12@QEBD_K@Z 0000000180004000 f i Backend.obj
 0001:00003080       ??$_Reallocate_grow_by@V<lambda_65e615be2a453ca0576c979606f46740>@@PEBD_K@?$basic_string@DU?$char_traits@D@std@@V?$allocator@D@2@@std@@AEAAAEAV01@_KV<lambda_65e615be2a453ca0576c979606f46740>@@PEBD_K@Z 0000000180004080 f i Backend.obj
 0001:000032f0       ?New@?$Factory@VFunctionTemplate@v8@@@imp@Nan@@SA?AV?$Local@VFunctionTemplate@v8@@@v8@@P6AXAEBV?$FunctionCallbackInfo@VValue@v8@@@3@@ZV?$Local@VValue@v8@@@5@V?$Local@VSignature@v8@@@5@@Z 00000001800042f0 f i ImageBackend.obj
 0001:000034b0       ?AdjustExternalMemory@Nan@@YAHH@Z 00000001800044b0 f i ImageBackend.obj
 0001:00003530       ??1EscapableHandleScope@Nan@@QEAA@XZ 0000000180004530 f i Canvas.obj
 0001:00003530       ??1HandleScope@Nan@@QEAA@XZ 0000000180004530 f i ImageBackend.obj
 0001:00003540       ??0ImageBackend@@QEAA@HH@Z 0000000180004540 f   ImageBackend.obj
 0001:000035c0       ??_EImageBackend@@UEAAPEAXI@Z 00000001800045c0 f i * CIL library *:* CIL module *
 0001:000035c0       ??_GImageBackend@@UEAAPEAXI@Z 00000001800045c0 f i ImageBackend.obj
 0001:00003600       ?createSurface@ImageBackend@@EEAAPEAU_cairo_surface@@XZ 0000000180004600 f   ImageBackend.obj
 0001:000036b0       ?destroySurface@ImageBackend@@EEAAXXZ 00000001800046b0 f   ImageBackend.obj
 0001:00003720       ?getFormat@ImageBackend@@UEAA?AW4_cairo_format@@XZ 0000000180004720 f   ImageBackend.obj
 0001:00003730       ?Initialize@ImageBackend@@SAXV?$Local@VObject@v8@@@v8@@@Z 0000000180004730 f   ImageBackend.obj
 0001:00003940       ?New@PdfBackend@@SAXAEBV?$FunctionCallbackInfo@VValue@v8@@@Nan@@@Z 0000000180004940 f   PdfBackend.obj
 0001:00003940       ?New@ImageBackend@@SAXAEBV?$FunctionCallbackInfo@VValue@v8@@@Nan@@@Z 0000000180004940 f   ImageBackend.obj
 0001:00003940       ?New@SvgBackend@@SAXAEBV?$FunctionCallbackInfo@VValue@v8@@@Nan@@@Z 0000000180004940 f   SvgBackend.obj
 0001:00003950       ??0?$basic_string@DU?$char_traits@D@std@@V?$allocator@D@2@@std@@QEAA@QEBD@Z 0000000180004950 f i ImageBackend.obj
 0001:00003990       ?assign@?$basic_string@DU?$char_traits@D@std@@V?$allocator@D@2@@std@@QEAAAEAV12@QEBD@Z 0000000180004990 f i ImageBackend.obj
 0001:000039b0       ?assign@?$basic_string@DU?$char_traits@D@std@@V?$allocator@D@2@@std@@QEAAAEAV12@QEBD_K@Z 00000001800049b0 f i ImageBackend.obj
 0001:00003b10       ?backend@Canvas@@QEAAPEAVBackend@@XZ 0000000180004b10 f i PdfBackend.obj
 0001:00003b20       ?surface@Canvas@@QEAAPEAU_cairo_surface@@XZ 0000000180004b20 f i PdfBackend.obj
 0001:00003b50       ?data@Canvas@@QEAAPEAEXZ   0000000180004b50 f i PdfBackend.obj
 0001:00003b80       ?stride@Canvas@@QEAAHXZ    0000000180004b80 f i PdfBackend.obj
 0001:00003bb0       ?nBytes@Canvas@@QEAA_KXZ   0000000180004bb0 f i PdfBackend.obj
 0001:00003bf0       ?getWidth@Canvas@@QEAAHXZ  0000000180004bf0 f i PdfBackend.obj
 0001:00003c00       ?getHeight@Canvas@@QEAAHXZ 0000000180004c00 f i PdfBackend.obj
 0001:00003c10       ?writeVec@Closure@@SA?AW4_cairo_status@@PEAXPEBEI@Z 0000000180004c10 f i PdfBackend.obj
 0001:00003c40       ??1Closure@@QEAA@XZ        0000000180004c40 f i PdfBackend.obj
 0001:00003cc0       ??0PdfBackend@@QEAA@HH@Z   0000000180004cc0 f   PdfBackend.obj
 0001:00003d90       ??_GPdfBackend@@UEAAPEAXI@Z 0000000180004d90 f i PdfBackend.obj
 0001:00003d90       ??_EPdfBackend@@UEAAPEAXI@Z 0000000180004d90 f i * CIL library *:* CIL module *
 0001:00003e20       ?createSurface@PdfBackend@@EEAAPEAU_cairo_surface@@XZ 0000000180004e20 f   PdfBackend.obj
 0001:00003e90       ?recreateSurface@PdfBackend@@EEAAPEAU_cairo_surface@@XZ 0000000180004e90 f   PdfBackend.obj
 0001:00003ec0       ?Initialize@PdfBackend@@SAXV?$Local@VObject@v8@@@v8@@@Z 0000000180004ec0 f   PdfBackend.obj
 0001:000040d0       ??$_Insert_range@PEBE@?$vector@EV?$allocator@E@std@@@std@@AEAAXV?$_Vector_const_iterator@V?$_Vector_val@U?$_Simple_types@E@std@@@std@@@1@PEBE1Uforward_iterator_tag@1@@Z 00000001800050d0 f i PdfBackend.obj
 0001:000042d0       ?_Xlength@?$vector@VFontFace@@V?$allocator@VFontFace@@@std@@@std@@CAXXZ 00000001800052d0 f i Canvas.obj
 0001:000042d0       ?_Xlength@?$vector@EV?$allocator@E@std@@@std@@CAXXZ 00000001800052d0 f i PdfBackend.obj
 0001:000042d0       ?_Xlength@?$vector@NV?$allocator@N@std@@@std@@CAXXZ 00000001800052d0 f i CanvasRenderingContext2d.obj
 0001:000042f0       ?_Change_array@?$vector@EV?$allocator@E@std@@@std@@AEAAXQEAE_K1@Z 00000001800052f0 f i PdfBackend.obj
 0001:00004380       ??0SvgBackend@@QEAA@HH@Z   0000000180005380 f   SvgBackend.obj
 0001:00004450       ??_ESvgBackend@@UEAAPEAXI@Z 0000000180005450 f i * CIL library *:* CIL module *
 0001:00004450       ??_GSvgBackend@@UEAAPEAXI@Z 0000000180005450 f i SvgBackend.obj
 0001:000044f0       ?createSurface@SvgBackend@@EEAAPEAU_cairo_surface@@XZ 00000001800054f0 f   SvgBackend.obj
 0001:00004580       ?recreateSurface@SvgBackend@@EEAAPEAU_cairo_surface@@XZ 0000000180005580 f   SvgBackend.obj
 0001:000045e0       ?Initialize@SvgBackend@@SAXV?$Local@VObject@v8@@@v8@@@Z 00000001800055e0 f   SvgBackend.obj
 0001:000047f0       ??1Parser@BMPParser@@QEAA@XZ 00000001800057f0 f   BMPParser.obj
 0001:000048c0       ?parse@Parser@BMPParser@@QEAAXPEAEH0@Z 00000001800058c0 f   BMPParser.obj
 0001:00007390       ?getErrMsg@Parser@BMPParser@@QEBA?AV?$basic_string@DU?$char_traits@D@std@@V?$allocator@D@2@@std@@XZ 0000000180008390 f   BMPParser.obj
 0001:00007640       ?getStr@Parser@BMPParser@@AEAA?AV?$basic_string@DU?$char_traits@D@std@@V?$allocator@D@2@@std@@H_N@Z 0000000180008640 f   BMPParser.obj
 0001:00007920       ?skip@Parser@BMPParser@@AEAAXH@Z 0000000180008920 f i BMPParser.obj
 0001:00007a40       ?calcMaskShift@Parser@BMPParser@@AEAAXAEAI0AEAN@Z 0000000180008a40 f   BMPParser.obj
 0001:00007bc0       ?setOp@Parser@BMPParser@@AEAAXV?$basic_string@DU?$char_traits@D@std@@V?$allocator@D@2@@std@@@Z 0000000180008bc0 f   BMPParser.obj
 0001:00007c70       ?setErrUnsupported@Parser@BMPParser@@AEAAXV?$basic_string@DU?$char_traits@D@std@@V?$allocator@D@2@@std@@@Z 0000000180008c70 f   BMPParser.obj
 0001:00007dc0       ?setErrUnknown@Parser@BMPParser@@AEAAXV?$basic_string@DU?$char_traits@D@std@@V?$allocator@D@2@@std@@@Z 0000000180008dc0 f   BMPParser.obj
 0001:00007f10       ?setErr@Parser@BMPParser@@AEAAXV?$basic_string@DU?$char_traits@D@std@@V?$allocator@D@2@@std@@@Z 0000000180008f10 f   BMPParser.obj
 0001:00007fd0       ?assign@?$basic_string@DU?$char_traits@D@std@@V?$allocator@D@2@@std@@QEAAAEAV12@_KD@Z 0000000180008fd0 f i BMPParser.obj
 0001:00008140       ??$?HDU?$char_traits@D@std@@V?$allocator@D@1@@std@@YA?AV?$basic_string@DU?$char_traits@D@std@@V?$allocator@D@2@@0@AEBV10@QEBD@Z 0000000180009140 f i BMPParser.obj
 0001:00008290       ??$?9DU?$char_traits@D@std@@V?$allocator@D@1@@std@@YA_NAEBV?$basic_string@DU?$char_traits@D@std@@V?$allocator@D@2@@0@QEBD@Z 0000000180009290 f i BMPParser.obj
 0001:000082e0       ??$get@H$00@Parser@BMPParser@@AEAAHXZ 00000001800092e0 f i BMPParser.obj
 0001:000082e0       ??$get@I$00@Parser@BMPParser@@AEAAIXZ 00000001800092e0 f i BMPParser.obj
 0001:00008400       ??$get@G$00@Parser@BMPParser@@AEAAGXZ 0000000180009400 f i BMPParser.obj
 0001:00008530       ??$get@E$0A@@Parser@BMPParser@@AEAAEXZ 0000000180009530 f i BMPParser.obj
 0001:00008540       ??$get@E$00@Parser@BMPParser@@AEAAEPEAE@Z 0000000180009540 f i BMPParser.obj
 0001:00008650       ??$get@G$0A@@Parser@BMPParser@@AEAAGXZ 0000000180009650 f i BMPParser.obj
 0001:00008660       ??$get@I$0A@@Parser@BMPParser@@AEAAIXZ 0000000180009660 f i BMPParser.obj
 0001:00008670       ??$_Reallocate_grow_by@V<lambda_319d5e083f45f90dcdce5dce53cbb275>@@D@?$basic_string@DU?$char_traits@D@std@@V?$allocator@D@2@@std@@AEAAAEAV01@_KV<lambda_319d5e083f45f90dcdce5dce53cbb275>@@D@Z 0000000180009670 f i BMPParser.obj
 0001:000087e0       ??$_Reallocate_grow_by@V<lambda_f3a66ab6a0570788f31503db83886f49>@@_KPEBD_K@?$basic_string@DU?$char_traits@D@std@@V?$allocator@D@2@@std@@AEAAAEAV01@_KV<lambda_f3a66ab6a0570788f31503db83886f49>@@_KPEBD2@Z 00000001800097e0 f i BMPParser.obj
 0001:00008b40       ??1AsyncResource@Nan@@QEAA@XZ 0000000180009b40 f i Canvas.obj
 0001:00008b70       ?ThrowError@Nan@@YAXPEBD@Z 0000000180009b70 f i Canvas.obj
 0001:00008c00       ?ThrowTypeError@Nan@@YAXPEBD@Z 0000000180009c00 f i Canvas.obj
 0001:00008c90       ??0Utf8String@Nan@@QEAA@V?$Local@VValue@v8@@@v8@@@Z 0000000180009c90 f i Canvas.obj
 0001:00008dd0       ??1Utf8String@Nan@@QEAA@XZ 0000000180009dd0 f i Canvas.obj
 0001:00008df0       ?SetPrototypeMethod@Nan@@YAXV?$Local@VFunctionTemplate@v8@@@v8@@PEBDP6AXAEBV?$FunctionCallbackInfo@VValue@v8@@@1@@ZV?$Local@VValue@v8@@@3@@Z 0000000180009df0 f i Canvas.obj
 0001:00008ee0       ?SetAccessor@Nan@@YAXV?$Local@VObjectTemplate@v8@@@v8@@V?$Local@VString@v8@@@3@P6AX1AEBV?$PropertyCallbackInfo@VValue@v8@@@1@@ZP6AX1V?$Local@VValue@v8@@@3@AEBV?$PropertyCallbackInfo@X@1@@Z4W4AccessControl@3@W4PropertyAttribute@3@@Z 0000000180009ee0 f i Canvas.obj
 0001:00009090       ??0JpegClosure@@QEAA@PEAVCanvas@@@Z 000000018000a090 f i Canvas.obj
 0001:00009110       ??1JpegClosure@@QEAA@XZ    000000018000a110 f i Canvas.obj
 0001:000092e0       ?setjmp_wrapper@@YA_NPEAUpng_struct_def@@@Z 000000018000a2e0 f   Canvas.obj
 0001:00009810       ?default_error_condition@error_category@std@@UEBA?AVerror_condition@2@H@Z 000000018000a810 f i Canvas.obj
 0001:00009820       ?equivalent@error_category@std@@UEBA_NHAEBVerror_condition@2@@Z 000000018000a820 f i Canvas.obj
 0001:00009860       ?equivalent@error_category@std@@UEBA_NAEBVerror_code@2@H@Z 000000018000a860 f i Canvas.obj
 0001:00009880       ?make_error_code@std@@YA?AVerror_code@1@W4io_errc@1@@Z 000000018000a880 f i Canvas.obj
 0001:000098a0       ??_G_System_error@std@@UEAAPEAXI@Z 000000018000a8a0 f i Canvas.obj
 0001:000098a0       ??_Gfailure@ios_base@std@@UEAAPEAXI@Z 000000018000a8a0 f i Canvas.obj
 0001:000098a0       ??_E_System_error@std@@UEAAPEAXI@Z 000000018000a8a0 f i * CIL library *:* CIL module *
 0001:000098a0       ??_Gsystem_error@std@@UEAAPEAXI@Z 000000018000a8a0 f i Canvas.obj
 0001:000098a0       ??_Esystem_error@std@@UEAAPEAXI@Z 000000018000a8a0 f i * CIL library *:* CIL module *
 0001:000098a0       ??_Efailure@ios_base@std@@UEAAPEAXI@Z 000000018000a8a0 f i * CIL library *:* CIL module *
 0001:000098d0       ??0system_error@std@@QEAA@Verror_code@1@PEBD@Z 000000018000a8d0 f i Canvas.obj
 0001:00009ae0       ?name@_Iostream_error_category2@std@@UEBAPEBDXZ 000000018000aae0 f i Canvas.obj
 0001:00009af0       ?message@_Iostream_error_category2@std@@UEBA?AV?$basic_string@DU?$char_traits@D@std@@V?$allocator@D@2@@2@H@Z 000000018000aaf0 f i Canvas.obj
 0001:00009b70       ??_G_Iostream_error_category2@std@@UEAAPEAXI@Z 000000018000ab70 f i Canvas.obj
 0001:00009b70       ??_E_Iostream_error_category2@std@@UEAAPEAXI@Z 000000018000ab70 f i * CIL library *:* CIL module *
 0001:00009ba0       ??_E_Facet_base@std@@UEAAPEAXI@Z 000000018000aba0 f i * CIL library *:* CIL module *
 0001:00009ba0       ??_G_Facet_base@std@@UEAAPEAXI@Z 000000018000aba0 f i Canvas.obj
 0001:00009bd0       ?_Incref@facet@locale@std@@UEAAXXZ 000000018000abd0 f i Canvas.obj
 0001:00009be0       ?_Decref@facet@locale@std@@UEAAPEAV_Facet_base@3@XZ 000000018000abe0 f i Canvas.obj
 0001:00009bf0       ??1locale@std@@QEAA@XZ     000000018000abf0 f i Canvas.obj
 0001:00009c20       ?_Getcat@?$ctype@D@std@@SA_KPEAPEBVfacet@locale@2@PEBV42@@Z 000000018000ac20 f i Canvas.obj
 0001:00009db0       ?do_tolower@?$ctype@D@std@@MEBADD@Z 000000018000adb0 f i Canvas.obj
 0001:00009dc0       ?do_tolower@?$ctype@D@std@@MEBAPEBDPEADPEBD@Z 000000018000adc0 f i Canvas.obj
 0001:00009e10       ?do_toupper@?$ctype@D@std@@MEBADD@Z 000000018000ae10 f i Canvas.obj
 0001:00009e20       ?do_toupper@?$ctype@D@std@@MEBAPEBDPEADPEBD@Z 000000018000ae20 f i Canvas.obj
 0001:00009e70       ?do_narrow@?$ctype@D@std@@MEBADDD@Z 000000018000ae70 f i Canvas.obj
 0001:00009e70       ?do_widen@?$ctype@D@std@@MEBADD@Z 000000018000ae70 f i Canvas.obj
 0001:00009e80       ?do_widen@?$ctype@D@std@@MEBAPEBDPEBD0PEAD@Z 000000018000ae80 f i Canvas.obj
 0001:00009ea0       ?do_narrow@?$ctype@D@std@@MEBAPEBDPEBD0DPEAD@Z 000000018000aea0 f i Canvas.obj
 0001:00009ec0       ??_E?$ctype@D@std@@MEAAPEAXI@Z 000000018000aec0 f i * CIL library *:* CIL module *
 0001:00009ec0       ??_G?$ctype@D@std@@MEAAPEAXI@Z 000000018000aec0 f i Canvas.obj
 0001:00009f30       ??0failure@ios_base@std@@QEAA@PEBDAEBVerror_code@2@@Z 000000018000af30 f i Canvas.obj
 0001:00009f70       ??_Eios_base@std@@UEAAPEAXI@Z 000000018000af70 f i * CIL library *:* CIL module *
 0001:00009f70       ??_Gios_base@std@@UEAAPEAXI@Z 000000018000af70 f i Canvas.obj
 0001:00009fb0       ?empty_closure_output_buffer@@YAEPEAUjpeg_compress_struct@@@Z 000000018000afb0 f   Canvas.obj
 0001:0000a240       ?term_closure_destination@@YAXPEAUjpeg_compress_struct@@@Z 000000018000b240 f   Canvas.obj
 0001:0000a590       ?encode_jpeg@@YAXUjpeg_compress_struct@@PEAU_cairo_surface@@H_NHH@Z 000000018000b590 f   Canvas.obj
 0001:0000a780       ?write_to_jpeg_buffer@@YAXPEAU_cairo_surface@@PEAUJpegClosure@@@Z 000000018000b780 f   Canvas.obj
 0001:0000a8c0       ?Initialize@Canvas@@SAXV?$Local@VObject@v8@@@v8@@@Z 000000018000b8c0 f   Canvas.obj
 0001:0000b1c0       ?New@Canvas@@SAXAEBV?$FunctionCallbackInfo@VValue@v8@@@Nan@@@Z 000000018000c1c0 f   Canvas.obj
 0001:0000b850       ?GetType@Canvas@@SAXV?$Local@VString@v8@@@v8@@AEBV?$PropertyCallbackInfo@VValue@v8@@@Nan@@@Z 000000018000c850 f   Canvas.obj
 0001:0000b920       ?GetStride@Canvas@@SAXV?$Local@VString@v8@@@v8@@AEBV?$PropertyCallbackInfo@VValue@v8@@@Nan@@@Z 000000018000c920 f   Canvas.obj
 0001:0000ba10       ?GetWidth@Canvas@@SAXV?$Local@VString@v8@@@v8@@AEBV?$PropertyCallbackInfo@VValue@v8@@@Nan@@@Z 000000018000ca10 f   Canvas.obj
 0001:0000bae0       ?SetWidth@Canvas@@SAXV?$Local@VString@v8@@@v8@@V?$Local@VValue@v8@@@3@AEBV?$PropertyCallbackInfo@X@Nan@@@Z 000000018000cae0 f   Canvas.obj
 0001:0000bc10       ?GetHeight@Canvas@@SAXV?$Local@VString@v8@@@v8@@AEBV?$PropertyCallbackInfo@VValue@v8@@@Nan@@@Z 000000018000cc10 f   Canvas.obj
 0001:0000bce0       ?SetHeight@Canvas@@SAXV?$Local@VString@v8@@@v8@@V?$Local@VValue@v8@@@3@AEBV?$PropertyCallbackInfo@X@Nan@@@Z 000000018000cce0 f   Canvas.obj
 0001:0000be10       ?ToPngBufferAsync@Canvas@@SAXPEAUuv_work_s@@@Z 000000018000ce10 f   Canvas.obj
 0001:0000bea0       ?ToJpegBufferAsync@Canvas@@SAXPEAUuv_work_s@@@Z 000000018000cea0 f   Canvas.obj
 0001:0000bee0       ?ToBufferAsyncAfter@Canvas@@SAXPEAUuv_work_s@@@Z 000000018000cee0 f   Canvas.obj
 0001:0000cfc0       ?ToBuffer@Canvas@@SAXAEBV?$FunctionCallbackInfo@VValue@v8@@@Nan@@@Z 000000018000dfc0 f   Canvas.obj
 0001:0000dcf0       ??1PngClosure@@QEAA@XZ     000000018000ecf0 f i Canvas.obj
 0001:0000dd00       ??1TryCatch@Nan@@QEAA@XZ   000000018000ed00 f i Canvas.obj
 0001:0000dfa0       ?StreamPNGSync@Canvas@@SAXAEBV?$FunctionCallbackInfo@VValue@v8@@@Nan@@@Z 000000018000efa0 f   Canvas.obj
 0001:0000e610       ?StreamPDFSync@Canvas@@SAXAEBV?$FunctionCallbackInfo@VValue@v8@@@Nan@@@Z 000000018000f610 f   Canvas.obj
 0001:0000ea20       ?StreamJPEGSync@Canvas@@SAXAEBV?$FunctionCallbackInfo@VValue@v8@@@Nan@@@Z 000000018000fa20 f   Canvas.obj
 0001:0000eda0       ?RegisterFont@Canvas@@SAXAEBV?$FunctionCallbackInfo@VValue@v8@@@Nan@@@Z 000000018000fda0 f   Canvas.obj
 0001:0000f4b0       ?DeregisterAllFonts@Canvas@@SAXAEBV?$FunctionCallbackInfo@VValue@v8@@@Nan@@@Z 00000001800104b0 f   Canvas.obj
 0001:0000f610       ??_ECanvas@@EEAAPEAXI@Z    0000000180010610 f i * CIL library *:* CIL module *
 0001:0000f610       ??_GCanvas@@EEAAPEAXI@Z    0000000180010610 f i Canvas.obj
 0001:0000f690       ?GetStyleFromCSSString@Canvas@@SA?AW4PangoStyle@@PEBD@Z 0000000180010690 f   Canvas.obj
 0001:0000f720       ?GetWeightFromCSSString@Canvas@@SA?AW4PangoWeight@@PEBD@Z 0000000180010720 f   Canvas.obj
 0001:0000f930       ?ResolveFontDescription@Canvas@@SAPEAU_PangoFontDescription@@PEBU2@@Z 0000000180010930 f   Canvas.obj
 0001:00010630       ??_D?$basic_istringstream@DU?$char_traits@D@std@@V?$allocator@D@2@@std@@QEAAXXZ 0000000180011630 f i Canvas.obj
 0001:000106d0       ??1?$unordered_set@V?$basic_string@DU?$char_traits@D@std@@V?$allocator@D@2@@std@@U?$hash@V?$basic_string@DU?$char_traits@D@std@@V?$allocator@D@2@@std@@@2@U?$equal_to@V?$basic_string@DU?$char_traits@D@std@@V?$allocator@D@2@@std@@@2@V?$allocator@V?$basic_string@DU?$char_traits@D@std@@V?$allocator@D@2@@std@@@2@@std@@QEAA@XZ 00000001800116d0 f i Canvas.obj
 0001:000106e0       ??1?$_Hash@V?$_Uset_traits@V?$basic_string@DU?$char_traits@D@std@@V?$allocator@D@2@@std@@V?$_Uhash_compare@V?$basic_string@DU?$char_traits@D@std@@V?$allocator@D@2@@std@@U?$hash@V?$basic_string@DU?$char_traits@D@std@@V?$allocator@D@2@@std@@@2@U?$equal_to@V?$basic_string@DU?$char_traits@D@std@@V?$allocator@D@2@@std@@@2@@2@V?$allocator@V?$basic_string@DU?$char_traits@D@std@@V?$allocator@D@2@@std@@@2@$0A@@std@@@std@@QEAA@XZ 00000001800116e0 f i Canvas.obj
 0001:00010750       ?resurface@Canvas@@QEAAXV?$Local@VObject@v8@@@v8@@@Z 0000000180011750 f   Canvas.obj
 0001:000109b0       ??1?$_Hash_vec@V?$allocator@V?$_List_unchecked_const_iterator@V?$_List_val@U?$_List_simple_types@V?$basic_string@DU?$char_traits@D@std@@V?$allocator@D@2@@std@@@std@@@std@@U_Iterator_base0@2@@std@@@std@@@std@@QEAA@XZ 00000001800119b0 f i Canvas.obj
 0001:00010a10       ??1?$list@V?$basic_string@DU?$char_traits@D@std@@V?$allocator@D@2@@std@@V?$allocator@V?$basic_string@DU?$char_traits@D@std@@V?$allocator@D@2@@std@@@2@@std@@QEAA@XZ 0000000180011a10 f i Canvas.obj
 0001:00010a40       ?seekpos@?$basic_stringbuf@DU?$char_traits@D@std@@V?$allocator@D@2@@std@@MEAA?AV?$fpos@U_Mbstatet@@@2@V32@H@Z 0000000180011a40 f i Canvas.obj
 0001:00010b30       ?seekoff@?$basic_stringbuf@DU?$char_traits@D@std@@V?$allocator@D@2@@std@@MEAA?AV?$fpos@U_Mbstatet@@@2@_JHH@Z 0000000180011b30 f i Canvas.obj
 0001:00010c90       ?underflow@?$basic_stringbuf@DU?$char_traits@D@std@@V?$allocator@D@2@@std@@MEAAHXZ 0000000180011c90 f i Canvas.obj
 0001:00010d00       ?pbackfail@?$basic_stringbuf@DU?$char_traits@D@std@@V?$allocator@D@2@@std@@MEAAHH@Z 0000000180011d00 f i Canvas.obj
 0001:00010d60       ?overflow@?$basic_stringbuf@DU?$char_traits@D@std@@V?$allocator@D@2@@std@@MEAAHH@Z 0000000180011d60 f i Canvas.obj
 0001:00010f70       ??1?$basic_stringbuf@DU?$char_traits@D@std@@V?$allocator@D@2@@std@@UEAA@XZ 0000000180011f70 f i Canvas.obj
 0001:00011070       ?sync@?$basic_streambuf@DU?$char_traits@D@std@@@std@@MEAAHXZ 0000000180012070 f i Canvas.obj
 0001:00011070       ?showmanyc@?$basic_streambuf@DU?$char_traits@D@std@@@std@@MEAA_JXZ 0000000180012070 f i Canvas.obj
 0001:00011080       ?setbuf@?$basic_streambuf@DU?$char_traits@D@std@@@std@@MEAAPEAV12@PEAD_J@Z 0000000180012080 f i Canvas.obj
 0001:00011090       ?seekpos@?$basic_streambuf@DU?$char_traits@D@std@@@std@@MEAA?AV?$fpos@U_Mbstatet@@@2@V32@H@Z 0000000180012090 f i Canvas.obj
 0001:00011090       ?seekoff@?$basic_streambuf@DU?$char_traits@D@std@@@std@@MEAA?AV?$fpos@U_Mbstatet@@@2@_JHH@Z 0000000180012090 f i Canvas.obj
 0001:000110b0       ?xsputn@?$basic_streambuf@DU?$char_traits@D@std@@@std@@MEAA_JPEBD_J@Z 00000001800120b0 f i Canvas.obj
 0001:00011170       ?xsgetn@?$basic_streambuf@DU?$char_traits@D@std@@@std@@MEAA_JPEAD_J@Z 0000000180012170 f i Canvas.obj
 0001:00011220       ?uflow@?$basic_streambuf@DU?$char_traits@D@std@@@std@@MEAAHXZ 0000000180012220 f i Canvas.obj
 0001:00011260       ??1?$basic_streambuf@DU?$char_traits@D@std@@@std@@UEAA@XZ 0000000180012260 f i Canvas.obj
 0001:000112c0       ??0?$basic_istringstream@DU?$char_traits@D@std@@V?$allocator@D@2@@std@@QEAA@AEBV?$basic_string@DU?$char_traits@D@std@@V?$allocator@D@2@@1@H@Z 00000001800122c0 f i Canvas.obj
 0001:00011490       ??1?$basic_istream@DU?$char_traits@D@std@@@std@@UEAA@XZ 0000000180012490 f i Canvas.obj
 0001:000114c0       ??1?$basic_ios@DU?$char_traits@D@std@@@std@@UEAA@XZ 00000001800124c0 f i Canvas.obj
 0001:000114e0       ??0?$TypedArrayContents@E@Nan@@QEAA@V?$Local@VValue@v8@@@v8@@@Z 00000001800124e0 f i Canvas.obj
 0001:000115a0       ??1?$_Yarn@_W@std@@QEAA@XZ 00000001800125a0 f i Canvas.obj
 0001:000115a0       ??1?$_Yarn@D@std@@QEAA@XZ  00000001800125a0 f i Canvas.obj
 0001:000115d0       ??_G?$basic_stringbuf@DU?$char_traits@D@std@@V?$allocator@D@2@@std@@UEAAPEAXI@Z 00000001800125d0 f i Canvas.obj
 0001:000115d0       ??_E?$basic_stringbuf@DU?$char_traits@D@std@@V?$allocator@D@2@@std@@UEAAPEAXI@Z 00000001800125d0 f i * CIL library *:* CIL module *
 0001:00011610       ??_G?$basic_streambuf@DU?$char_traits@D@std@@@std@@UEAAPEAXI@Z 0000000180012610 f i Canvas.obj
 0001:00011610       ??_E?$basic_streambuf@DU?$char_traits@D@std@@@std@@UEAAPEAXI@Z 0000000180012610 f i * CIL library *:* CIL module *
 0001:00011690       ??_G?$basic_istringstream@DU?$char_traits@D@std@@V?$allocator@D@2@@std@@UEAAPEAXI@Z 0000000180012690 f i Canvas.obj
 0001:00011690       ??_E?$basic_istringstream@DU?$char_traits@D@std@@V?$allocator@D@2@@std@@UEAAPEAXI@Z 0000000180012690 f i * CIL library *:* CIL module *
 0001:000116d0       ??_E?$basic_istream@DU?$char_traits@D@std@@@std@@UEAAPEAXI@Z 00000001800126d0 f i * CIL library *:* CIL module *
 0001:000116d0       ??_G?$basic_istream@DU?$char_traits@D@std@@@std@@UEAAPEAXI@Z 00000001800126d0 f i Canvas.obj
 0001:00011740       ??_G?$basic_ios@DU?$char_traits@D@std@@@std@@UEAAPEAXI@Z 0000000180012740 f i Canvas.obj
 0001:00011740       ??_E?$basic_ios@DU?$char_traits@D@std@@@std@@UEAAPEAXI@Z 0000000180012740 f i * CIL library *:* CIL module *
 0001:00011780       ?_Pnavail@?$basic_streambuf@DU?$char_traits@D@std@@@std@@IEBA_JXZ 0000000180012780 f i Canvas.obj
 0001:000117a0       ?_Gnavail@?$basic_streambuf@DU?$char_traits@D@std@@@std@@IEBA_JXZ 00000001800127a0 f i Canvas.obj
 0001:000117c0       ??0?$basic_istream@DU?$char_traits@D@std@@@std@@QEAA@PEAV?$basic_streambuf@DU?$char_traits@D@std@@@1@_N@Z 00000001800127c0 f i Canvas.obj
 0001:00011920       ?_Assign_grow@?$_Hash_vec@V?$allocator@V?$_List_unchecked_const_iterator@V?$_List_val@U?$_List_simple_types@V?$basic_string@DU?$char_traits@D@std@@V?$allocator@D@2@@std@@@std@@@std@@U_Iterator_base0@2@@std@@@std@@@std@@QEAAX_KV?$_List_unchecked_const_iterator@V?$_List_val@U?$_List_simple_types@V?$basic_string@DU?$char_traits@D@std@@V?$allocator@D@2@@std@@@std@@@std@@U_Iterator_base0@2@@2@@Z 0000000180012920 f i Canvas.obj
 0001:00011a70       ??$New@VString@v8@@V?$basic_string@DU?$char_traits@D@std@@V?$allocator@D@2@@std@@@Nan@@YA?AV?$MaybeLocal@VString@v8@@@v8@@V?$basic_string@DU?$char_traits@D@std@@V?$allocator@D@2@@std@@@Z 0000000180012a70 f i Canvas.obj
 0001:00011b60       ??$use_facet@V?$ctype@D@std@@@std@@YAAEBV?$ctype@D@0@AEBVlocale@0@@Z 0000000180012b60 f i Canvas.obj
 0001:00011c70       ??$SetMethod@VFunctionTemplate@v8@@VLocal@2@@Nan@@YAXV?$Local@VFunctionTemplate@v8@@@v8@@PEBDP6AXAEBV?$FunctionCallbackInfo@VValue@v8@@@0@@ZV?$Local@VValue@v8@@@2@@Z 0000000180012c70 f i Canvas.obj
 0001:00011d40       ??$Unwrap@VGradient@@@ObjectWrap@Nan@@SAPEAVGradient@@V?$Local@VObject@v8@@@v8@@@Z 0000000180012d40 f i CanvasGradient.obj
 0001:00011d40       ??$Unwrap@VImageData@@@ObjectWrap@Nan@@SAPEAVImageData@@V?$Local@VObject@v8@@@v8@@@Z 0000000180012d40 f i CanvasRenderingContext2d.obj
 0001:00011d40       ??$Unwrap@VImage@@@ObjectWrap@Nan@@SAPEAVImage@@V?$Local@VObject@v8@@@v8@@@Z 0000000180012d40 f i CanvasPattern.obj
 0001:00011d40       ??$Unwrap@VContext2d@@@ObjectWrap@Nan@@SAPEAVContext2d@@V?$Local@VObject@v8@@@v8@@@Z 0000000180012d40 f i Canvas.obj
 0001:00011d40       ??$Unwrap@VCanvas@@@ObjectWrap@Nan@@SAPEAVCanvas@@V?$Local@VObject@v8@@@v8@@@Z 0000000180012d40 f i Canvas.obj
 0001:00011d40       ??$Unwrap@VPattern@@@ObjectWrap@Nan@@SAPEAVPattern@@V?$Local@VObject@v8@@@v8@@@Z 0000000180012d40 f i CanvasPattern.obj
 0001:00011dd0       ??$emplace@V?$basic_string@DU?$char_traits@D@std@@V?$allocator@D@2@@std@@@?$_Hash@V?$_Uset_traits@V?$basic_string@DU?$char_traits@D@std@@V?$allocator@D@2@@std@@V?$_Uhash_compare@V?$basic_string@DU?$char_traits@D@std@@V?$allocator@D@2@@std@@U?$hash@V?$basic_string@DU?$char_traits@D@std@@V?$allocator@D@2@@std@@@2@U?$equal_to@V?$basic_string@DU?$char_traits@D@std@@V?$allocator@D@2@@std@@@2@@2@V?$allocator@V?$basic_string@DU?$char_traits@D@std@@V?$allocator@D@2@@std@@@2@$0A@@std@@@std@@QEAA?AU?$pair@V?$_List_const_iterator@V?$_List_val@U?$_List_simple_types@V?$basic_string@DU?$char_traits@D@std@@V?$allocator@D@2@@std@@@std@@@std@@@std@@_N@1@$$QEAV?$basic_string@DU?$char_traits@D@std@@V?$allocator@D@2@@1@@Z 0000000180012dd0 f i Canvas.obj
 0001:00012130       ??$_Emplace_reallocate@AEBVFontFace@@@?$vector@VFontFace@@V?$allocator@VFontFace@@@std@@@std@@QEAAPEAVFontFace@@QEAV2@AEBV2@@Z 0000000180013130 f i Canvas.obj
 0001:000123a0       ??$_Free_non_head@V?$allocator@U?$_List_node@V?$basic_string@DU?$char_traits@D@std@@V?$allocator@D@2@@std@@PEAX@std@@@std@@@?$_List_node@V?$basic_string@DU?$char_traits@D@std@@V?$allocator@D@2@@std@@PEAX@std@@SAXAEAV?$allocator@U?$_List_node@V?$basic_string@DU?$char_traits@D@std@@V?$allocator@D@2@@std@@PEAX@std@@@1@PEAU01@@Z 00000001800133a0 f i Canvas.obj
 0001:00012440       ??1?$_List_node_emplace_op2@V?$allocator@U?$_List_node@V?$basic_string@DU?$char_traits@D@std@@V?$allocator@D@2@@std@@PEAX@std@@@std@@@std@@QEAA@XZ 0000000180013440 f i Canvas.obj
 0001:000124d0       ??1?$unique_ptr@V_Facet_base@std@@U?$default_delete@V_Facet_base@std@@@2@@std@@QEAA@XZ 00000001800134d0 f i Canvas.obj
 0001:000124f0       ??1?$_Alloc_construct_ptr@V?$allocator@U?$_List_node@V?$basic_string@DU?$char_traits@D@std@@V?$allocator@D@2@@std@@PEAX@std@@@std@@@std@@QEAA@XZ 00000001800134f0 f i Canvas.obj
 0001:00012510       ?_Forced_rehash@?$_Hash@V?$_Uset_traits@V?$basic_string@DU?$char_traits@D@std@@V?$allocator@D@2@@std@@V?$_Uhash_compare@V?$basic_string@DU?$char_traits@D@std@@V?$allocator@D@2@@std@@U?$hash@V?$basic_string@DU?$char_traits@D@std@@V?$allocator@D@2@@std@@@2@U?$equal_to@V?$basic_string@DU?$char_traits@D@std@@V?$allocator@D@2@@std@@@2@@2@V?$allocator@V?$basic_string@DU?$char_traits@D@std@@V?$allocator@D@2@@std@@@2@$0A@@std@@@std@@IEAAX_K@Z 0000000180013510 f i Canvas.obj
 0001:00012790       ??$getline@DU?$char_traits@D@std@@V?$allocator@D@2@@std@@YAAEAV?$basic_istream@DU?$char_traits@D@std@@@0@$$QEAV10@AEAV?$basic_string@DU?$char_traits@D@std@@V?$allocator@D@2@@0@D@Z 0000000180013790 f i Canvas.obj
 0001:00012ac0       ??$_Uninitialized_move@PEAVFontFace@@V?$allocator@VFontFace@@@std@@@std@@YAPEAVFontFace@@QEAV1@0PEAV1@AEAV?$allocator@VFontFace@@@0@@Z 0000000180013ac0 f i Canvas.obj
 0001:00012b60       ??1sentry@?$basic_istream@DU?$char_traits@D@std@@@std@@QEAA@XZ 0000000180013b60 f i Canvas.obj
 0001:00012b90       ??1_Sentry_base@?$basic_istream@DU?$char_traits@D@std@@@std@@QEAA@XZ 0000000180013b90 f i Canvas.obj
 0001:00012b90       ??1_Sentry_base@?$basic_ostream@DU?$char_traits@D@std@@@std@@QEAA@XZ 0000000180013b90 f i Canvas.obj
 0001:00012bc0       ?flush@?$basic_ostream@DU?$char_traits@D@std@@@std@@QEAAAEAV12@XZ 0000000180013bc0 f i Canvas.obj
 0001:00012d50       ??1sentry@?$basic_ostream@DU?$char_traits@D@std@@@std@@QEAA@XZ 0000000180013d50 f i Canvas.obj
 0001:00012e08       ??_E?$basic_istream@DU?$char_traits@D@std@@@std@@$4PPPPPPPM@A@EAAPEAXI@Z 0000000180013e08 f i Canvas.obj
 0001:00012e14       ??_E?$basic_istringstream@DU?$char_traits@D@std@@V?$allocator@D@2@@std@@$4PPPPPPPM@A@EAAPEAXI@Z 0000000180013e14 f i Canvas.obj
 0001:00012e20       ?New@Gradient@@SAXAEBV?$FunctionCallbackInfo@VValue@v8@@@Nan@@@Z 0000000180013e20 f   CanvasGradient.obj
 0001:00013470       ?AddColorStop@Gradient@@SAXAEBV?$FunctionCallbackInfo@VValue@v8@@@Nan@@@Z 0000000180014470 f   CanvasGradient.obj
 0001:000136e0       ??_GGradient@@EEAAPEAXI@Z  00000001800146e0 f i CanvasGradient.obj
 0001:000136e0       ??_EGradient@@EEAAPEAXI@Z  00000001800146e0 f i * CIL library *:* CIL module *
 0001:00013760       ?Initialize@Pattern@@SAXV?$Local@VObject@v8@@@v8@@@Z 0000000180014760 f   CanvasPattern.obj
 0001:000139c0       ?SaveExternalModules@Pattern@@SAXAEBV?$FunctionCallbackInfo@VValue@v8@@@Nan@@@Z 00000001800149c0 f   CanvasPattern.obj
 0001:00013a50       ?New@Pattern@@SAXAEBV?$FunctionCallbackInfo@VValue@v8@@@Nan@@@Z 0000000180014a50 f   CanvasPattern.obj
 0001:00013dc0       ?SetTransform@Pattern@@SAXAEBV?$FunctionCallbackInfo@VValue@v8@@@Nan@@@Z 0000000180014dc0 f   CanvasPattern.obj
 0001:00014590       ??_GPattern@@EEAAPEAXI@Z   0000000180015590 f i CanvasPattern.obj
 0001:00014590       ??_EPattern@@EEAAPEAXI@Z   0000000180015590 f i * CIL library *:* CIL module *
 0001:00014610       ??$New@VFunction@v8@@@Nan@@YA?AV?$Local@VFunction@v8@@@v8@@P6AXAEBV?$FunctionCallbackInfo@VValue@v8@@@0@@ZV?$Local@VValue@v8@@@2@@Z 0000000180015610 f i CanvasPattern.obj
 0001:000147b0       ?_Throw_tree_length_error@std@@YAXXZ 00000001800157b0 f i CanvasRenderingContext2d.obj
 0001:00014900       ?Initialize@Context2d@@SAXV?$Local@VObject@v8@@@v8@@@Z 0000000180015900 f   CanvasRenderingContext2d.obj
 0001:000156f0       ??$emplace@$$V@?$stack@Ucanvas_state_t@@V?$deque@Ucanvas_state_t@@V?$allocator@Ucanvas_state_t@@@std@@@std@@@std@@QEAA?A_TXZ 00000001800166f0 f i CanvasRenderingContext2d.obj
 0001:00015810       ??_EContext2d@@EEAAPEAXI@Z 0000000180016810 f i * CIL library *:* CIL module *
 0001:00015810       ??_GContext2d@@EEAAPEAXI@Z 0000000180016810 f i CanvasRenderingContext2d.obj
 0001:000158e0       ??1?$stack@Ucanvas_state_t@@V?$deque@Ucanvas_state_t@@V?$allocator@Ucanvas_state_t@@@std@@@std@@@std@@QEAA@XZ 00000001800168e0 f i CanvasRenderingContext2d.obj
 0001:000158f0       ?save@Context2d@@QEAAXXZ   00000001800168f0 f   CanvasRenderingContext2d.obj
 0001:00015b40       ?create_transparent_gradient@@YAPEAU_cairo_pattern@@PEAU1@M@Z 0000000180016b40 f   CanvasRenderingContext2d.obj
 0001:00015cd0       ?create_transparent_pattern@@YAPEAU_cairo_pattern@@PEAU1@M@Z 0000000180016cd0 f   CanvasRenderingContext2d.obj
 0001:00015da0       ?setFillRule@Context2d@@QEAAXV?$Local@VValue@v8@@@v8@@@Z 0000000180016da0 f i CanvasRenderingContext2d.obj
 0001:00015e70       ?fill@Context2d@@QEAAX_N@Z 0000000180016e70 f   CanvasRenderingContext2d.obj
 0001:00016210       ?stroke@Context2d@@QEAAX_N@Z 0000000180017210 f   CanvasRenderingContext2d.obj
 0001:00016460       ?shadow@Context2d@@QEAAXP6AXPEAU_cairo@@@Z@Z 0000000180017460 f   CanvasRenderingContext2d.obj
 0001:00016900       ?blur@Context2d@@QEAAXPEAU_cairo_surface@@H@Z 0000000180017900 f   CanvasRenderingContext2d.obj
 0001:00016e70       ?New@Context2d@@SAXAEBV?$FunctionCallbackInfo@VValue@v8@@@Nan@@@Z 0000000180017e70 f   CanvasRenderingContext2d.obj
 0001:00017530       ?SaveExternalModules@Context2d@@SAXAEBV?$FunctionCallbackInfo@VValue@v8@@@Nan@@@Z 0000000180018530 f   CanvasRenderingContext2d.obj
 0001:00017640       ?GetFormat@Context2d@@SAXV?$Local@VString@v8@@@v8@@AEBV?$PropertyCallbackInfo@VValue@v8@@@Nan@@@Z 0000000180018640 f   CanvasRenderingContext2d.obj
 0001:000178d0       ?AddPage@Context2d@@SAXAEBV?$FunctionCallbackInfo@VValue@v8@@@Nan@@@Z 00000001800188d0 f   CanvasRenderingContext2d.obj
 0001:00017b30       ?PutImageData@Context2d@@SAXAEBV?$FunctionCallbackInfo@VValue@v8@@@Nan@@@Z 0000000180018b30 f   CanvasRenderingContext2d.obj
 0001:00018610       ?GetImageData@Context2d@@SAXAEBV?$FunctionCallbackInfo@VValue@v8@@@Nan@@@Z 0000000180019610 f   CanvasRenderingContext2d.obj
 0001:00019140       ?CreateImageData@Context2d@@SAXAEBV?$FunctionCallbackInfo@VValue@v8@@@Nan@@@Z 000000018001a140 f   CanvasRenderingContext2d.obj
 0001:000197b0       ?DrawImage@Context2d@@SAXAEBV?$FunctionCallbackInfo@VValue@v8@@@Nan@@@Z 000000018001a7b0 f   CanvasRenderingContext2d.obj
 0001:0001a0e0       ?GetGlobalAlpha@Context2d@@SAXV?$Local@VString@v8@@@v8@@AEBV?$PropertyCallbackInfo@VValue@v8@@@Nan@@@Z 000000018001b0e0 f   CanvasRenderingContext2d.obj
 0001:0001a1b0       ?SetGlobalAlpha@Context2d@@SAXV?$Local@VString@v8@@@v8@@V?$Local@VValue@v8@@@3@AEBV?$PropertyCallbackInfo@X@Nan@@@Z 000000018001b1b0 f   CanvasRenderingContext2d.obj
 0001:0001a2d0       ?GetGlobalCompositeOperation@Context2d@@SAXV?$Local@VString@v8@@@v8@@AEBV?$PropertyCallbackInfo@VValue@v8@@@Nan@@@Z 000000018001b2d0 f   CanvasRenderingContext2d.obj
 0001:0001a570       ?SetPatternQuality@Context2d@@SAXV?$Local@VString@v8@@@v8@@V?$Local@VValue@v8@@@3@AEBV?$PropertyCallbackInfo@X@Nan@@@Z 000000018001b570 f   CanvasRenderingContext2d.obj
 0001:0001a790       ?GetPatternQuality@Context2d@@SAXV?$Local@VString@v8@@@v8@@AEBV?$PropertyCallbackInfo@VValue@v8@@@Nan@@@Z 000000018001b790 f   CanvasRenderingContext2d.obj
 0001:0001a8b0       ?SetImageSmoothingEnabled@Context2d@@SAXV?$Local@VString@v8@@@v8@@V?$Local@VValue@v8@@@3@AEBV?$PropertyCallbackInfo@X@Nan@@@Z 000000018001b8b0 f   CanvasRenderingContext2d.obj
 0001:0001a9a0       ?GetImageSmoothingEnabled@Context2d@@SAXV?$Local@VString@v8@@@v8@@AEBV?$PropertyCallbackInfo@VValue@v8@@@Nan@@@Z 000000018001b9a0 f   CanvasRenderingContext2d.obj
 0001:0001aa60       ?SetGlobalCompositeOperation@Context2d@@SAXV?$Local@VString@v8@@@v8@@V?$Local@VValue@v8@@@3@AEBV?$PropertyCallbackInfo@X@Nan@@@Z 000000018001ba60 f   CanvasRenderingContext2d.obj
 0001:0001b5c0       ??1?$_Tree@V?$_Tmap_traits@V?$basic_string@DU?$char_traits@D@std@@V?$allocator@D@2@@std@@W4_cairo_operator@@U?$less@V?$basic_string@DU?$char_traits@D@std@@V?$allocator@D@2@@std@@@2@V?$allocator@U?$pair@$$CBV?$basic_string@DU?$char_traits@D@std@@V?$allocator@D@2@@std@@W4_cairo_operator@@@std@@@2@$0A@@std@@@std@@QEAA@XZ 000000018001c5c0 f i CanvasRenderingContext2d.obj
 0001:0001b5c0       ??1?$map@V?$basic_string@DU?$char_traits@D@std@@V?$allocator@D@2@@std@@W4text_baseline_t@@U?$less@V?$basic_string@DU?$char_traits@D@std@@V?$allocator@D@2@@std@@@2@V?$allocator@U?$pair@$$CBV?$basic_string@DU?$char_traits@D@std@@V?$allocator@D@2@@std@@W4text_baseline_t@@@std@@@2@@std@@QEAA@XZ 000000018001c5c0 f i CanvasRenderingContext2d.obj
 0001:0001b5c0       ??1?$_Tree@V?$_Tmap_traits@V?$basic_string@DU?$char_traits@D@std@@V?$allocator@D@2@@std@@IU?$less@V?$basic_string@DU?$char_traits@D@std@@V?$allocator@D@2@@std@@@2@V?$allocator@U?$pair@$$CBV?$basic_string@DU?$char_traits@D@std@@V?$allocator@D@2@@std@@I@std@@@2@$0A@@std@@@std@@QEAA@XZ 000000018001c5c0 f i color.obj
 0001:0001b5c0       ??1?$map@V?$basic_string@DU?$char_traits@D@std@@V?$allocator@D@2@@std@@W4text_align_t@@U?$less@V?$basic_string@DU?$char_traits@D@std@@V?$allocator@D@2@@std@@@2@V?$allocator@U?$pair@$$CBV?$basic_string@DU?$char_traits@D@std@@V?$allocator@D@2@@std@@W4text_align_t@@@std@@@2@@std@@QEAA@XZ 000000018001c5c0 f i CanvasRenderingContext2d.obj
 0001:0001b5c0       ??1?$_Tree@V?$_Tmap_traits@V?$basic_string@DU?$char_traits@D@std@@V?$allocator@D@2@@std@@W4text_baseline_t@@U?$less@V?$basic_string@DU?$char_traits@D@std@@V?$allocator@D@2@@std@@@2@V?$allocator@U?$pair@$$CBV?$basic_string@DU?$char_traits@D@std@@V?$allocator@D@2@@std@@W4text_baseline_t@@@std@@@2@$0A@@std@@@std@@QEAA@XZ 000000018001c5c0 f i CanvasRenderingContext2d.obj
 0001:0001b5c0       ??1?$_Tree@V?$_Tmap_traits@V?$basic_string@DU?$char_traits@D@std@@V?$allocator@D@2@@std@@W4text_align_t@@U?$less@V?$basic_string@DU?$char_traits@D@std@@V?$allocator@D@2@@std@@@2@V?$allocator@U?$pair@$$CBV?$basic_string@DU?$char_traits@D@std@@V?$allocator@D@2@@std@@W4text_align_t@@@std@@@2@$0A@@std@@@std@@QEAA@XZ 000000018001c5c0 f i CanvasRenderingContext2d.obj
 0001:0001b5c0       ??1?$map@V?$basic_string@DU?$char_traits@D@std@@V?$allocator@D@2@@std@@W4_cairo_operator@@U?$less@V?$basic_string@DU?$char_traits@D@std@@V?$allocator@D@2@@std@@@2@V?$allocator@U?$pair@$$CBV?$basic_string@DU?$char_traits@D@std@@V?$allocator@D@2@@std@@W4_cairo_operator@@@std@@@2@@std@@QEAA@XZ 000000018001c5c0 f i CanvasRenderingContext2d.obj
 0001:0001b5f0       ?GetShadowOffsetX@Context2d@@SAXV?$Local@VString@v8@@@v8@@AEBV?$PropertyCallbackInfo@VValue@v8@@@Nan@@@Z 000000018001c5f0 f   CanvasRenderingContext2d.obj
 0001:0001b6b0       ?SetShadowOffsetX@Context2d@@SAXV?$Local@VString@v8@@@v8@@V?$Local@VValue@v8@@@3@AEBV?$PropertyCallbackInfo@X@Nan@@@Z 000000018001c6b0 f   CanvasRenderingContext2d.obj
 0001:0001b7a0       ?GetShadowOffsetY@Context2d@@SAXV?$Local@VString@v8@@@v8@@AEBV?$PropertyCallbackInfo@VValue@v8@@@Nan@@@Z 000000018001c7a0 f   CanvasRenderingContext2d.obj
 0001:0001b860       ?SetShadowOffsetY@Context2d@@SAXV?$Local@VString@v8@@@v8@@V?$Local@VValue@v8@@@3@AEBV?$PropertyCallbackInfo@X@Nan@@@Z 000000018001c860 f   CanvasRenderingContext2d.obj
 0001:0001b950       ?GetShadowBlur@Context2d@@SAXV?$Local@VString@v8@@@v8@@AEBV?$PropertyCallbackInfo@VValue@v8@@@Nan@@@Z 000000018001c950 f   CanvasRenderingContext2d.obj
 0001:0001ba20       ?SetShadowBlur@Context2d@@SAXV?$Local@VString@v8@@@v8@@V?$Local@VValue@v8@@@3@AEBV?$PropertyCallbackInfo@X@Nan@@@Z 000000018001ca20 f   CanvasRenderingContext2d.obj
 0001:0001bb20       ?GetAntiAlias@Context2d@@SAXV?$Local@VString@v8@@@v8@@AEBV?$PropertyCallbackInfo@VValue@v8@@@Nan@@@Z 000000018001cb20 f   CanvasRenderingContext2d.obj
 0001:0001bc30       ?SetAntiAlias@Context2d@@SAXV?$Local@VString@v8@@@v8@@V?$Local@VValue@v8@@@3@AEBV?$PropertyCallbackInfo@X@Nan@@@Z 000000018001cc30 f   CanvasRenderingContext2d.obj
 0001:0001be20       ?GetTextDrawingMode@Context2d@@SAXV?$Local@VString@v8@@@v8@@AEBV?$PropertyCallbackInfo@VValue@v8@@@Nan@@@Z 000000018001ce20 f   CanvasRenderingContext2d.obj
 0001:0001bf20       ?SetTextDrawingMode@Context2d@@SAXV?$Local@VString@v8@@@v8@@V?$Local@VValue@v8@@@3@AEBV?$PropertyCallbackInfo@X@Nan@@@Z 000000018001cf20 f   CanvasRenderingContext2d.obj
 0001:0001c0c0       ?GetQuality@Context2d@@SAXV?$Local@VString@v8@@@v8@@AEBV?$PropertyCallbackInfo@VValue@v8@@@Nan@@@Z 000000018001d0c0 f   CanvasRenderingContext2d.obj
 0001:0001c1f0       ?SetQuality@Context2d@@SAXV?$Local@VString@v8@@@v8@@V?$Local@VValue@v8@@@3@AEBV?$PropertyCallbackInfo@X@Nan@@@Z 000000018001d1f0 f   CanvasRenderingContext2d.obj
 0001:0001c3d0       ?get_current_transform@@YA?AV?$Local@VObject@v8@@@v8@@PEAVContext2d@@@Z 000000018001d3d0 f   CanvasRenderingContext2d.obj
 0001:0001c5e0       ?parse_matrix_from_object@@YAXAEAU_cairo_matrix@@V?$Local@VObject@v8@@@v8@@@Z 000000018001d5e0 f   CanvasRenderingContext2d.obj
 0001:0001cc70       ?GetCurrentTransform@Context2d@@SAXV?$Local@VString@v8@@@v8@@AEBV?$PropertyCallbackInfo@VValue@v8@@@Nan@@@Z 000000018001dc70 f   CanvasRenderingContext2d.obj
 0001:0001cd20       ?SetCurrentTransform@Context2d@@SAXV?$Local@VString@v8@@@v8@@V?$Local@VValue@v8@@@3@AEBV?$PropertyCallbackInfo@X@Nan@@@Z 000000018001dd20 f   CanvasRenderingContext2d.obj
 0001:0001cec0       ?GetFillStyle@Context2d@@SAXV?$Local@VString@v8@@@v8@@AEBV?$PropertyCallbackInfo@VValue@v8@@@Nan@@@Z 000000018001dec0 f   CanvasRenderingContext2d.obj
 0001:0001d000       ?SetFillStyle@Context2d@@SAXV?$Local@VString@v8@@@v8@@V?$Local@VValue@v8@@@3@AEBV?$PropertyCallbackInfo@X@Nan@@@Z 000000018001e000 f   CanvasRenderingContext2d.obj
 0001:0001d360       ?GetStrokeStyle@Context2d@@SAXV?$Local@VString@v8@@@v8@@AEBV?$PropertyCallbackInfo@VValue@v8@@@Nan@@@Z 000000018001e360 f   CanvasRenderingContext2d.obj
 0001:0001d4b0       ?SetStrokeStyle@Context2d@@SAXV?$Local@VString@v8@@@v8@@V?$Local@VValue@v8@@@3@AEBV?$PropertyCallbackInfo@X@Nan@@@Z 000000018001e4b0 f   CanvasRenderingContext2d.obj
 0001:0001d810       ?GetMiterLimit@Context2d@@SAXV?$Local@VString@v8@@@v8@@AEBV?$PropertyCallbackInfo@VValue@v8@@@Nan@@@Z 000000018001e810 f   CanvasRenderingContext2d.obj
 0001:0001d8e0       ?SetMiterLimit@Context2d@@SAXV?$Local@VString@v8@@@v8@@V?$Local@VValue@v8@@@3@AEBV?$PropertyCallbackInfo@X@Nan@@@Z 000000018001e8e0 f   CanvasRenderingContext2d.obj
 0001:0001d9e0       ?GetLineWidth@Context2d@@SAXV?$Local@VString@v8@@@v8@@AEBV?$PropertyCallbackInfo@VValue@v8@@@Nan@@@Z 000000018001e9e0 f   CanvasRenderingContext2d.obj
 0001:0001dab0       ?SetLineWidth@Context2d@@SAXV?$Local@VString@v8@@@v8@@V?$Local@VValue@v8@@@3@AEBV?$PropertyCallbackInfo@X@Nan@@@Z 000000018001eab0 f   CanvasRenderingContext2d.obj
 0001:0001dbc0       ?GetLineJoin@Context2d@@SAXV?$Local@VString@v8@@@v8@@AEBV?$PropertyCallbackInfo@VValue@v8@@@Nan@@@Z 000000018001ebc0 f   CanvasRenderingContext2d.obj
 0001:0001dcc0       ?SetLineJoin@Context2d@@SAXV?$Local@VString@v8@@@v8@@V?$Local@VValue@v8@@@3@AEBV?$PropertyCallbackInfo@X@Nan@@@Z 000000018001ecc0 f   CanvasRenderingContext2d.obj
 0001:0001de60       ?GetLineCap@Context2d@@SAXV?$Local@VString@v8@@@v8@@AEBV?$PropertyCallbackInfo@VValue@v8@@@Nan@@@Z 000000018001ee60 f   CanvasRenderingContext2d.obj
 0001:0001df60       ?SetLineCap@Context2d@@SAXV?$Local@VString@v8@@@v8@@V?$Local@VValue@v8@@@3@AEBV?$PropertyCallbackInfo@X@Nan@@@Z 000000018001ef60 f   CanvasRenderingContext2d.obj
 0001:0001e100       ?IsPointInPath@Context2d@@SAXAEBV?$FunctionCallbackInfo@VValue@v8@@@Nan@@@Z 000000018001f100 f   CanvasRenderingContext2d.obj
 0001:0001e340       ?SetShadowColor@Context2d@@SAXV?$Local@VString@v8@@@v8@@V?$Local@VValue@v8@@@3@AEBV?$PropertyCallbackInfo@X@Nan@@@Z 000000018001f340 f   CanvasRenderingContext2d.obj
 0001:0001e4f0       ?GetShadowColor@Context2d@@SAXV?$Local@VString@v8@@@v8@@AEBV?$PropertyCallbackInfo@VValue@v8@@@Nan@@@Z 000000018001f4f0 f   CanvasRenderingContext2d.obj
 0001:0001e610       ?CreatePattern@Context2d@@SAXAEBV?$FunctionCallbackInfo@VValue@v8@@@Nan@@@Z 000000018001f610 f   CanvasRenderingContext2d.obj
 0001:0001e840       ?CreateLinearGradient@Context2d@@SAXAEBV?$FunctionCallbackInfo@VValue@v8@@@Nan@@@Z 000000018001f840 f   CanvasRenderingContext2d.obj
 0001:0001ea50       ?CreateRadialGradient@Context2d@@SAXAEBV?$FunctionCallbackInfo@VValue@v8@@@Nan@@@Z 000000018001fa50 f   CanvasRenderingContext2d.obj
 0001:0001ecb0       ?BezierCurveTo@Context2d@@SAXAEBV?$FunctionCallbackInfo@VValue@v8@@@Nan@@@Z 000000018001fcb0 f   CanvasRenderingContext2d.obj
 0001:0001ed40       ?QuadraticCurveTo@Context2d@@SAXAEBV?$FunctionCallbackInfo@VValue@v8@@@Nan@@@Z 000000018001fd40 f   CanvasRenderingContext2d.obj
 0001:0001eea0       ?Save@Context2d@@SAXAEBV?$FunctionCallbackInfo@VValue@v8@@@Nan@@@Z 000000018001fea0 f   CanvasRenderingContext2d.obj
 0001:0001eec0       ?Restore@Context2d@@SAXAEBV?$FunctionCallbackInfo@VValue@v8@@@Nan@@@Z 000000018001fec0 f   CanvasRenderingContext2d.obj
 0001:0001ef80       ?BeginPath@Context2d@@SAXAEBV?$FunctionCallbackInfo@VValue@v8@@@Nan@@@Z 000000018001ff80 f   CanvasRenderingContext2d.obj
 0001:0001efb0       ?ClosePath@Context2d@@SAXAEBV?$FunctionCallbackInfo@VValue@v8@@@Nan@@@Z 000000018001ffb0 f   CanvasRenderingContext2d.obj
 0001:0001efe0       ?Rotate@Context2d@@SAXAEBV?$FunctionCallbackInfo@VValue@v8@@@Nan@@@Z 000000018001ffe0 f   CanvasRenderingContext2d.obj
 0001:0001f030       ?Transform@Context2d@@SAXAEBV?$FunctionCallbackInfo@VValue@v8@@@Nan@@@Z 0000000180020030 f   CanvasRenderingContext2d.obj
 0001:0001f0e0       ?GetTransform@Context2d@@SAXAEBV?$FunctionCallbackInfo@VValue@v8@@@Nan@@@Z 00000001800200e0 f   CanvasRenderingContext2d.obj
 0001:0001f140       ?ResetTransform@Context2d@@SAXAEBV?$FunctionCallbackInfo@VValue@v8@@@Nan@@@Z 0000000180020140 f   CanvasRenderingContext2d.obj
 0001:0001f170       ?SetTransform@Context2d@@SAXAEBV?$FunctionCallbackInfo@VValue@v8@@@Nan@@@Z 0000000180020170 f   CanvasRenderingContext2d.obj
 0001:0001f2e0       ?Translate@Context2d@@SAXAEBV?$FunctionCallbackInfo@VValue@v8@@@Nan@@@Z 00000001800202e0 f   CanvasRenderingContext2d.obj
 0001:0001f330       ?Scale@Context2d@@SAXAEBV?$FunctionCallbackInfo@VValue@v8@@@Nan@@@Z 0000000180020330 f   CanvasRenderingContext2d.obj
 0001:0001f380       ?Clip@Context2d@@SAXAEBV?$FunctionCallbackInfo@VValue@v8@@@Nan@@@Z 0000000180020380 f   CanvasRenderingContext2d.obj
 0001:0001f3e0       ?Fill@Context2d@@SAXAEBV?$FunctionCallbackInfo@VValue@v8@@@Nan@@@Z 00000001800203e0 f   CanvasRenderingContext2d.obj
 0001:0001f440       ?Stroke@Context2d@@SAXAEBV?$FunctionCallbackInfo@VValue@v8@@@Nan@@@Z 0000000180020440 f   CanvasRenderingContext2d.obj
 0001:0001f470       ?paintText@@YAXAEBV?$FunctionCallbackInfo@VValue@v8@@@Nan@@_N@Z 0000000180020470 f   CanvasRenderingContext2d.obj
 0001:0001f740       ?FillText@Context2d@@SAXAEBV?$FunctionCallbackInfo@VValue@v8@@@Nan@@@Z 0000000180020740 f   CanvasRenderingContext2d.obj
 0001:0001f750       ?StrokeText@Context2d@@SAXAEBV?$FunctionCallbackInfo@VValue@v8@@@Nan@@@Z 0000000180020750 f   CanvasRenderingContext2d.obj
 0001:0001f760       ?getBaselineAdjustment@@YANPEAU_PangoLayout@@F@Z 0000000180020760 f i CanvasRenderingContext2d.obj
 0001:0001f810       ?setTextPath@Context2d@@QEAAXNN@Z 0000000180020810 f   CanvasRenderingContext2d.obj
 0001:0001f910       ?LineTo@Context2d@@SAXAEBV?$FunctionCallbackInfo@VValue@v8@@@Nan@@@Z 0000000180020910 f   CanvasRenderingContext2d.obj
 0001:0001f960       ?MoveTo@Context2d@@SAXAEBV?$FunctionCallbackInfo@VValue@v8@@@Nan@@@Z 0000000180020960 f   CanvasRenderingContext2d.obj
 0001:0001f9b0       ?GetFont@Context2d@@SAXV?$Local@VString@v8@@@v8@@AEBV?$PropertyCallbackInfo@VValue@v8@@@Nan@@@Z 00000001800209b0 f   CanvasRenderingContext2d.obj
 0001:0001fab0       ?SetFont@Context2d@@SAXV?$Local@VString@v8@@@v8@@V?$Local@VValue@v8@@@3@AEBV?$PropertyCallbackInfo@X@Nan@@@Z 0000000180020ab0 f   CanvasRenderingContext2d.obj
 0001:000203d0       ?GetTextBaseline@Context2d@@SAXV?$Local@VString@v8@@@v8@@AEBV?$PropertyCallbackInfo@VValue@v8@@@Nan@@@Z 00000001800213d0 f   CanvasRenderingContext2d.obj
 0001:00020510       ?SetTextBaseline@Context2d@@SAXV?$Local@VString@v8@@@v8@@V?$Local@VValue@v8@@@3@AEBV?$PropertyCallbackInfo@X@Nan@@@Z 0000000180021510 f   CanvasRenderingContext2d.obj
 0001:00020a60       ?GetTextAlign@Context2d@@SAXV?$Local@VString@v8@@@v8@@AEBV?$PropertyCallbackInfo@VValue@v8@@@Nan@@@Z 0000000180021a60 f   CanvasRenderingContext2d.obj
 0001:00020b80       ?SetTextAlign@Context2d@@SAXV?$Local@VString@v8@@@v8@@V?$Local@VValue@v8@@@3@AEBV?$PropertyCallbackInfo@X@Nan@@@Z 0000000180021b80 f   CanvasRenderingContext2d.obj
 0001:00021090       ?MeasureText@Context2d@@SAXAEBV?$FunctionCallbackInfo@VValue@v8@@@Nan@@@Z 0000000180022090 f   CanvasRenderingContext2d.obj
 0001:00021950       ?SetLineDash@Context2d@@SAXAEBV?$FunctionCallbackInfo@VValue@v8@@@Nan@@@Z 0000000180022950 f   CanvasRenderingContext2d.obj
 0001:00021c60       ?GetLineDash@Context2d@@SAXAEBV?$FunctionCallbackInfo@VValue@v8@@@Nan@@@Z 0000000180022c60 f   CanvasRenderingContext2d.obj
 0001:00021f00       ?SetLineDashOffset@Context2d@@SAXV?$Local@VString@v8@@@v8@@V?$Local@VValue@v8@@@3@AEBV?$PropertyCallbackInfo@X@Nan@@@Z 0000000180022f00 f   CanvasRenderingContext2d.obj
 0001:000220f0       ?GetLineDashOffset@Context2d@@SAXV?$Local@VString@v8@@@v8@@AEBV?$PropertyCallbackInfo@VValue@v8@@@Nan@@@Z 00000001800230f0 f   CanvasRenderingContext2d.obj
 0001:000221c0       ?FillRect@Context2d@@SAXAEBV?$FunctionCallbackInfo@VValue@v8@@@Nan@@@Z 00000001800231c0 f   CanvasRenderingContext2d.obj
 0001:000222c0       ?StrokeRect@Context2d@@SAXAEBV?$FunctionCallbackInfo@VValue@v8@@@Nan@@@Z 00000001800232c0 f   CanvasRenderingContext2d.obj
 0001:000223c0       ?ClearRect@Context2d@@SAXAEBV?$FunctionCallbackInfo@VValue@v8@@@Nan@@@Z 00000001800233c0 f   CanvasRenderingContext2d.obj
 0001:000224e0       ?Rect@Context2d@@SAXAEBV?$FunctionCallbackInfo@VValue@v8@@@Nan@@@Z 00000001800234e0 f   CanvasRenderingContext2d.obj
 0001:00022b30       ?RoundRect@Context2d@@SAXAEBV?$FunctionCallbackInfo@VValue@v8@@@Nan@@@Z 0000000180023b30 f   CanvasRenderingContext2d.obj
 0001:000233e0       ?Arc@Context2d@@SAXAEBV?$FunctionCallbackInfo@VValue@v8@@@Nan@@@Z 00000001800243e0 f   CanvasRenderingContext2d.obj
 0001:000236a0       ?ArcTo@Context2d@@SAXAEBV?$FunctionCallbackInfo@VValue@v8@@@Nan@@@Z 00000001800246a0 f   CanvasRenderingContext2d.obj
 0001:00023c60       ?Ellipse@Context2d@@SAXAEBV?$FunctionCallbackInfo@VValue@v8@@@Nan@@@Z 0000000180024c60 f   CanvasRenderingContext2d.obj
 0001:00023ea0       ??1?$vector@NV?$allocator@N@std@@@std@@QEAA@XZ 0000000180024ea0 f i CanvasRenderingContext2d.obj
 0001:00023f00       ??1?$deque@Ucanvas_state_t@@V?$allocator@Ucanvas_state_t@@@std@@@std@@QEAA@XZ 0000000180024f00 f i CanvasRenderingContext2d.obj
 0001:00024000       ?_Growmap@?$deque@Ucanvas_state_t@@V?$allocator@Ucanvas_state_t@@@std@@@std@@AEAAX_K@Z 0000000180025000 f i CanvasRenderingContext2d.obj
 0001:000241e0       ?_Xlen@?$deque@Ucanvas_state_t@@V?$allocator@Ucanvas_state_t@@@std@@@std@@AEBAXXZ 00000001800251e0 f i CanvasRenderingContext2d.obj
 0001:00024200       ??$_Erase_tree@V?$allocator@U?$_Tree_node@U?$pair@$$CBV?$basic_string@DU?$char_traits@D@std@@V?$allocator@D@2@@std@@W4text_align_t@@@std@@PEAX@std@@@std@@@?$_Tree_val@U?$_Tree_simple_types@U?$pair@$$CBV?$basic_string@DU?$char_traits@D@std@@V?$allocator@D@2@@std@@W4text_align_t@@@std@@@std@@@std@@QEAAXAEAV?$allocator@U?$_Tree_node@U?$pair@$$CBV?$basic_string@DU?$char_traits@D@std@@V?$allocator@D@2@@std@@W4text_align_t@@@std@@PEAX@std@@@1@PEAU?$_Tree_node@U?$pair@$$CBV?$basic_string@DU?$char_traits@D@std@@V?$allocator@D@2@@std@@W4text_align_t@@@std@@PEAX@1@@Z 0000000180025200 f i CanvasRenderingContext2d.obj
 0001:00024200       ??$_Erase_tree@V?$allocator@U?$_Tree_node@U?$pair@$$CBV?$basic_string@DU?$char_traits@D@std@@V?$allocator@D@2@@std@@W4_cairo_operator@@@std@@PEAX@std@@@std@@@?$_Tree_val@U?$_Tree_simple_types@U?$pair@$$CBV?$basic_string@DU?$char_traits@D@std@@V?$allocator@D@2@@std@@W4_cairo_operator@@@std@@@std@@@std@@QEAAXAEAV?$allocator@U?$_Tree_node@U?$pair@$$CBV?$basic_string@DU?$char_traits@D@std@@V?$allocator@D@2@@std@@W4_cairo_operator@@@std@@PEAX@std@@@1@PEAU?$_Tree_node@U?$pair@$$CBV?$basic_string@DU?$char_traits@D@std@@V?$allocator@D@2@@std@@W4_cairo_operator@@@std@@PEAX@1@@Z 0000000180025200 f i CanvasRenderingContext2d.obj
 0001:00024200       ??$_Erase_tree@V?$allocator@U?$_Tree_node@U?$pair@$$CBV?$basic_string@DU?$char_traits@D@std@@V?$allocator@D@2@@std@@I@std@@PEAX@std@@@std@@@?$_Tree_val@U?$_Tree_simple_types@U?$pair@$$CBV?$basic_string@DU?$char_traits@D@std@@V?$allocator@D@2@@std@@I@std@@@std@@@std@@QEAAXAEAV?$allocator@U?$_Tree_node@U?$pair@$$CBV?$basic_string@DU?$char_traits@D@std@@V?$allocator@D@2@@std@@I@std@@PEAX@std@@@1@PEAU?$_Tree_node@U?$pair@$$CBV?$basic_string@DU?$char_traits@D@std@@V?$allocator@D@2@@std@@I@std@@PEAX@1@@Z 0000000180025200 f i color.obj
 0001:00024200       ??$_Erase_tree@V?$allocator@U?$_Tree_node@U?$pair@$$CBV?$basic_string@DU?$char_traits@D@std@@V?$allocator@D@2@@std@@W4text_baseline_t@@@std@@PEAX@std@@@std@@@?$_Tree_val@U?$_Tree_simple_types@U?$pair@$$CBV?$basic_string@DU?$char_traits@D@std@@V?$allocator@D@2@@std@@W4text_baseline_t@@@std@@@std@@@std@@QEAAXAEAV?$allocator@U?$_Tree_node@U?$pair@$$CBV?$basic_string@DU?$char_traits@D@std@@V?$allocator@D@2@@std@@W4text_baseline_t@@@std@@PEAX@std@@@1@PEAU?$_Tree_node@U?$pair@$$CBV?$basic_string@DU?$char_traits@D@std@@V?$allocator@D@2@@std@@W4text_baseline_t@@@std@@PEAX@1@@Z 0000000180025200 f i CanvasRenderingContext2d.obj
 0001:000242c0       ?_Insert_node@?$_Tree_val@U?$_Tree_simple_types@U?$pair@$$CBV?$basic_string@DU?$char_traits@D@std@@V?$allocator@D@2@@std@@W4text_baseline_t@@@std@@@std@@@std@@QEAAPEAU?$_Tree_node@U?$pair@$$CBV?$basic_string@DU?$char_traits@D@std@@V?$allocator@D@2@@std@@W4text_baseline_t@@@std@@PEAX@2@U?$_Tree_id@PEAU?$_Tree_node@U?$pair@$$CBV?$basic_string@DU?$char_traits@D@std@@V?$allocator@D@2@@std@@W4text_baseline_t@@@std@@PEAX@std@@@2@QEAU32@@Z 00000001800252c0 f i CanvasRenderingContext2d.obj
 0001:000242c0       ?_Insert_node@?$_Tree_val@U?$_Tree_simple_types@U?$pair@$$CBV?$basic_string@DU?$char_traits@D@std@@V?$allocator@D@2@@std@@I@std@@@std@@@std@@QEAAPEAU?$_Tree_node@U?$pair@$$CBV?$basic_string@DU?$char_traits@D@std@@V?$allocator@D@2@@std@@I@std@@PEAX@2@U?$_Tree_id@PEAU?$_Tree_node@U?$pair@$$CBV?$basic_string@DU?$char_traits@D@std@@V?$allocator@D@2@@std@@I@std@@PEAX@std@@@2@QEAU32@@Z 00000001800252c0 f i color.obj
 0001:000242c0       ?_Insert_node@?$_Tree_val@U?$_Tree_simple_types@U?$pair@$$CBV?$basic_string@DU?$char_traits@D@std@@V?$allocator@D@2@@std@@W4text_align_t@@@std@@@std@@@std@@QEAAPEAU?$_Tree_node@U?$pair@$$CBV?$basic_string@DU?$char_traits@D@std@@V?$allocator@D@2@@std@@W4text_align_t@@@std@@PEAX@2@U?$_Tree_id@PEAU?$_Tree_node@U?$pair@$$CBV?$basic_string@DU?$char_traits@D@std@@V?$allocator@D@2@@std@@W4text_align_t@@@std@@PEAX@std@@@2@QEAU32@@Z 00000001800252c0 f i CanvasRenderingContext2d.obj
 0001:000242c0       ?_Insert_node@?$_Tree_val@U?$_Tree_simple_types@U?$pair@$$CBV?$basic_string@DU?$char_traits@D@std@@V?$allocator@D@2@@std@@W4_cairo_operator@@@std@@@std@@@std@@QEAAPEAU?$_Tree_node@U?$pair@$$CBV?$basic_string@DU?$char_traits@D@std@@V?$allocator@D@2@@std@@W4_cairo_operator@@@std@@PEAX@2@U?$_Tree_id@PEAU?$_Tree_node@U?$pair@$$CBV?$basic_string@DU?$char_traits@D@std@@V?$allocator@D@2@@std@@W4_cairo_operator@@@std@@PEAX@std@@@2@QEAU32@@Z 00000001800252c0 f i CanvasRenderingContext2d.obj
 0001:00024540       ??1?$_Alloc_construct_ptr@V?$allocator@U?$_Tree_node@U?$pair@$$CBV?$basic_string@DU?$char_traits@D@std@@V?$allocator@D@2@@std@@W4text_align_t@@@std@@PEAX@std@@@std@@@std@@QEAA@XZ 0000000180025540 f i CanvasRenderingContext2d.obj
 0001:00024540       ??1?$_Tree_temp_node_alloc@V?$allocator@U?$_Tree_node@U?$pair@$$CBV?$basic_string@DU?$char_traits@D@std@@V?$allocator@D@2@@std@@W4text_baseline_t@@@std@@PEAX@std@@@std@@@std@@QEAA@XZ 0000000180025540 f i CanvasRenderingContext2d.obj
 0001:00024540       ??1?$_Tree_temp_node_alloc@V?$allocator@U?$_Tree_node@U?$pair@$$CBV?$basic_string@DU?$char_traits@D@std@@V?$allocator@D@2@@std@@I@std@@PEAX@std@@@std@@@std@@QEAA@XZ 0000000180025540 f i color.obj
 0001:00024540       ??1?$_Tree_temp_node_alloc@V?$allocator@U?$_Tree_node@U?$pair@$$CBV?$basic_string@DU?$char_traits@D@std@@V?$allocator@D@2@@std@@W4_cairo_operator@@@std@@PEAX@std@@@std@@@std@@QEAA@XZ 0000000180025540 f i CanvasRenderingContext2d.obj
 0001:00024540       ??1?$_Alloc_construct_ptr@V?$allocator@U?$_Tree_node@U?$pair@$$CBV?$basic_string@DU?$char_traits@D@std@@V?$allocator@D@2@@std@@W4_cairo_operator@@@std@@PEAX@std@@@std@@@std@@QEAA@XZ 0000000180025540 f i CanvasRenderingContext2d.obj
 0001:00024540       ??1?$_Alloc_construct_ptr@V?$allocator@U?$_Tree_node@U?$pair@$$CBV?$basic_string@DU?$char_traits@D@std@@V?$allocator@D@2@@std@@W4text_baseline_t@@@std@@PEAX@std@@@std@@@std@@QEAA@XZ 0000000180025540 f i CanvasRenderingContext2d.obj
 0001:00024540       ??1?$_Alloc_construct_ptr@V?$allocator@U?$_Tree_node@U?$pair@$$CBV?$basic_string@DU?$char_traits@D@std@@V?$allocator@D@2@@std@@I@std@@PEAX@std@@@std@@@std@@QEAA@XZ 0000000180025540 f i color.obj
 0001:00024540       ??1?$_Tree_temp_node_alloc@V?$allocator@U?$_Tree_node@U?$pair@$$CBV?$basic_string@DU?$char_traits@D@std@@V?$allocator@D@2@@std@@W4text_align_t@@@std@@PEAX@std@@@std@@@std@@QEAA@XZ 0000000180025540 f i CanvasRenderingContext2d.obj
 0001:00024560       ??$_Find_hint@V?$basic_string@DU?$char_traits@D@std@@V?$allocator@D@2@@std@@@?$_Tree@V?$_Tmap_traits@V?$basic_string@DU?$char_traits@D@std@@V?$allocator@D@2@@std@@W4text_baseline_t@@U?$less@V?$basic_string@DU?$char_traits@D@std@@V?$allocator@D@2@@std@@@2@V?$allocator@U?$pair@$$CBV?$basic_string@DU?$char_traits@D@std@@V?$allocator@D@2@@std@@W4text_baseline_t@@@std@@@2@$0A@@std@@@std@@IEBA?AU?$_Tree_find_hint_result@PEAU?$_Tree_node@U?$pair@$$CBV?$basic_string@DU?$char_traits@D@std@@V?$allocator@D@2@@std@@W4text_baseline_t@@@std@@PEAX@std@@@1@QEAU?$_Tree_node@U?$pair@$$CBV?$basic_string@DU?$char_traits@D@std@@V?$allocator@D@2@@std@@W4text_baseline_t@@@std@@PEAX@1@AEBV?$basic_string@DU?$char_traits@D@std@@V?$allocator@D@2@@1@@Z 0000000180025560 f i CanvasRenderingContext2d.obj
 0001:00024560       ??$_Find_hint@V?$basic_string@DU?$char_traits@D@std@@V?$allocator@D@2@@std@@@?$_Tree@V?$_Tmap_traits@V?$basic_string@DU?$char_traits@D@std@@V?$allocator@D@2@@std@@W4text_align_t@@U?$less@V?$basic_string@DU?$char_traits@D@std@@V?$allocator@D@2@@std@@@2@V?$allocator@U?$pair@$$CBV?$basic_string@DU?$char_traits@D@std@@V?$allocator@D@2@@std@@W4text_align_t@@@std@@@2@$0A@@std@@@std@@IEBA?AU?$_Tree_find_hint_result@PEAU?$_Tree_node@U?$pair@$$CBV?$basic_string@DU?$char_traits@D@std@@V?$allocator@D@2@@std@@W4text_align_t@@@std@@PEAX@std@@@1@QEAU?$_Tree_node@U?$pair@$$CBV?$basic_string@DU?$char_traits@D@std@@V?$allocator@D@2@@std@@W4text_align_t@@@std@@PEAX@1@AEBV?$basic_string@DU?$char_traits@D@std@@V?$allocator@D@2@@1@@Z 0000000180025560 f i CanvasRenderingContext2d.obj
 0001:00024560       ??$_Find_hint@V?$basic_string@DU?$char_traits@D@std@@V?$allocator@D@2@@std@@@?$_Tree@V?$_Tmap_traits@V?$basic_string@DU?$char_traits@D@std@@V?$allocator@D@2@@std@@W4_cairo_operator@@U?$less@V?$basic_string@DU?$char_traits@D@std@@V?$allocator@D@2@@std@@@2@V?$allocator@U?$pair@$$CBV?$basic_string@DU?$char_traits@D@std@@V?$allocator@D@2@@std@@W4_cairo_operator@@@std@@@2@$0A@@std@@@std@@IEBA?AU?$_Tree_find_hint_result@PEAU?$_Tree_node@U?$pair@$$CBV?$basic_string@DU?$char_traits@D@std@@V?$allocator@D@2@@std@@W4_cairo_operator@@@std@@PEAX@std@@@1@QEAU?$_Tree_node@U?$pair@$$CBV?$basic_string@DU?$char_traits@D@std@@V?$allocator@D@2@@std@@W4_cairo_operator@@@std@@PEAX@1@AEBV?$basic_string@DU?$char_traits@D@std@@V?$allocator@D@2@@1@@Z 0000000180025560 f i CanvasRenderingContext2d.obj
 0001:000249a0       ?init_destination@JpegClosure@@SAXPEAUjpeg_compress_struct@@@Z 00000001800259a0 f   closure.obj
 0001:000249e0       ?empty_output_buffer@JpegClosure@@SAEPEAUjpeg_compress_struct@@@Z 00000001800259e0 f   closure.obj
 0001:00024a90       ?term_destination@JpegClosure@@SAXPEAUjpeg_compress_struct@@@Z 0000000180025a90 f   closure.obj
 0001:00024ab0       ?resize@?$vector@EV?$allocator@E@std@@@std@@QEAAX_K@Z 0000000180025ab0 f i closure.obj
 0001:00024c00       __local_stdio_printf_options 0000000180025c00 f i color.obj
 0001:00024c10       snprintf                   0000000180025c10 f i color.obj
 0001:00024d00       ?rgba_to_string@@YAXUrgba_t@@PEAD_K@Z 0000000180025d00 f   color.obj
 0001:00025b70       ?rgba_from_string@@YAHPEBDPEAF@Z 0000000180026b70 f   color.obj
 0001:00025dc0       ??0?$map@V?$basic_string@DU?$char_traits@D@std@@V?$allocator@D@2@@std@@IU?$less@V?$basic_string@DU?$char_traits@D@std@@V?$allocator@D@2@@std@@@2@V?$allocator@U?$pair@$$CBV?$basic_string@DU?$char_traits@D@std@@V?$allocator@D@2@@std@@I@std@@@2@@std@@QEAA@V?$initializer_list@U?$pair@$$CBV?$basic_string@DU?$char_traits@D@std@@V?$allocator@D@2@@std@@I@std@@@1@@Z 0000000180026dc0 f i color.obj
 0001:00026110       ??$?0AEAY0O@$$CBDH$0A@@?$pair@$$CBV?$basic_string@DU?$char_traits@D@std@@V?$allocator@D@2@@std@@I@std@@QEAA@AEAY0O@$$CBD$$QEAH@Z 0000000180027110 f i color.obj
 0001:00026110       ??$?0AEAY0O@$$CBDI$0A@@?$pair@$$CBV?$basic_string@DU?$char_traits@D@std@@V?$allocator@D@2@@std@@I@std@@QEAA@AEAY0O@$$CBD$$QEAI@Z 0000000180027110 f i color.obj
 0001:00026110       ??$?0AEAY0M@$$CBDH$0A@@?$pair@$$CBV?$basic_string@DU?$char_traits@D@std@@V?$allocator@D@2@@std@@I@std@@QEAA@AEAY0M@$$CBD$$QEAH@Z 0000000180027110 f i color.obj
 0001:00026110       ??$?0AEAY08$$CBDI$0A@@?$pair@$$CBV?$basic_string@DU?$char_traits@D@std@@V?$allocator@D@2@@std@@I@std@@QEAA@AEAY08$$CBD$$QEAI@Z 0000000180027110 f i color.obj
 0001:00026110       ??$?0AEAY04$$CBDI$0A@@?$pair@$$CBV?$basic_string@DU?$char_traits@D@std@@V?$allocator@D@2@@std@@I@std@@QEAA@AEAY04$$CBD$$QEAI@Z 0000000180027110 f i color.obj
 0001:00026110       ??$?0AEAY0P@$$CBDH$0A@@?$pair@$$CBV?$basic_string@DU?$char_traits@D@std@@V?$allocator@D@2@@std@@I@std@@QEAA@AEAY0P@$$CBD$$QEAH@Z 0000000180027110 f i color.obj
 0001:00026110       ??$?0AEAY09$$CBDH$0A@@?$pair@$$CBV?$basic_string@DU?$char_traits@D@std@@V?$allocator@D@2@@std@@I@std@@QEAA@AEAY09$$CBD$$QEAH@Z 0000000180027110 f i color.obj
 0001:00026110       ??$?0AEAY09$$CBDI$0A@@?$pair@$$CBV?$basic_string@DU?$char_traits@D@std@@V?$allocator@D@2@@std@@I@std@@QEAA@AEAY09$$CBD$$QEAI@Z 0000000180027110 f i color.obj
 0001:00026110       ??$?0AEAY0L@$$CBDI$0A@@?$pair@$$CBV?$basic_string@DU?$char_traits@D@std@@V?$allocator@D@2@@std@@I@std@@QEAA@AEAY0L@$$CBD$$QEAI@Z 0000000180027110 f i color.obj
 0001:00026110       ??$?0AEAY0M@$$CBDI$0A@@?$pair@$$CBV?$basic_string@DU?$char_traits@D@std@@V?$allocator@D@2@@std@@I@std@@QEAA@AEAY0M@$$CBD$$QEAI@Z 0000000180027110 f i color.obj
 0001:00026110       ??$?0AEAY06$$CBDI$0A@@?$pair@$$CBV?$basic_string@DU?$char_traits@D@std@@V?$allocator@D@2@@std@@I@std@@QEAA@AEAY06$$CBD$$QEAI@Z 0000000180027110 f i color.obj
 0001:00026110       ??$?0AEAY0L@$$CBDH$0A@@?$pair@$$CBV?$basic_string@DU?$char_traits@D@std@@V?$allocator@D@2@@std@@I@std@@QEAA@AEAY0L@$$CBD$$QEAH@Z 0000000180027110 f i color.obj
 0001:00026110       ??$?0AEAY08$$CBDH$0A@@?$pair@$$CBV?$basic_string@DU?$char_traits@D@std@@V?$allocator@D@2@@std@@I@std@@QEAA@AEAY08$$CBD$$QEAH@Z 0000000180027110 f i color.obj
 0001:00026110       ??$?0AEAY07$$CBDI$0A@@?$pair@$$CBV?$basic_string@DU?$char_traits@D@std@@V?$allocator@D@2@@std@@I@std@@QEAA@AEAY07$$CBD$$QEAI@Z 0000000180027110 f i color.obj
 0001:00026110       ??$?0AEAY0N@$$CBDI$0A@@?$pair@$$CBV?$basic_string@DU?$char_traits@D@std@@V?$allocator@D@2@@std@@I@std@@QEAA@AEAY0N@$$CBD$$QEAI@Z 0000000180027110 f i color.obj
 0001:00026110       ??$?0AEAY0BA@$$CBDH$0A@@?$pair@$$CBV?$basic_string@DU?$char_traits@D@std@@V?$allocator@D@2@@std@@I@std@@QEAA@AEAY0BA@$$CBD$$QEAH@Z 0000000180027110 f i color.obj
 0001:00026110       ??$?0AEAY03$$CBDI$0A@@?$pair@$$CBV?$basic_string@DU?$char_traits@D@std@@V?$allocator@D@2@@std@@I@std@@QEAA@AEAY03$$CBD$$QEAI@Z 0000000180027110 f i color.obj
 0001:00026110       ??$?0AEAY04$$CBDH$0A@@?$pair@$$CBV?$basic_string@DU?$char_traits@D@std@@V?$allocator@D@2@@std@@I@std@@QEAA@AEAY04$$CBD$$QEAH@Z 0000000180027110 f i color.obj
 0001:00026110       ??$?0AEAY05$$CBDI$0A@@?$pair@$$CBV?$basic_string@DU?$char_traits@D@std@@V?$allocator@D@2@@std@@I@std@@QEAA@AEAY05$$CBD$$QEAI@Z 0000000180027110 f i color.obj
 0001:00026170       ??$?0AEAY0BB@$$CBDH$0A@@?$pair@$$CBV?$basic_string@DU?$char_traits@D@std@@V?$allocator@D@2@@std@@I@std@@QEAA@AEAY0BB@$$CBD$$QEAH@Z 0000000180027170 f i color.obj
 0001:000261c0       ??$?0AEAY0BC@$$CBDH$0A@@?$pair@$$CBV?$basic_string@DU?$char_traits@D@std@@V?$allocator@D@2@@std@@I@std@@QEAA@AEAY0BC@$$CBD$$QEAH@Z 00000001800271c0 f i color.obj
 0001:00026210       ??$?0AEAY0BA@$$CBDI$0A@@?$pair@$$CBV?$basic_string@DU?$char_traits@D@std@@V?$allocator@D@2@@std@@I@std@@QEAA@AEAY0BA@$$CBD$$QEAI@Z 0000000180027210 f i color.obj
 0001:00026260       ??$?0AEAY0N@$$CBDH$0A@@?$pair@$$CBV?$basic_string@DU?$char_traits@D@std@@V?$allocator@D@2@@std@@I@std@@QEAA@AEAY0N@$$CBD$$QEAH@Z 0000000180027260 f i color.obj
 0001:000262b0       ??$_Find_hint@V?$basic_string@DU?$char_traits@D@std@@V?$allocator@D@2@@std@@@?$_Tree@V?$_Tmap_traits@V?$basic_string@DU?$char_traits@D@std@@V?$allocator@D@2@@std@@IU?$less@V?$basic_string@DU?$char_traits@D@std@@V?$allocator@D@2@@std@@@2@V?$allocator@U?$pair@$$CBV?$basic_string@DU?$char_traits@D@std@@V?$allocator@D@2@@std@@I@std@@@2@$0A@@std@@@std@@IEBA?AU?$_Tree_find_hint_result@PEAU?$_Tree_node@U?$pair@$$CBV?$basic_string@DU?$char_traits@D@std@@V?$allocator@D@2@@std@@I@std@@PEAX@std@@@1@QEAU?$_Tree_node@U?$pair@$$CBV?$basic_string@DU?$char_traits@D@std@@V?$allocator@D@2@@std@@I@std@@PEAX@1@AEBV?$basic_string@DU?$char_traits@D@std@@V?$allocator@D@2@@1@@Z 00000001800272b0 f i color.obj
 0001:00026700       ?Export@Nan@@YAXV?$Local@VObject@v8@@@v8@@PEBDP6AXAEBV?$FunctionCallbackInfo@VValue@v8@@@1@@Z@Z 0000000180027700 f i Image.obj
 0001:00026860       ?Initialize@Image@@SAXV?$Local@VObject@v8@@@v8@@@Z 0000000180027860 f   Image.obj
 0001:00026d10       ?New@Image@@SAXAEBV?$FunctionCallbackInfo@VValue@v8@@@Nan@@@Z 0000000180027d10 f   Image.obj
 0001:00026fb0       ?GetComplete@Image@@SAXV?$Local@VString@v8@@@v8@@AEBV?$PropertyCallbackInfo@VValue@v8@@@Nan@@@Z 0000000180027fb0 f   Image.obj
 0001:00026ff0       ?GetDataMode@Image@@SAXV?$Local@VString@v8@@@v8@@AEBV?$PropertyCallbackInfo@VValue@v8@@@Nan@@@Z 0000000180027ff0 f   Image.obj
 0001:000270c0       ?SetDataMode@Image@@SAXV?$Local@VString@v8@@@v8@@V?$Local@VValue@v8@@@3@AEBV?$PropertyCallbackInfo@X@Nan@@@Z 00000001800280c0 f   Image.obj
 0001:000271b0       ?GetNaturalWidth@Image@@SAXV?$Local@VString@v8@@@v8@@AEBV?$PropertyCallbackInfo@VValue@v8@@@Nan@@@Z 00000001800281b0 f   Image.obj
 0001:00027270       ?GetWidth@Image@@SAXV?$Local@VString@v8@@@v8@@AEBV?$PropertyCallbackInfo@VValue@v8@@@Nan@@@Z 0000000180028270 f   Image.obj
 0001:00027330       ?SetWidth@Image@@SAXV?$Local@VString@v8@@@v8@@V?$Local@VValue@v8@@@3@AEBV?$PropertyCallbackInfo@X@Nan@@@Z 0000000180028330 f   Image.obj
 0001:00027420       ?GetNaturalHeight@Image@@SAXV?$Local@VString@v8@@@v8@@AEBV?$PropertyCallbackInfo@VValue@v8@@@Nan@@@Z 0000000180028420 f   Image.obj
 0001:000274e0       ?GetHeight@Image@@SAXV?$Local@VString@v8@@@v8@@AEBV?$PropertyCallbackInfo@VValue@v8@@@Nan@@@Z 00000001800284e0 f   Image.obj
 0001:000275a0       ?SetHeight@Image@@SAXV?$Local@VString@v8@@@v8@@V?$Local@VValue@v8@@@3@AEBV?$PropertyCallbackInfo@X@Nan@@@Z 00000001800285a0 f   Image.obj
 0001:00027690       ?GetSource@Image@@SAXAEBV?$FunctionCallbackInfo@VValue@v8@@@Nan@@@Z 0000000180028690 f   Image.obj
 0001:00027780       ?clearData@Image@@QEAAXXZ  0000000180028780 f   Image.obj
 0001:00027810       ?SetSource@Image@@SAXAEBV?$FunctionCallbackInfo@VValue@v8@@@Nan@@@Z 0000000180028810 f   Image.obj
 0001:00027e80       ??1CanvasError@@QEAA@XZ    0000000180028e80 f i Image.obj
 0001:00027f80       ?loadFromBuffer@Image@@QEAA?AW4_cairo_status@@PEAEI@Z 0000000180028f80 f   Image.obj
 0001:00028180       ?readPNG@Image@@SA?AW4_cairo_status@@PEAXPEAEI@Z 0000000180029180 f   Image.obj
 0001:000281c0       ??_GImage@@EEAAPEAXI@Z     00000001800291c0 f i Image.obj
 0001:000281c0       ??_EImage@@EEAAPEAXI@Z     00000001800291c0 f i * CIL library *:* CIL module *
 0001:00028240       ?surface@Image@@QEAAPEAU_cairo_surface@@XZ 0000000180029240 f   Image.obj
 0001:00028340       ?loadSurface@Image@@QEAA?AW4_cairo_status@@XZ 0000000180029340 f   Image.obj
 0001:00028770       ?read_gif_from_memory@@YAHPEAUGifFileType@@PEAEH@Z 0000000180029770 f   Image.obj
 0001:000287c0       ?loadGIFFromBuffer@Image@@QEAA?AW4_cairo_status@@PEAEI@Z 00000001800297c0 f   Image.obj
 0001:00028d50       ?jpegToARGB@Image@@QEAAXPEAUjpeg_decompress_struct@@PEAE1V?$function@$$A6AIPEAE@Z@std@@@Z 0000000180029d50 f   Image.obj
 0001:00028e40       ??1?$function@$$A6AIPEAE@Z@std@@QEAA@XZ 0000000180029e40 f i Image.obj
 0001:00028e70       ?decodeJPEGIntoSurface@Image@@QEAA?AW4_cairo_status@@PEAUjpeg_decompress_struct@@@Z 0000000180029e70 f   Image.obj
 0001:00029050       ?decodeJPEGBufferIntoMimeSurface@Image@@QEAA?AW4_cairo_status@@PEAEI@Z 000000018002a050 f   Image.obj
 0001:00029200       ?clearMimeData@@YAXPEAX@Z  000000018002a200 f   Image.obj
 0001:00029230       ?assignDataAsMime@Image@@QEAA?AW4_cairo_status@@PEAEHPEBD@Z 000000018002a230 f   Image.obj
 0001:00029330       ?loadJPEGFromBuffer@Image@@QEAA?AW4_cairo_status@@PEAEI@Z 000000018002a330 f   Image.obj
 0001:00029430       ?loadJPEG@Image@@QEAA?AW4_cairo_status@@PEAU_iobuf@@@Z 000000018002a430 f   Image.obj
 0001:00029550       ?loadSVGFromBuffer@Image@@QEAA?AW4_cairo_status@@PEAEI@Z 000000018002a550 f   Image.obj
 0001:00029610       ?renderSVGToSurface@Image@@QEAA?AW4_cairo_status@@XZ 000000018002a610 f   Image.obj
 0001:00029740       ?loadBMPFromBuffer@Image@@QEAA?AW4_cairo_status@@PEAEI@Z 000000018002a740 f   Image.obj
 0001:00029a30       ?isSVG@Image@@SAHPEAEI@Z   000000018002aa30 f   Image.obj
 0001:00029ab0       ?isBMP@Image@@SAHPEAEI@Z   000000018002aab0 f   Image.obj
 0001:00029e10       ??_EImageData@@UEAAPEAXI@Z 000000018002ae10 f i * CIL library *:* CIL module *
 0001:00029e10       ??_GImageData@@UEAAPEAXI@Z 000000018002ae10 f i ImageData.obj
 0001:00029e70       ?Initialize@ImageData@@SAXV?$Local@VObject@v8@@@v8@@@Z 000000018002ae70 f   ImageData.obj
 0001:0002a0d0       ?New@ImageData@@SAXAEBV?$FunctionCallbackInfo@VValue@v8@@@Nan@@@Z 000000018002b0d0 f   ImageData.obj
 0001:0002aa00       ?GetWidth@ImageData@@SAXV?$Local@VString@v8@@@v8@@AEBV?$PropertyCallbackInfo@VValue@v8@@@Nan@@@Z 000000018002ba00 f   ImageData.obj
 0001:0002aac0       ?GetHeight@ImageData@@SAXV?$Local@VString@v8@@@v8@@AEBV?$PropertyCallbackInfo@VValue@v8@@@Nan@@@Z 000000018002bac0 f   ImageData.obj
 0001:0002ab80       ?init@@YAXV?$Local@VObject@v8@@@v8@@@Z 000000018002bb80 f   init.obj
 0001:0002b360       ?get_family_name@@YAPEADPEAUFT_FaceRec_@@@Z 000000018002c360 f   register_font.obj
 0001:0002b5e0       ?get_pango_font_description@@YAPEAU_PangoFontDescription@@PEAE@Z 000000018002c5e0 f   register_font.obj
 0001:0002b944       __imp_load_?GetCurrentContext@Isolate@v8@@QEAA?AV?$Local@VContext@v8@@@2@XZ 000000018002c944 f   node:node.exe
 0001:0002b950       __tailMerge_node_exe       000000018002c950     node:node.exe
 0001:0002b9c9       __imp_load_?GetCurrent@Isolate@v8@@SAPEAV12@XZ 000000018002c9c9 f   node:node.exe
 0001:0002b9d5       __imp_load_??1HandleScope@v8@@QEAA@XZ 000000018002c9d5 f   node:node.exe
 0001:0002b9e1       ??1HandleScope@v8@@QEAA@XZ 000000018002c9e1 f   node:node.exe
 0001:0002b9e7       __imp_load_??0HandleScope@v8@@QEAA@PEAVIsolate@1@@Z 000000018002c9e7 f   node:node.exe
 0001:0002b9f3       __imp_load_?ClearWeak@V8@v8@@CAPEAXPEAPEAVObject@internal@2@@Z 000000018002c9f3 f   node:node.exe
 0001:0002b9ff       __imp_load_?MakeWeak@V8@v8@@CAXPEAPEAVObject@internal@2@PEAXP6AXAEBV?$WeakCallbackInfo@X@2@@ZW4WeakCallbackType@2@@Z 000000018002c9ff f   node:node.exe
 0001:0002ba0b       __imp_load_?DisposeGlobal@V8@v8@@CAXPEAPEAVObject@internal@2@@Z 000000018002ca0b f   node:node.exe
 0001:0002ba17       __imp_load_?GlobalizeReference@V8@v8@@CAPEAPEAVObject@internal@2@PEAVIsolate@42@PEAPEAV342@@Z 000000018002ca17 f   node:node.exe
 0001:0002ba23       __imp_load_?Uint32Value@Value@v8@@QEBA?AV?$Maybe@I@2@V?$Local@VContext@v8@@@2@@Z 000000018002ca23 f   node:node.exe
 0001:0002ba2f       __imp_load_?IsNumber@Value@v8@@QEBA_NXZ 000000018002ca2f f   node:node.exe
 0001:0002ba3b       __imp_load_?SetAlignedPointerInInternalField@Object@v8@@QEAAXHPEAX@Z 000000018002ca3b f   node:node.exe
 0001:0002ba47       __imp_load_?InternalFieldCount@Object@v8@@QEAAHXZ 000000018002ca47 f   node:node.exe
 0001:0002ba53       __imp_load_?Value@External@v8@@QEBAPEAXXZ 000000018002ca53 f   node:node.exe
 0001:0002ba5f       __imp_load_?New@External@v8@@SA?AV?$Local@VExternal@v8@@@2@PEAVIsolate@2@PEAX@Z 000000018002ca5f f   node:node.exe
 0001:0002ba6b       __imp_load_?CheckMemoryPressure@Isolate@v8@@AEAAXXZ 000000018002ca6b f   node:node.exe
 0001:0002ba77       __imp_load_?ReportExternalAllocationLimitReached@Isolate@v8@@AEAAXXZ 000000018002ca77 f   node:node.exe
 0001:0002ba83       __imp_load_?CreateHandle@HandleScope@v8@@KAPEAPEAVObject@internal@2@PEAVIsolate@42@PEAV342@@Z 000000018002ca83 f   node:node.exe
 0001:0002ba8f       __imp_load_?CreateHandle@HandleScope@v8@@CAPEAPEAVObject@internal@2@PEAVNeverReadOnlySpaceObject@42@PEAV342@@Z 000000018002ca8f f   node:node.exe
 0001:0002ba9b       __imp_load_?SetClassName@FunctionTemplate@v8@@QEAAXV?$Local@VString@v8@@@2@@Z 000000018002ca9b f   node:node.exe
 0001:0002baa7       __imp_load_?InstanceTemplate@FunctionTemplate@v8@@QEAA?AV?$Local@VObjectTemplate@v8@@@2@XZ 000000018002caa7 f   node:node.exe
 0001:0002bab3       __imp_load_?GetFunction@FunctionTemplate@v8@@QEAA?AV?$MaybeLocal@VFunction@v8@@@2@V?$Local@VContext@v8@@@2@@Z 000000018002cab3 f   node:node.exe
 0001:0002babf       __imp_load_?New@FunctionTemplate@v8@@SA?AV?$Local@VFunctionTemplate@v8@@@2@PEAVIsolate@2@P6AXAEBV?$FunctionCallbackInfo@VValue@v8@@@2@@ZV?$Local@VValue@v8@@@2@V?$Local@VSignature@v8@@@2@HW4ConstructorBehavior@2@W4SideEffectType@2@@Z 000000018002cabf f   node:node.exe
 0001:0002bacb       __imp_load_?ToLocalEmpty@V8@v8@@CAXXZ 000000018002cacb f   node:node.exe
 0001:0002bad7       __imp_load_?Escape@EscapableHandleScope@v8@@AEAAPEAPEAVObject@internal@2@PEAPEAV342@@Z 000000018002cad7 f   node:node.exe
 0001:0002bae3       __imp_load_??0EscapableHandleScope@v8@@QEAA@PEAVIsolate@1@@Z 000000018002cae3 f   node:node.exe
 0001:0002baef       __imp_load_?NewFromUtf8@String@v8@@SA?AV?$MaybeLocal@VString@v8@@@2@PEAVIsolate@2@PEBDW4NewStringType@2@H@Z 000000018002caef f   node:node.exe
 0001:0002bafb       __imp_load_?SlowGetInternalField@Object@v8@@AEAA?AV?$Local@VValue@v8@@@2@H@Z 000000018002cafb f   node:node.exe
 0001:0002bb07       __imp_load_?SetInternalField@Object@v8@@QEAAXHV?$Local@VValue@v8@@@2@@Z 000000018002cb07 f   node:node.exe
 0001:0002bb13       __imp_load_?Set@Object@v8@@QEAA?AV?$Maybe@_N@2@V?$Local@VContext@v8@@@2@V?$Local@VValue@v8@@@2@1@Z 000000018002cb13 f   node:node.exe
 0001:0002bb1f       __imp_load_?SetInternalFieldCount@ObjectTemplate@v8@@QEAAXH@Z 000000018002cb1f f   node:node.exe
 0001:0002bb2b       __imp_load_?NewInstance@ObjectTemplate@v8@@QEAA?AV?$MaybeLocal@VObject@v8@@@2@V?$Local@VContext@v8@@@2@@Z 000000018002cb2b f   node:node.exe
 0001:0002bb37       __imp_load_?New@ObjectTemplate@v8@@SA?AV?$Local@VObjectTemplate@v8@@@2@PEAVIsolate@2@V?$Local@VFunctionTemplate@v8@@@2@@Z 000000018002cb37 f   node:node.exe
 0001:0002bb43       __imp_load_??1EscapableHandleScope@v8@@QEAA@XZ 000000018002cb43 f   node:node.exe
 0001:0002bb4f       ??1EscapableHandleScope@v8@@QEAA@XZ 000000018002cb4f f   node:node.exe
 0001:0002bb55       __imp_load_?New@Object@v8@@SA?AV?$Local@VObject@v8@@@2@PEAVIsolate@2@@Z 000000018002cb55 f   node:node.exe
 0001:0002bb61       __imp_load_uv_queue_work   000000018002cb61 f   node:node.exe
 0001:0002bb6d       __imp_load_?GetIsolate@Context@v8@@QEAAPEAVIsolate@2@XZ 000000018002cb6d f   node:node.exe
 0001:0002bb79       __imp_load_?Global@Context@v8@@QEAA?AV?$Local@VObject@v8@@@2@XZ 000000018002cb79 f   node:node.exe
 0001:0002bb85       __imp_load_?NewFromUnsigned@Integer@v8@@SA?AV?$Local@VInteger@v8@@@2@PEAVIsolate@2@I@Z 000000018002cb85 f   node:node.exe
 0001:0002bb91       __imp_load_?New@Signature@v8@@SA?AV?$Local@VSignature@v8@@@2@PEAVIsolate@2@V?$Local@VFunctionTemplate@v8@@@2@@Z 000000018002cb91 f   node:node.exe
 0001:0002bb9d       __imp_load_?ThrowException@Isolate@v8@@QEAA?AV?$Local@VValue@v8@@@2@V32@@Z 000000018002cb9d f   node:node.exe
 0001:0002bba9       __imp_load_?Length@TypedArray@v8@@QEAA_KXZ 000000018002cba9 f   node:node.exe
 0001:0002bbb5       __imp_load_?Set@Template@v8@@QEAAXV?$Local@VName@v8@@@2@V?$Local@VData@v8@@@2@W4PropertyAttribute@2@@Z 000000018002cbb5 f   node:node.exe
 0001:0002bbc1       __imp_load_?ByteLength@ArrayBufferView@v8@@QEAA_KXZ 000000018002cbc1 f   node:node.exe
 0001:0002bbcd       __imp_load_?ByteOffset@ArrayBufferView@v8@@QEAA_KXZ 000000018002cbcd f   node:node.exe
 0001:0002bbd9       __imp_load_?Buffer@ArrayBufferView@v8@@QEAA?AV?$Local@VArrayBuffer@v8@@@2@XZ 000000018002cbd9 f   node:node.exe
 0001:0002bbe5       __imp_load_?Error@Exception@v8@@SA?AV?$Local@VValue@v8@@@2@V?$Local@VString@v8@@@2@@Z 000000018002cbe5 f   node:node.exe
 0001:0002bbf1       __imp_load_?TypeError@Exception@v8@@SA?AV?$Local@VValue@v8@@@2@V?$Local@VString@v8@@@2@@Z 000000018002cbf1 f   node:node.exe
 0001:0002bbfd       __imp_load_?ValueOf@Date@v8@@QEBANXZ 000000018002cbfd f   node:node.exe
 0001:0002bc09       __imp_load_?HasInstance@FunctionTemplate@v8@@QEAA_NV?$Local@VValue@v8@@@2@@Z 000000018002cc09 f   node:node.exe
 0001:0002bc15       __imp_load_?PrototypeTemplate@FunctionTemplate@v8@@QEAA?AV?$Local@VObjectTemplate@v8@@@2@XZ 000000018002cc15 f   node:node.exe
 0001:0002bc21       __imp_load_?GetContents@ArrayBuffer@v8@@QEAA?AVContents@12@XZ 000000018002cc21 f   node:node.exe
 0001:0002bc2d       __imp_load_?StrictEquals@Value@v8@@QEBA_NV?$Local@VValue@v8@@@2@@Z 000000018002cc2d f   node:node.exe
 0001:0002bc39       __imp_load_?NumberValue@Value@v8@@QEBA?AV?$Maybe@N@2@V?$Local@VContext@v8@@@2@@Z 000000018002cc39 f   node:node.exe
 0001:0002bc45       __imp_load_?BooleanValue@Value@v8@@QEBA?AV?$Maybe@_N@2@V?$Local@VContext@v8@@@2@@Z 000000018002cc45 f   node:node.exe
 0001:0002bc51       __imp_load_?ToUint32@Value@v8@@QEBA?AV?$MaybeLocal@VUint32@v8@@@2@V?$Local@VContext@v8@@@2@@Z 000000018002cc51 f   node:node.exe
 0001:0002bc5d       __imp_load_?ToObject@Value@v8@@QEBA?AV?$MaybeLocal@VObject@v8@@@2@V?$Local@VContext@v8@@@2@@Z 000000018002cc5d f   node:node.exe
 0001:0002bc69       __imp_load_?ToString@Value@v8@@QEBA?AV?$MaybeLocal@VString@v8@@@2@V?$Local@VContext@v8@@@2@@Z 000000018002cc69 f   node:node.exe
 0001:0002bc75       __imp_load_?IsUint8ClampedArray@Value@v8@@QEBA_NXZ 000000018002cc75 f   node:node.exe
 0001:0002bc81       __imp_load_?IsArrayBufferView@Value@v8@@QEBA_NXZ 000000018002cc81 f   node:node.exe
 0001:0002bc8d       __imp_load_?IsDate@Value@v8@@QEBA_NXZ 000000018002cc8d f   node:node.exe
 0001:0002bc99       __imp_load_?IsUint32@Value@v8@@QEBA_NXZ 000000018002cc99 f   node:node.exe
 0001:0002bca5       __imp_load_?IsBoolean@Value@v8@@QEBA_NXZ 000000018002cca5 f   node:node.exe
 0001:0002bcb1       __imp_load_?IsObject@Value@v8@@QEBA_NXZ 000000018002ccb1 f   node:node.exe
 0001:0002bcbd       __imp_load_?IsFunction@Value@v8@@QEBA_NXZ 000000018002ccbd f   node:node.exe
 0001:0002bcc9       __imp_load_?ReThrow@TryCatch@v8@@QEAA?AV?$Local@VValue@v8@@@2@XZ 000000018002ccc9 f   node:node.exe
 0001:0002bcd5       __imp_load_?HasCaught@TryCatch@v8@@QEBA_NXZ 000000018002ccd5 f   node:node.exe
 0001:0002bce1       __imp_load_??1TryCatch@v8@@QEAA@XZ 000000018002cce1 f   node:node.exe
 0001:0002bced       __imp_load_??0TryCatch@v8@@QEAA@PEAVIsolate@1@@Z 000000018002cced f   node:node.exe
 0001:0002bcf9       __imp_load_?WriteUtf8@String@v8@@QEBAHPEAVIsolate@2@PEADHPEAHH@Z 000000018002ccf9 f   node:node.exe
 0001:0002bd05       __imp_load_?Length@String@v8@@QEBAHXZ 000000018002cd05 f   node:node.exe
 0001:0002bd11       __imp_load_?New@Number@v8@@SA?AV?$Local@VNumber@v8@@@2@PEAVIsolate@2@N@Z 000000018002cd11 f   node:node.exe
 0001:0002bd1d       __imp_load_?SlowGetAlignedPointerFromInternalField@Object@v8@@AEAAPEAXH@Z 000000018002cd1d f   node:node.exe
 0001:0002bd29       __imp_load_?Get@Object@v8@@QEAA?AV?$MaybeLocal@VValue@v8@@@2@V?$Local@VContext@v8@@@2@V?$Local@VValue@v8@@@2@@Z 000000018002cd29 f   node:node.exe
 0001:0002bd35       __imp_load_?Call@Function@v8@@QEAA?AV?$MaybeLocal@VValue@v8@@@2@V?$Local@VContext@v8@@@2@V?$Local@VValue@v8@@@2@HQEAV52@@Z 000000018002cd35 f   node:node.exe
 0001:0002bd41       __imp_load_?SetAccessor@ObjectTemplate@v8@@QEAAXV?$Local@VName@v8@@@2@P6AX0AEBV?$PropertyCallbackInfo@VValue@v8@@@2@@ZP6AX0V?$Local@VValue@v8@@@2@AEBV?$PropertyCallbackInfo@X@2@@Z3W4AccessControl@2@W4PropertyAttribute@2@V?$Local@VAccessorSignature@v8@@@2@W4SideEffectType@2@@Z 000000018002cd41 f   node:node.exe
 0001:0002bd4d       __imp_load_?EmitAsyncDestroy@node@@YAXPEAVIsolate@v8@@Uasync_context@1@@Z 000000018002cd4d f   node:node.exe
 0001:0002bd59       __imp_load_?New@Buffer@node@@YA?AV?$MaybeLocal@VObject@v8@@@v8@@PEAVIsolate@4@PEAD_KP6AX1PEAX@Z3@Z 000000018002cd59 f   node:node.exe
 0001:0002bd65       __imp_load_?New@Buffer@node@@YA?AV?$MaybeLocal@VObject@v8@@@v8@@PEAVIsolate@4@PEAD_K@Z 000000018002cd65 f   node:node.exe
 0001:0002bd71       __imp_load_?Copy@Buffer@node@@YA?AV?$MaybeLocal@VObject@v8@@@v8@@PEAVIsolate@4@PEBD_K@Z 000000018002cd71 f   node:node.exe
 0001:0002bd7d       __imp_load_?MakeCallback@node@@YA?AV?$MaybeLocal@VValue@v8@@@v8@@PEAVIsolate@3@V?$Local@VObject@v8@@@3@V?$Local@VFunction@v8@@@3@HPEAV?$Local@VValue@v8@@@3@Uasync_context@1@@Z 000000018002cd7d f   node:node.exe
 0001:0002bd89       __imp_load_?EmitAsyncInit@node@@YA?AUasync_context@1@PEAVIsolate@v8@@V?$Local@VObject@v8@@@4@V?$Local@VString@v8@@@4@N@Z 000000018002cd89 f   node:node.exe
 0001:0002bd95       __imp_load_uv_default_loop 000000018002cd95 f   node:node.exe
 0001:0002bda1       __imp_load_?FromJustIsNothing@V8@v8@@CAXXZ 000000018002cda1 f   node:node.exe
 0001:0002bdad       __imp_load_?InstanceOf@Value@v8@@QEAA?AV?$Maybe@_N@2@V?$Local@VContext@v8@@@2@V?$Local@VObject@v8@@@2@@Z 000000018002cdad f   node:node.exe
 0001:0002bdb9       __imp_load_?New@Function@v8@@SA?AV?$MaybeLocal@VFunction@v8@@@2@V?$Local@VContext@v8@@@2@P6AXAEBV?$FunctionCallbackInfo@VValue@v8@@@2@@ZV?$Local@VValue@v8@@@2@HW4ConstructorBehavior@2@W4SideEffectType@2@@Z 000000018002cdb9 f   node:node.exe
 0001:0002bdc5       __imp_load_?New@Uint8ClampedArray@v8@@SA?AV?$Local@VUint8ClampedArray@v8@@@2@V?$Local@VArrayBuffer@v8@@@2@_K1@Z 000000018002cdc5 f   node:node.exe
 0001:0002bdd1       __imp_load_?New@Integer@v8@@SA?AV?$Local@VInteger@v8@@@2@PEAVIsolate@2@H@Z 000000018002cdd1 f   node:node.exe
 0001:0002bddd       __imp_load_?RangeError@Exception@v8@@SA?AV?$Local@VValue@v8@@@2@V?$Local@VString@v8@@@2@@Z 000000018002cddd f   node:node.exe
 0001:0002bde9       __imp_load_?New@Array@v8@@SA?AV?$Local@VArray@v8@@@2@PEAVIsolate@2@H@Z 000000018002cde9 f   node:node.exe
 0001:0002bdf5       __imp_load_?Length@Array@v8@@QEBAIXZ 000000018002cdf5 f   node:node.exe
 0001:0002be01       __imp_load_?New@ArrayBuffer@v8@@SA?AV?$Local@VArrayBuffer@v8@@@2@PEAVIsolate@2@_K@Z 000000018002ce01 f   node:node.exe
 0001:0002be0d       __imp_load_?Int32Value@Value@v8@@QEBA?AV?$Maybe@H@2@V?$Local@VContext@v8@@@2@@Z 000000018002ce0d f   node:node.exe
 0001:0002be19       __imp_load_?ToInt32@Value@v8@@QEBA?AV?$MaybeLocal@VInt32@v8@@@2@V?$Local@VContext@v8@@@2@@Z 000000018002ce19 f   node:node.exe
 0001:0002be25       __imp_load_?IsArray@Value@v8@@QEBA_NXZ 000000018002ce25 f   node:node.exe
 0001:0002be31       __imp_load_?New@Float64Array@v8@@SA?AV?$Local@VFloat64Array@v8@@@2@V?$Local@VArrayBuffer@v8@@@2@_K1@Z 000000018002ce31 f   node:node.exe
 0001:0002be3d       __imp_load_?New@Uint16Array@v8@@SA?AV?$Local@VUint16Array@v8@@@2@V?$Local@VArrayBuffer@v8@@@2@_K1@Z 000000018002ce3d f   node:node.exe
 0001:0002be49       __imp_load_?Get@Object@v8@@QEAA?AV?$MaybeLocal@VValue@v8@@@2@V?$Local@VContext@v8@@@2@I@Z 000000018002ce49 f   node:node.exe
 0001:0002be55       __imp_load_?NewInstance@Function@v8@@QEBA?AV?$MaybeLocal@VObject@v8@@@2@V?$Local@VContext@v8@@@2@HQEAV?$Local@VValue@v8@@@2@@Z 000000018002ce55 f   node:node.exe
 0001:0002be61       __imp_load_?HasInstance@Buffer@node@@YA_NV?$Local@VValue@v8@@@v8@@@Z 000000018002ce61 f   node:node.exe
 0001:0002be6d       __imp_load_?Data@Buffer@node@@YAPEADV?$Local@VObject@v8@@@v8@@@Z 000000018002ce6d f   node:node.exe
 0001:0002be79       __imp_load_?Length@Buffer@node@@YA_KV?$Local@VObject@v8@@@v8@@@Z 000000018002ce79 f   node:node.exe
 0001:0002be85       __imp_load_?ErrnoException@node@@YA?AV?$Local@VValue@v8@@@v8@@PEAVIsolate@3@HPEBD11@Z 000000018002ce85 f   node:node.exe
 0001:0002be91       __imp_load_?IsUint16Array@Value@v8@@QEBA_NXZ 000000018002ce91 f   node:node.exe
 0001:0002be9d       __imp_load_node_module_register 000000018002ce9d f   node:node.exe
 0001:0002bec0       __security_check_cookie    000000018002cec0 f   LIBCMT:amdsecgs.obj
 0001:0002bee0       ??2@YAPEAX_K@Z             000000018002cee0 f   LIBCMT:new_scalar.obj
 0001:0002bf1c       ??_V@YAXPEAX@Z             000000018002cf1c f   LIBCMT:delete_array.obj
 0001:0002bf1c       ??3@YAXPEAX_K@Z            000000018002cf1c f   LIBCMT:delete_scalar_size.obj
 0001:0002bf24       __scrt_acquire_startup_lock 000000018002cf24 f   LIBCMT:utility.obj
 0001:0002bf60       __scrt_dllmain_after_initialize_c 000000018002cf60 f   LIBCMT:utility.obj
 0001:0002bf94       __scrt_dllmain_before_initialize_c 000000018002cf94 f   LIBCMT:utility.obj
 0001:0002bfac       __scrt_dllmain_crt_thread_attach 000000018002cfac f   LIBCMT:utility.obj
 0001:0002bfd4       __scrt_dllmain_crt_thread_detach 000000018002cfd4 f   LIBCMT:utility.obj
 0001:0002bfec       __scrt_dllmain_exception_filter 000000018002cfec f   LIBCMT:utility.obj
 0001:0002c04c       __scrt_dllmain_uninitialize_c 000000018002d04c f   LIBCMT:utility.obj
 0001:0002c07c       __scrt_dllmain_uninitialize_critical 000000018002d07c f   LIBCMT:utility.obj
 0001:0002c090       __scrt_initialize_crt      000000018002d090 f   LIBCMT:utility.obj
 0001:0002c0dc       __scrt_initialize_onexit_tables 000000018002d0dc f   LIBCMT:utility.obj
 0001:0002c168       __scrt_is_nonwritable_in_current_image 000000018002d168 f   LIBCMT:utility.obj
 0001:0002c200       __scrt_release_startup_lock 000000018002d200 f   LIBCMT:utility.obj
 0001:0002c224       __scrt_uninitialize_crt    000000018002d224 f   LIBCMT:utility.obj
 0001:0002c250       _onexit                    000000018002d250 f   LIBCMT:utility.obj
 0001:0002c28c       atexit                     000000018002d28c f   LIBCMT:utility.obj
 0001:0002c2a4       ??_Gtype_info@@UEAAPEAXI@Z 000000018002d2a4 f i LIBCMT:std_type_info_static.obj
 0001:0002c2a4       ??_Etype_info@@UEAAPEAXI@Z 000000018002d2a4 f i LIBCMT:std_type_info_static.obj
 0001:0002c2d0       ??_U@YAPEAX_KAEBUnothrow_t@std@@@Z 000000018002d2d0 f   LIBCMT:new_array_nothrow.obj
 0001:0002c2d8       ??_M@YAXPEAX_K1P6AX0@Z@Z   000000018002d2d8 f   LIBCMT:ehvecdtr.obj
 0001:0002c344       ?__ArrayUnwind@@YAXPEAX_K1P6AX0@Z@Z 000000018002d344 f   LIBCMT:ehvecdtr.obj
 0001:0002c3a8       ??_U@YAPEAX_K@Z            000000018002d3a8 f   LIBCMT:new_array.obj
 0001:0002c6d0       _DllMainCRTStartup         000000018002d6d0 f   LIBCMT:dll_dllmain.obj
 0001:0002c710       __raise_securityfailure    000000018002d710 f   LIBCMT:gs_report.obj
 0001:0002c744       __report_gsfailure         000000018002d744 f   LIBCMT:gs_report.obj
 0001:0002c818       __report_rangecheckfailure 000000018002d818 f   LIBCMT:gs_report.obj
 0001:0002c82c       __report_securityfailure   000000018002d82c f   LIBCMT:gs_report.obj
 0001:0002c9ac       ??0bad_alloc@std@@QEAA@AEBV01@@Z 000000018002d9ac f i LIBCMT:throw_bad_alloc.obj
 0001:0002c9e8       ??0bad_alloc@std@@QEAA@XZ  000000018002d9e8 f i LIBCMT:throw_bad_alloc.obj
 0001:0002ca08       ??0bad_array_new_length@std@@QEAA@AEBV01@@Z 000000018002da08 f i LIBCMT:throw_bad_alloc.obj
 0001:0002ca44       ??0bad_array_new_length@std@@QEAA@XZ 000000018002da44 f i LIBCMT:throw_bad_alloc.obj
 0001:0002ca64       ??0exception@std@@QEAA@AEBV01@@Z 000000018002da64 f i LIBCMT:throw_bad_alloc.obj
 0001:0002ca98       ??1bad_function_call@std@@UEAA@XZ 000000018002da98 f i libcpmt:xthrow.obj
 0001:0002ca98       ??1length_error@std@@UEAA@XZ 000000018002da98 f i libcpmt:xthrow.obj
 0001:0002ca98       ??1bad_array_new_length@std@@UEAA@XZ 000000018002da98 f i LIBCMT:throw_bad_alloc.obj
 0001:0002ca98       ??1bad_exception@std@@UEAA@XZ 000000018002da98 f i libvcruntime:frame.obj
 0001:0002ca98       ??1bad_alloc@std@@UEAA@XZ  000000018002da98 f i LIBCMT:throw_bad_alloc.obj
 0001:0002caac       ??_Elength_error@std@@UEAAPEAXI@Z 000000018002daac f i libcpmt:xthrow.obj
 0001:0002caac       ??_Elogic_error@std@@UEAAPEAXI@Z 000000018002daac f i libcpmt:xthrow.obj
 0001:0002caac       ??_Ebad_array_new_length@std@@UEAAPEAXI@Z 000000018002daac f i LIBCMT:throw_bad_alloc.obj
 0001:0002caac       ??_Ebad_exception@std@@UEAAPEAXI@Z 000000018002daac f i libvcruntime:frame.obj
 0001:0002caac       ??_Gexception@std@@UEAAPEAXI@Z 000000018002daac f i LIBCMT:throw_bad_alloc.obj
 0001:0002caac       ??_Gbad_function_call@std@@UEAAPEAXI@Z 000000018002daac f i libcpmt:xthrow.obj
 0001:0002caac       ??_Ebad_function_call@std@@UEAAPEAXI@Z 000000018002daac f i libcpmt:xthrow.obj
 0001:0002caac       ??_Eexception@std@@UEAAPEAXI@Z 000000018002daac f i LIBCMT:throw_bad_alloc.obj
 0001:0002caac       ??_Ebad_alloc@std@@UEAAPEAXI@Z 000000018002daac f i LIBCMT:throw_bad_alloc.obj
 0001:0002caac       ??_Gbad_exception@std@@UEAAPEAXI@Z 000000018002daac f i libvcruntime:frame.obj
 0001:0002caac       ??_Gbad_alloc@std@@UEAAPEAXI@Z 000000018002daac f i LIBCMT:throw_bad_alloc.obj
 0001:0002caac       ??_Glength_error@std@@UEAAPEAXI@Z 000000018002daac f i libcpmt:xthrow.obj
 0001:0002caac       ??_Glogic_error@std@@UEAAPEAXI@Z 000000018002daac f i libcpmt:xthrow.obj
 0001:0002caac       ??_Gbad_array_new_length@std@@UEAAPEAXI@Z 000000018002daac f i LIBCMT:throw_bad_alloc.obj
 0001:0002caf0       ?__scrt_throw_std_bad_alloc@@YAXXZ 000000018002daf0 f   LIBCMT:throw_bad_alloc.obj
 0001:0002caf0       ?_Xbad_alloc@std@@YAXXZ    000000018002daf0 f   libcpmt:xthrow.obj
 0001:0002cb10       ?__scrt_throw_std_bad_array_new_length@@YAXXZ 000000018002db10 f   LIBCMT:throw_bad_alloc.obj
 0001:0002cb30       ?what@exception@std@@UEBAPEBDXZ 000000018002db30 f i LIBCMT:throw_bad_alloc.obj
 0001:0002cb44       ??3@YAXPEAX@Z              000000018002db44 f   LIBCMT:delete_scalar.obj
 0001:0002cb4c       __isa_available_init       000000018002db4c f   LIBCMT:cpu_disp.obj
 0001:0002ccf0       _get_startup_argv_mode     000000018002dcf0 f   LIBCMT:argv_mode.obj
 0001:0002ccf0       DllMain                    000000018002dcf0 f   LIBCMT:dll_dllmain_stub.obj
 0001:0002ccf8       __scrt_is_ucrt_dll_in_use  000000018002dcf8 f   LIBCMT:ucrt_detection.obj
 0001:0002cd04       __crt_debugger_hook        000000018002dd04 f   LIBCMT:utility_desktop.obj
 0001:0002cd0c       __scrt_fastfail            000000018002dd0c f   LIBCMT:utility_desktop.obj
 0001:0002ce58       ??2@YAPEAX_KAEBUnothrow_t@std@@@Z 000000018002de58 f   LIBCMT:new_scalar_nothrow.obj
 0001:0002ce6c       __security_init_cookie     000000018002de6c f   LIBCMT:gs_support.obj
 0001:0002cf18       ?__scrt_initialize_type_info@@YAXXZ 000000018002df18 f   LIBCMT:tncleanup.obj
 0001:0002cf28       ?__scrt_uninitialize_type_info@@YAXXZ 000000018002df28 f   LIBCMT:tncleanup.obj
 0001:0002cf34       __local_stdio_scanf_options 000000018002df34 f i LIBCMT:default_local_stdio_options.obj
 0001:0002cf3c       __scrt_initialize_default_local_stdio_options 000000018002df3c f   LIBCMT:default_local_stdio_options.obj
 0001:0002cf58       __scrt_get_dyn_tls_init_callback 000000018002df58 f   LIBCMT:dyn_tls_init.obj
 0001:0002cf60       _RTC_Initialize            000000018002df60 f   LIBCMT:initsect.obj
 0001:0002cf9c       _RTC_Terminate             000000018002df9c f   LIBCMT:initsect.obj
 0001:0002cfe0       ??0bad_function_call@std@@QEAA@AEBV01@@Z 000000018002dfe0 f i libcpmt:xthrow.obj
 0001:0002d01c       ??0bad_function_call@std@@QEAA@XZ 000000018002e01c f i libcpmt:xthrow.obj
 0001:0002d034       ??0length_error@std@@QEAA@AEBV01@@Z 000000018002e034 f i libcpmt:xthrow.obj
 0001:0002d070       ??0length_error@std@@QEAA@PEBD@Z 000000018002e070 f i libcpmt:xthrow.obj
 0001:0002d0b8       ??0logic_error@std@@QEAA@AEBV01@@Z 000000018002e0b8 f i libcpmt:xthrow.obj
 0001:0002d0f4       ??0runtime_error@std@@QEAA@AEBV01@@Z 000000018002e0f4 f i libcpmt:xthrow.obj
 0001:0002d130       ??0runtime_error@std@@QEAA@PEBD@Z 000000018002e130 f i libcpmt:xthrow.obj
 0001:0002d178       ?_Xbad_function_call@std@@YAXXZ 000000018002e178 f   libcpmt:xthrow.obj
 0001:0002d198       ?_Xlength_error@std@@YAXPEBD@Z 000000018002e198 f   libcpmt:xthrow.obj
 0001:0002d1bc       ?_Xruntime_error@std@@YAXPEBD@Z 000000018002e1bc f   libcpmt:xthrow.obj
 0001:0002d1e0       ?what@bad_function_call@std@@UEBAPEBDXZ 000000018002e1e0 f i libcpmt:xthrow.obj
 0001:0002d1e8       ??0_Init_locks@std@@QEAA@XZ 000000018002e1e8 f   libcpmt:xlock.obj
 0001:0002d22c       ??0_Lockit@std@@QEAA@H@Z   000000018002e22c f   libcpmt:xlock.obj
 0001:0002d268       ??1_Init_locks@std@@QEAA@XZ 000000018002e268 f   libcpmt:xlock.obj
 0001:0002d2a4       ??1_Lockit@std@@QEAA@XZ    000000018002e2a4 f   libcpmt:xlock.obj
 0001:0002d2d8       ??0_Locimp@locale@std@@AEAA@_N@Z 000000018002e2d8 f i libcpmt:locale0.obj
 0001:0002d360       ??4?$_Yarn@D@std@@QEAAAEAV01@PEBD@Z 000000018002e360 f i libcpmt:locale0.obj
 0001:0002d3d8       ??_G_Locimp@locale@std@@MEAAPEAXI@Z 000000018002e3d8 f i libcpmt:locale0.obj
 0001:0002d3d8       ??_E_Locimp@locale@std@@MEAAPEAXI@Z 000000018002e3d8 f i libcpmt:locale0.obj
 0001:0002d434       ?_Facet_Register@std@@YAXPEAV_Facet_base@1@@Z 000000018002e434 f   libcpmt:locale0.obj
 0001:0002d46c       ?_Getgloballocale@locale@std@@CAPEAV_Locimp@12@XZ 000000018002e46c f   libcpmt:locale0.obj
 0001:0002d474       ?_Init@locale@std@@CAPEAV_Locimp@12@_N@Z 000000018002e474 f   libcpmt:locale0.obj
 0001:0002d56c       ?_Locimp_dtor@_Locimp@locale@std@@CAXPEAV123@@Z 000000018002e56c f   libcpmt:locale0.obj
 0001:0002d5e8       ?_Locinfo_ctor@_Locinfo@std@@SAXPEAV12@PEBD@Z 000000018002e5e8 f   libcpmt:locale0.obj
 0001:0002d654       ?_Locinfo_dtor@_Locinfo@std@@SAXPEAV12@@Z 000000018002e654 f   libcpmt:locale0.obj
 0001:0002d670       ?_New_Locimp@_Locimp@locale@std@@CAPEAV123@_N@Z 000000018002e670 f   libcpmt:locale0.obj
 0001:0002d6a0       ?_Setgloballocale@locale@std@@CAXPEAX@Z 000000018002e6a0 f   libcpmt:locale0.obj
 0001:0002d6d4       _Deletegloballocale        000000018002e6d4 f   libcpmt:locale0.obj
 0001:0002d744       ?_Ios_base_dtor@ios_base@std@@CAXPEAV12@@Z 000000018002e744 f   libcpmt:ios.obj
 0001:0002d7bc       ?_Tidy@ios_base@std@@AEAAXXZ 000000018002e7bc f i libcpmt:ios.obj
 0001:0002d83c       ?_Syserror_map@std@@YAPEBDH@Z 000000018002e83c f   libcpmt:syserror.obj
 0001:0002d864       _Getctype                  000000018002e864 f   libcpmt:_tolower.obj
 0001:0002d924       _Tolower                   000000018002e924 f   libcpmt:_tolower.obj
 0001:0002da54       _Toupper                   000000018002ea54 f   libcpmt:_toupper.obj
 0001:0002db94       _Mtxdst                    000000018002eb94 f   libcpmt:xmtx.obj
 0001:0002db9c       _Mtxinit                   000000018002eb9c f   libcpmt:xmtx.obj
 0001:0002dbac       _Mtxlock                   000000018002ebac f   libcpmt:xmtx.obj
 0001:0002dbb4       _Mtxunlock                 000000018002ebb4 f   libcpmt:xmtx.obj
 0001:0002dbbc       ?_Atexit@@YAXP6AXXZ@Z      000000018002ebbc f   libcpmt:iosptrs.obj
 0001:0002dbf8       __crtLCMapStringA          000000018002ebf8 f   libcpmt:StlLCMapStringA.obj
 0001:0002def8       ??$_CallSETranslator@V__FrameHandler3@@@@YAHPEAUEHExceptionRecord@@PEA_KPEAU_CONTEXT@@PEAU_xDISPATCHER_CONTEXT@@PEBU_s_FuncInfo@@K1H@Z 000000018002eef8 f i libvcruntime:risctrnsctrl.obj
 0001:0002df4c       ??$_CallSETranslator@V__FrameHandler4@@@@YAHPEAUEHExceptionRecord@@PEA_KPEAU_CONTEXT@@PEAU_xDISPATCHER_CONTEXT@@PEAUFuncInfo4@FH4@@K1H@Z 000000018002ef4c f i libvcruntime:risctrnsctrl.obj
 0001:0002dfa0       ?CatchTryBlock@__FrameHandler3@@SAPEBU_s_TryBlockMapEntry@@PEBU_s_FuncInfo@@H@Z 000000018002efa0 f   libvcruntime:risctrnsctrl.obj
 0001:0002dff4       ?DecompFuncInfo@FH4@@YA_JPEAEAEAUFuncInfo4@1@_KH_N@Z 000000018002eff4 f i libvcruntime:risctrnsctrl.obj
 0001:0002e118       ?ExecutionInCatch@__FrameHandler3@@SA_NPEAU_xDISPATCHER_CONTEXT@@PEBU_s_FuncInfo@@@Z 000000018002f118 f   libvcruntime:risctrnsctrl.obj
 0001:0002e144       ?ExecutionInCatch@__FrameHandler4@@SA_NPEAU_xDISPATCHER_CONTEXT@@PEAUFuncInfo4@FH4@@@Z 000000018002f144 f   libvcruntime:risctrnsctrl.obj
 0001:0002e14c       ?FrameUnwindToEmptyState@__FrameHandler3@@SAXPEA_KPEAU_xDISPATCHER_CONTEXT@@PEBU_s_FuncInfo@@@Z 000000018002f14c f   libvcruntime:risctrnsctrl.obj
 0001:0002e1b0       ?FrameUnwindToEmptyState@__FrameHandler4@@SAXPEA_KPEAU_xDISPATCHER_CONTEXT@@PEAUFuncInfo4@FH4@@@Z 000000018002f1b0 f   libvcruntime:risctrnsctrl.obj
 0001:0002e1e4       ?GetEstablisherFrame@__FrameHandler3@@SAPEA_KPEA_KPEAU_xDISPATCHER_CONTEXT@@PEBU_s_FuncInfo@@0@Z 000000018002f1e4 f   libvcruntime:risctrnsctrl.obj
 0001:0002e2b0       ?GetEstablisherFrame@__FrameHandler4@@SAPEA_KPEA_KPEAU_xDISPATCHER_CONTEXT@@PEAUFuncInfo4@FH4@@0@Z 000000018002f2b0 f   libvcruntime:risctrnsctrl.obj
 0001:0002e2d4       ?GetRangeOfTrysToCheck@__FrameHandler3@@SA?AU?$pair@Viterator@TryBlockMap@__FrameHandler3@@V123@@std@@AEAVTryBlockMap@1@HPEAU_xDISPATCHER_CONTEXT@@PEBU_s_FuncInfo@@H@Z 000000018002f2d4 f   libvcruntime:risctrnsctrl.obj
 0001:0002e414       ?GetRangeOfTrysToCheck@__FrameHandler4@@SA?AU?$pair@Viterator@TryBlockMap4@FH4@@V123@@std@@AEAVTryBlockMap4@FH4@@HPEAU_xDISPATCHER_CONTEXT@@PEAUFuncInfo4@5@H@Z 000000018002f414 f   libvcruntime:risctrnsctrl.obj
 0001:0002e57c       ?UnwindNestedFrames@__FrameHandler3@@SAXPEA_KPEAUEHExceptionRecord@@PEAU_CONTEXT@@0PEAXPEBU_s_FuncInfo@@HHPEBU_s_HandlerType@@PEAU_xDISPATCHER_CONTEXT@@E@Z 000000018002f57c f   libvcruntime:risctrnsctrl.obj
 0001:0002e680       ?UnwindNestedFrames@__FrameHandler4@@SAXPEA_KPEAUEHExceptionRecord@@PEAU_CONTEXT@@0PEAXPEAUFuncInfo4@FH4@@HHPEAUHandlerType4@5@PEAU_xDISPATCHER_CONTEXT@@E@Z 000000018002f680 f   libvcruntime:risctrnsctrl.obj
 0001:0002e7a0       ?setBuffer@TryBlockMap4@FH4@@QEAAXViterator@12@@Z 000000018002f7a0 f i libvcruntime:risctrnsctrl.obj
 0001:0002e960       _CreateFrameInfo           000000018002f960 f   libvcruntime:risctrnsctrl.obj
 0001:0002e99c       _FindAndUnlinkFrame        000000018002f99c f   libvcruntime:risctrnsctrl.obj
 0001:0002e9f0       _GetImageBase              000000018002f9f0 f   libvcruntime:risctrnsctrl.obj
 0001:0002ea04       _GetThrowImageBase         000000018002fa04 f   libvcruntime:risctrnsctrl.obj
 0001:0002ea18       _SetImageBase              000000018002fa18 f   libvcruntime:risctrnsctrl.obj
 0001:0002ea30       _SetThrowImageBase         000000018002fa30 f   libvcruntime:risctrnsctrl.obj
 0001:0002ea48       __CxxFrameHandler3         000000018002fa48 f   libvcruntime:risctrnsctrl.obj
 0001:0002ead0       __CxxFrameHandler4         000000018002fad0 f   libvcruntime:risctrnsctrl.obj
 0001:0002eb90       _get_purecall_handler      000000018002fb90 f   libvcruntime:purevirt.obj
 0001:0002eb9c       _purecall                  000000018002fb9c f   libvcruntime:purevirt.obj
 0001:0002ebb8       __DestructExceptionObject  000000018002fbb8 f   libvcruntime:ehhelpers.obj
 0001:0002ec28       ?_CallMemberFunction0@@YAXQEAX0@Z 000000018002fc28 f i libvcruntime:ehhelpers.obj
 0001:0002ec2c       _IsExceptionObjectToBeDestroyed 000000018002fc2c f   libvcruntime:ehhelpers.obj
 0001:0002ec5c       __AdjustPointer            000000018002fc5c f   libvcruntime:ehhelpers.obj
 0001:0002ec80       __FrameUnwindFilter        000000018002fc80 f   libvcruntime:ehhelpers.obj
 0001:0002ece8       __current_exception        000000018002fce8 f   libvcruntime:ehhelpers.obj
 0001:0002ecfc       __current_exception_context 000000018002fcfc f   libvcruntime:ehhelpers.obj
 0001:0002ed10       __std_terminate            000000018002fd10 f   libvcruntime:ehhelpers.obj
 0001:0002ed1c       longjmp                    000000018002fd1c f   libvcruntime:longjmpc.obj
 0001:0002ed44       strstr                     000000018002fd44 f   libvcruntime:strstr.obj
 0001:0002ef40       __vcrt_initialize          000000018002ff40 f   libvcruntime:initialization.obj
 0001:0002ef68       __vcrt_thread_attach       000000018002ff68 f   libvcruntime:initialization.obj
 0001:0002ef7c       __vcrt_thread_detach       000000018002ff7c f   libvcruntime:initialization.obj
 0001:0002ef90       __vcrt_uninitialize        000000018002ff90 f   libvcruntime:initialization.obj
 0001:0002efac       __vcrt_uninitialize_critical 000000018002ffac f   libvcruntime:initialization.obj
 0001:0002efbc       __C_specific_handler       000000018002ffbc f   libvcruntime:riscchandler.obj
 0001:0002f1c8       __std_exception_copy       00000001800301c8 f   libvcruntime:std_exception.obj
 0001:0002f258       __std_exception_destroy    0000000180030258 f   libvcruntime:std_exception.obj
 0001:0002f280       _CxxThrowException         0000000180030280 f   libvcruntime:throw.obj
 0001:0002f330       memset_repmovs             0000000180030330 f   libvcruntime:memset.obj
 0001:0002f350       memset                     0000000180030350 f   libvcruntime:memset.obj
 0001:0002f4e0       __std_type_info_compare    00000001800304e0 f   libvcruntime:std_type_info.obj
 0001:0002f508       __std_type_info_destroy_list 0000000180030508 f   libvcruntime:std_type_info.obj
 0001:0002f550       memcpy_repmovs             0000000180030550 f   libvcruntime:memcpy.obj
 0001:0002f570       memcpy                     0000000180030570 f   libvcruntime:memcpy.obj
 0001:0002f570       memmove                    0000000180030570 f   libvcruntime:memcpy.obj
 0001:0002fc00       memchr                     0000000180030c00 f   libvcruntime:memchr.obj
 0001:0002fc80       memcmp                     0000000180030c80 f   libvcruntime:memcmp.obj
 0001:0002fd48       __vcrt_freefls             0000000180030d48 f   libvcruntime:per_thread_data.obj
 0001:0002fd68       __vcrt_freeptd             0000000180030d68 f   libvcruntime:per_thread_data.obj
 0001:0002fdb8       __vcrt_getptd              0000000180030db8 f   libvcruntime:per_thread_data.obj
 0001:0002fdd4       __vcrt_getptd_noexit       0000000180030dd4 f   libvcruntime:per_thread_data.obj
 0001:0002fe94       __vcrt_initialize_ptd      0000000180030e94 f   libvcruntime:per_thread_data.obj
 0001:0002fedc       __vcrt_uninitialize_ptd    0000000180030edc f   libvcruntime:per_thread_data.obj
 0001:0002ff00       ?GetCurrentState@__FrameHandler3@@SAHPEA_KPEAU_xDISPATCHER_CONTEXT@@PEBU_s_FuncInfo@@@Z 0000000180030f00 f   libvcruntime:ehstate.obj
 0001:0002ff28       ?GetUnwindTryBlock@__FrameHandler3@@SAHPEA_KPEAU_xDISPATCHER_CONTEXT@@PEBU_s_FuncInfo@@@Z 0000000180030f28 f   libvcruntime:ehstate.obj
 0001:0002ff54       ?SetState@__FrameHandler3@@SAXPEA_KPEBU_s_FuncInfo@@H@Z 0000000180030f54 f   libvcruntime:ehstate.obj
 0001:0002ff60       ?SetUnwindTryBlock@__FrameHandler3@@SAXPEA_KPEAU_xDISPATCHER_CONTEXT@@PEBU_s_FuncInfo@@H@Z 0000000180030f60 f   libvcruntime:ehstate.obj
 0001:0002ff9c       ?StateFromControlPc@__FrameHandler3@@SAHPEBU_s_FuncInfo@@PEAU_xDISPATCHER_CONTEXT@@@Z 0000000180030f9c f   libvcruntime:ehstate.obj
 0001:0002ffa4       ?StateFromControlPc@__FrameHandler4@@SAHPEAUFuncInfo4@FH4@@PEAU_xDISPATCHER_CONTEXT@@@Z 0000000180030fa4 f   libvcruntime:ehstate.obj
 0001:0002ffac       ?StateFromIp@__FrameHandler3@@SAHPEBU_s_FuncInfo@@PEAU_xDISPATCHER_CONTEXT@@_K@Z 0000000180030fac f   libvcruntime:ehstate.obj
 0001:00030014       ?StateFromIp@__FrameHandler4@@SAHPEAUFuncInfo4@FH4@@PEAU_xDISPATCHER_CONTEXT@@_K@Z 0000000180031014 f   libvcruntime:ehstate.obj
 0001:000316f8       ??$TypeMatchHelper@V__FrameHandler3@@@@YAHPEBU_s_HandlerType@@PEBU_s_CatchableType@@PEBU_s_ThrowInfo@@@Z 00000001800326f8 f i libvcruntime:frame.obj
 0001:00031838       ??$TypeMatchHelper@V__FrameHandler4@@@@YAHPEAUHandlerType4@FH4@@PEBU_s_CatchableType@@PEBU_s_ThrowInfo@@@Z 0000000180032838 f i libvcruntime:frame.obj
 0001:0003197c       ??$__InternalCxxFrameHandler@V__FrameHandler3@@@@YA?AW4_EXCEPTION_DISPOSITION@@PEAUEHExceptionRecord@@PEA_KPEAU_CONTEXT@@PEAU_xDISPATCHER_CONTEXT@@PEBU_s_FuncInfo@@H1E@Z 000000018003297c f i libvcruntime:frame.obj
 0001:00031bb4       ??$__InternalCxxFrameHandler@V__FrameHandler4@@@@YA?AW4_EXCEPTION_DISPOSITION@@PEAUEHExceptionRecord@@PEA_KPEAU_CONTEXT@@PEAU_xDISPATCHER_CONTEXT@@PEAUFuncInfo4@FH4@@H1E@Z 0000000180032bb4 f i libvcruntime:frame.obj
 0001:00031e48       ??0HandlerMap4@FH4@@QEAA@PEBUTryBlockMapEntry4@1@_KH@Z 0000000180032e48 f i libvcruntime:frame.obj
 0001:00031ec4       ??0TryBlockMap4@FH4@@QEAA@PEBUFuncInfo4@1@_K@Z 0000000180032ec4 f i libvcruntime:frame.obj
 0001:00031f9c       ??0bad_exception@std@@QEAA@AEBV01@@Z 0000000180032f9c f i libvcruntime:frame.obj
 0001:00031fd8       ??0bad_exception@std@@QEAA@XZ 0000000180032fd8 f i libvcruntime:frame.obj
 0001:00031ff8       ?CxxCallCatchBlock@__FrameHandler3@@SAPEAXPEAU_EXCEPTION_RECORD@@@Z 0000000180032ff8 f   libvcruntime:frame.obj
 0001:000321e4       ?CxxCallCatchBlock@__FrameHandler4@@SAPEAXPEAU_EXCEPTION_RECORD@@@Z 00000001800331e4 f   libvcruntime:frame.obj
 0001:00032434       ?DecompHandler@HandlerMap4@FH4@@AEAAXXZ 0000000180033434 f i libvcruntime:frame.obj
 0001:00032674       ?FrameUnwindToState@__FrameHandler3@@SAXPEA_KPEAU_xDISPATCHER_CONTEXT@@PEBU_s_FuncInfo@@H@Z 0000000180033674 f   libvcruntime:frame.obj
 0001:00032800       ?FrameUnwindToState@__FrameHandler4@@SAXPEA_KPEAU_xDISPATCHER_CONTEXT@@PEAUFuncInfo4@FH4@@H@Z 0000000180033800 f   libvcruntime:frame.obj
 0001:00032ae8       ?GetHandlerSearchState@__FrameHandler3@@SAHPEA_KPEAU_xDISPATCHER_CONTEXT@@PEBU_s_FuncInfo@@@Z 0000000180033ae8 f i libvcruntime:frame.obj
 0001:00032cf8       ?ReadEntry@UWMap4@FH4@@AEAAXPEAPEAE@Z 0000000180033cf8 f i libvcruntime:frame.obj
 0001:00032d98       ?_CallMemberFunction1@@YAXQEAX00@Z 0000000180033d98 f i libvcruntime:frame.obj
 0001:00032da4       ?_CallMemberFunction2@@YAXQEAX00H@Z 0000000180033da4 f i libvcruntime:frame.obj
 0001:00032db4       ?getStartStop@UWMap4@FH4@@QEAAXHHAEAViterator@12@0@Z 0000000180033db4 f i libvcruntime:frame.obj
 0001:00032e84       ?getStateFromIterators@UWMap4@FH4@@SAHAEBViterator@12@H0H0@Z 0000000180033e84 f i libvcruntime:frame.obj
 0001:00032f50       __except_validate_context_record 0000000180033f50 f   libvcruntime:jbcxrval.obj
 0001:00032f88       __except_validate_jump_buffer 0000000180033f88 f   libvcruntime:jbcxrval.obj
 0001:00032fc8       __vcrt_initialize_locks    0000000180033fc8 f   libvcruntime:locks.obj
 0001:00032ffc       __vcrt_uninitialize_locks  0000000180033ffc f   libvcruntime:locks.obj
 0001:00033050       _NLG_Notify                0000000180034050 f   libvcruntime:notify.obj
 0001:00033070       __NLG_Dispatch2            0000000180034070 f   libvcruntime:notify.obj
 0001:00033080       __NLG_Return2              0000000180034080 f   libvcruntime:notify.obj
 0001:000331d4       __vcrt_FlsAlloc            00000001800341d4 f   libvcruntime:winapi_downlevel.obj
 0001:0003321c       __vcrt_FlsFree             000000018003421c f   libvcruntime:winapi_downlevel.obj
 0001:00033264       __vcrt_FlsGetValue         0000000180034264 f   libvcruntime:winapi_downlevel.obj
 0001:000332ac       __vcrt_FlsSetValue         00000001800342ac f   libvcruntime:winapi_downlevel.obj
 0001:00033300       __vcrt_InitializeCriticalSectionEx 0000000180034300 f   libvcruntime:winapi_downlevel.obj
 0001:00033380       _CallSettingFrame          0000000180034380 f   libvcruntime:handlers.obj
 0001:000333d0       _CallSettingFrame_LookupContinuationIndex 00000001800343d0 f   libvcruntime:handlers.obj
 0001:00033400       _CallSettingFrame_NotifyContinuationAddr 0000000180034400 f   libvcruntime:handlers.obj
 0001:00033430       _CallSettingFrameEncoded   0000000180034430 f   libvcruntime:handlers.obj
 0001:00033478       ??0_LocaleUpdate@@QEAA@QEAU__crt_locale_pointers@@@Z 0000000180034478 f i libucrt:stricmp.obj
 0001:00033514       __ascii_stricmp            0000000180034514 f   libucrt:stricmp.obj
 0001:00033550       _stricmp                   0000000180034550 f   libucrt:stricmp.obj
 0001:00033598       _stricmp_l                 0000000180034598 f   libucrt:stricmp.obj
 0001:00033620       ?get_raw_ptd@__crt_cached_ptd_host@@QEAAPEAU__acrt_ptd@@XZ 0000000180034620 f i libucrt:invalid_parameter.obj
 0001:00033688       ?get_raw_ptd_noexit@__crt_cached_ptd_host@@QEAAPEAU__acrt_ptd@@XZ 0000000180034688 f i libucrt:invalid_parameter.obj
 0001:000336f4       ?value@?$dual_state_global@P6AXPEB_W00I_K@Z@__crt_state_management@@QEAAAEAP6AXPEB_W00I_K@ZAEAV__crt_cached_ptd_host@@@Z 00000001800346f4 f i libucrt:invalid_parameter.obj
 0001:00033740       __acrt_call_reportfault    0000000180034740 f   libucrt:invalid_parameter.obj
 0001:0003389c       __acrt_initialize_invalid_parameter_handler 000000018003489c f   libucrt:invalid_parameter.obj
 0001:000338a4       _invalid_parameter         00000001800348a4 f   libucrt:invalid_parameter.obj
 0001:00033940       _invalid_parameter_internal 0000000180034940 f   libucrt:invalid_parameter.obj
 0001:00033a10       _invalid_parameter_noinfo  0000000180034a10 f   libucrt:invalid_parameter.obj
 0001:00033a30       _invalid_parameter_noinfo_noreturn 0000000180034a30 f   libucrt:invalid_parameter.obj
 0001:00033a60       _invoke_watson             0000000180034a60 f   libucrt:invalid_parameter.obj
 0001:0003412c       ??$ftprintf@PEAU_iobuf@@PEB_WAEBQEB_WAEBQEB_WAEBI@?$__crt_char_traits@_W@@SAH$$QEAPEAU_iobuf@@$$QEAPEB_WAEBQEB_W2AEBI@Z 000000018003512c f i libucrt:assert.obj
 0001:0003414c       ??0__crt_stdio_stream@@QEAA@QEAU_iobuf@@@Z 000000018003514c f i libucrt:assert.obj
 0001:00034234       ?has_any_buffer@__crt_stdio_stream@@QEBA_NXZ 0000000180035234 f i libucrt:assert.obj
 0001:00034244       _wassert                   0000000180035244 f   libucrt:assert.obj
 0001:000342b8       fwprintf                   00000001800352b8 f i libucrt:assert.obj
 0001:000342fc       swprintf                   00000001800352fc f i libucrt:assert.obj
 0001:00034350       abort                      0000000180035350 f   libucrt:abort.obj
 0001:000343a8       _tolower_l                 00000001800353a8 f   libucrt:tolower_toupper.obj
 0001:000344dc       _toupper_l                 00000001800354dc f   libucrt:tolower_toupper.obj
 0001:00034610       tolower                    0000000180035610 f   libucrt:tolower_toupper.obj
 0001:0003463c       toupper                    000000018003563c f   libucrt:tolower_toupper.obj
 0001:00034668       ??$__acrt_convert_wcs_mbs_cp@D_WV<lambda_7c9dea7b4ca7285d2cdb541a38da6275>@@U__crt_win32_buffer_internal_dynamic_resizing@@@@YAHQEBDAEAV?$__crt_win32_buffer@_WU__crt_win32_buffer_internal_dynamic_resizing@@@@AEBV<lambda_7c9dea7b4ca7285d2cdb541a38da6275>@@I@Z 0000000180035668 f i libucrt:strftime.obj
 0001:000347e4       ??$__acrt_convert_wcs_mbs_cp@_WDV<lambda_f788ae46380686e8b737efdd8c720d07>@@U__crt_win32_buffer_no_resizing@@@@YAHQEB_WAEAV?$__crt_win32_buffer@DU__crt_win32_buffer_no_resizing@@@@AEBV<lambda_f788ae46380686e8b737efdd8c720d07>@@I@Z 00000001800357e4 f i libucrt:strftime.obj
 0001:00034900       _Strftime_l                0000000180035900 f   libucrt:strftime.obj
 0001:00034a6c       strftime                   0000000180035a6c f   libucrt:strftime.obj
 0001:00034a88       ??$__crt_time_is_leap_year@H@@YA_NH@Z 0000000180035a88 f i libucrt:gmtime.obj
 0001:00034d70       __getgmtimebuf             0000000180035d70 f   libucrt:gmtime.obj
 0001:00034dbc       _gmtime64                  0000000180035dbc f   libucrt:gmtime.obj
 0001:00034e20       strncpy                    0000000180035e20 f   libucrt:strncpy.obj
 0001:00034f84       free                       0000000180035f84 f   libucrt:free.obj
 0001:00034f98       round                      0000000180035f98 f   libucrt:round.obj
 0001:00035000       malloc                     0000000180036000 f   libucrt:malloc.obj
 0001:00035008       __acrt_initialize_stdio    0000000180036008 f   libucrt:_file.obj
 0001:00035128       __acrt_iob_func            0000000180036128 f   libucrt:_file.obj
 0001:0003513c       __acrt_uninitialize_stdio  000000018003613c f   libucrt:_file.obj
 0001:00035198       _lock_file                 0000000180036198 f   libucrt:_file.obj
 0001:000351a4       _unlock_file               00000001800361a4 f   libucrt:_file.obj
 0001:000351f0       ??$ensure_buffer_is_big_enough@D@formatting_buffer@__crt_stdio_output@@QEAA_N_KAEAV__crt_cached_ptd_host@@@Z 00000001800361f0 f i libucrt:output.obj
 0001:00035298       ??$ensure_buffer_is_big_enough@_W@formatting_buffer@__crt_stdio_output@@QEAA_N_KAEAV__crt_cached_ptd_host@@@Z 0000000180036298 f i libucrt:output.obj
 0001:00035344       ??$is_wide_character_specifier@_W@__crt_stdio_output@@YA_N_K_WW4length_modifier@0@@Z 0000000180036344 f i libucrt:output.obj
 0001:00035384       ??$parse_integer@KV?$c_string_character_source@D@__crt_strtox@@$0A@@__crt_strtox@@YAKAEAV__crt_cached_ptd_host@@V?$c_string_character_source@D@0@H_N@Z 0000000180036384 f i libucrt:output.obj
 0001:00035634       ??$parse_integer@KV?$c_string_character_source@_W@__crt_strtox@@$0A@@__crt_strtox@@YAKAEAV__crt_cached_ptd_host@@V?$c_string_character_source@_W@0@H_N@Z 0000000180036634 f i libucrt:output.obj
 0001:00035d8c       ??$type_case_integer@$07@?$output_processor@DV?$string_output_adapter@D@__crt_stdio_output@@V?$standard_base@DV?$string_output_adapter@D@__crt_stdio_output@@@2@@__crt_stdio_output@@AEAA_N_N@Z 0000000180036d8c f i libucrt:output.obj
 0001:00035f74       ??$type_case_integer@$07@?$output_processor@_WV?$stream_output_adapter@_W@__crt_stdio_output@@V?$standard_base@_WV?$stream_output_adapter@_W@__crt_stdio_output@@@2@@__crt_stdio_output@@AEAA_N_N@Z 0000000180036f74 f i libucrt:output.obj
 0001:00035f74       ??$type_case_integer@$07@?$output_processor@_WV?$string_output_adapter@_W@__crt_stdio_output@@V?$standard_base@_WV?$string_output_adapter@_W@__crt_stdio_output@@@2@@__crt_stdio_output@@AEAA_N_N@Z 0000000180036f74 f i libucrt:output.obj
 0001:00036160       ??$type_case_integer@$09@?$output_processor@DV?$string_output_adapter@D@__crt_stdio_output@@V?$standard_base@DV?$string_output_adapter@D@__crt_stdio_output@@@2@@__crt_stdio_output@@AEAA_N_N@Z 0000000180037160 f i libucrt:output.obj
 0001:00036348       ??$type_case_integer@$09@?$output_processor@_WV?$string_output_adapter@_W@__crt_stdio_output@@V?$standard_base@_WV?$string_output_adapter@_W@__crt_stdio_output@@@2@@__crt_stdio_output@@AEAA_N_N@Z 0000000180037348 f i libucrt:output.obj
 0001:00036348       ??$type_case_integer@$09@?$output_processor@_WV?$stream_output_adapter@_W@__crt_stdio_output@@V?$standard_base@_WV?$stream_output_adapter@_W@__crt_stdio_output@@@2@@__crt_stdio_output@@AEAA_N_N@Z 0000000180037348 f i libucrt:output.obj
 0001:00036534       ??$type_case_integer@$0BA@@?$output_processor@DV?$string_output_adapter@D@__crt_stdio_output@@V?$standard_base@DV?$string_output_adapter@D@__crt_stdio_output@@@2@@__crt_stdio_output@@AEAA_N_N@Z 0000000180037534 f i libucrt:output.obj
 0001:0003671c       ??$type_case_integer@$0BA@@?$output_processor@_WV?$stream_output_adapter@_W@__crt_stdio_output@@V?$standard_base@_WV?$stream_output_adapter@_W@__crt_stdio_output@@@2@@__crt_stdio_output@@AEAA_N_N@Z 000000018003771c f i libucrt:output.obj
 0001:0003671c       ??$type_case_integer@$0BA@@?$output_processor@_WV?$string_output_adapter@_W@__crt_stdio_output@@V?$standard_base@_WV?$string_output_adapter@_W@__crt_stdio_output@@@2@@__crt_stdio_output@@AEAA_N_N@Z 000000018003771c f i libucrt:output.obj
 0001:00036908       ??$type_case_integer_parse_into_buffer@I$07@?$output_processor@DV?$string_output_adapter@D@__crt_stdio_output@@V?$standard_base@DV?$string_output_adapter@D@__crt_stdio_output@@@2@@__crt_stdio_output@@AEAAXI_N@Z 0000000180037908 f i libucrt:output.obj
 0001:00036984       ??$type_case_integer_parse_into_buffer@I$07@?$output_processor@_WV?$string_output_adapter@_W@__crt_stdio_output@@V?$standard_base@_WV?$string_output_adapter@_W@__crt_stdio_output@@@2@@__crt_stdio_output@@AEAAXI_N@Z 0000000180037984 f i libucrt:output.obj
 0001:00036984       ??$type_case_integer_parse_into_buffer@I$07@?$output_processor@_WV?$stream_output_adapter@_W@__crt_stdio_output@@V?$standard_base@_WV?$stream_output_adapter@_W@__crt_stdio_output@@@2@@__crt_stdio_output@@AEAAXI_N@Z 0000000180037984 f i libucrt:output.obj
 0001:00036a0c       ??$type_case_integer_parse_into_buffer@I$09@?$output_processor@DV?$string_output_adapter@D@__crt_stdio_output@@V?$standard_base@DV?$string_output_adapter@D@__crt_stdio_output@@@2@@__crt_stdio_output@@AEAAXI_N@Z 0000000180037a0c f i libucrt:output.obj
 0001:00036ab4       ??$type_case_integer_parse_into_buffer@I$09@?$output_processor@_WV?$string_output_adapter@_W@__crt_stdio_output@@V?$standard_base@_WV?$string_output_adapter@_W@__crt_stdio_output@@@2@@__crt_stdio_output@@AEAAXI_N@Z 0000000180037ab4 f i libucrt:output.obj
 0001:00036ab4       ??$type_case_integer_parse_into_buffer@I$09@?$output_processor@_WV?$stream_output_adapter@_W@__crt_stdio_output@@V?$standard_base@_WV?$stream_output_adapter@_W@__crt_stdio_output@@@2@@__crt_stdio_output@@AEAAXI_N@Z 0000000180037ab4 f i libucrt:output.obj
 0001:00036b6c       ??$type_case_integer_parse_into_buffer@I$0BA@@?$output_processor@DV?$string_output_adapter@D@__crt_stdio_output@@V?$standard_base@DV?$string_output_adapter@D@__crt_stdio_output@@@2@@__crt_stdio_output@@AEAAXI_N@Z 0000000180037b6c f i libucrt:output.obj
 0001:00036bf8       ??$type_case_integer_parse_into_buffer@I$0BA@@?$output_processor@_WV?$string_output_adapter@_W@__crt_stdio_output@@V?$standard_base@_WV?$string_output_adapter@_W@__crt_stdio_output@@@2@@__crt_stdio_output@@AEAAXI_N@Z 0000000180037bf8 f i libucrt:output.obj
 0001:00036bf8       ??$type_case_integer_parse_into_buffer@I$0BA@@?$output_processor@_WV?$stream_output_adapter@_W@__crt_stdio_output@@V?$standard_base@_WV?$stream_output_adapter@_W@__crt_stdio_output@@@2@@__crt_stdio_output@@AEAAXI_N@Z 0000000180037bf8 f i libucrt:output.obj
 0001:00036c9c       ??$type_case_integer_parse_into_buffer@_K$07@?$output_processor@DV?$string_output_adapter@D@__crt_stdio_output@@V?$standard_base@DV?$string_output_adapter@D@__crt_stdio_output@@@2@@__crt_stdio_output@@AEAAX_K_N@Z 0000000180037c9c f i libucrt:output.obj
 0001:00036d18       ??$type_case_integer_parse_into_buffer@_K$07@?$output_processor@_WV?$stream_output_adapter@_W@__crt_stdio_output@@V?$standard_base@_WV?$stream_output_adapter@_W@__crt_stdio_output@@@2@@__crt_stdio_output@@AEAAX_K_N@Z 0000000180037d18 f i libucrt:output.obj
 0001:00036d18       ??$type_case_integer_parse_into_buffer@_K$07@?$output_processor@_WV?$string_output_adapter@_W@__crt_stdio_output@@V?$standard_base@_WV?$string_output_adapter@_W@__crt_stdio_output@@@2@@__crt_stdio_output@@AEAAX_K_N@Z 0000000180037d18 f i libucrt:output.obj
 0001:00036da0       ??$type_case_integer_parse_into_buffer@_K$09@?$output_processor@DV?$string_output_adapter@D@__crt_stdio_output@@V?$standard_base@DV?$string_output_adapter@D@__crt_stdio_output@@@2@@__crt_stdio_output@@AEAAX_K_N@Z 0000000180037da0 f i libucrt:output.obj
 0001:00036e4c       ??$type_case_integer_parse_into_buffer@_K$09@?$output_processor@_WV?$string_output_adapter@_W@__crt_stdio_output@@V?$standard_base@_WV?$string_output_adapter@_W@__crt_stdio_output@@@2@@__crt_stdio_output@@AEAAX_K_N@Z 0000000180037e4c f i libucrt:output.obj
 0001:00036e4c       ??$type_case_integer_parse_into_buffer@_K$09@?$output_processor@_WV?$stream_output_adapter@_W@__crt_stdio_output@@V?$standard_base@_WV?$stream_output_adapter@_W@__crt_stdio_output@@@2@@__crt_stdio_output@@AEAAX_K_N@Z 0000000180037e4c f i libucrt:output.obj
 0001:00036f0c       ??$type_case_integer_parse_into_buffer@_K$0BA@@?$output_processor@DV?$string_output_adapter@D@__crt_stdio_output@@V?$standard_base@DV?$string_output_adapter@D@__crt_stdio_output@@@2@@__crt_stdio_output@@AEAAX_K_N@Z 0000000180037f0c f i libucrt:output.obj
 0001:00036f98       ??$type_case_integer_parse_into_buffer@_K$0BA@@?$output_processor@_WV?$stream_output_adapter@_W@__crt_stdio_output@@V?$standard_base@_WV?$stream_output_adapter@_W@__crt_stdio_output@@@2@@__crt_stdio_output@@AEAAX_K_N@Z 0000000180037f98 f i libucrt:output.obj
 0001:00036f98       ??$type_case_integer_parse_into_buffer@_K$0BA@@?$output_processor@_WV?$string_output_adapter@_W@__crt_stdio_output@@V?$standard_base@_WV?$string_output_adapter@_W@__crt_stdio_output@@@2@@__crt_stdio_output@@AEAAX_K_N@Z 0000000180037f98 f i libucrt:output.obj
 0001:00037158       ?crop_zeroes@__crt_stdio_output@@YAXPEADQEAU__crt_locale_pointers@@@Z 0000000180038158 f i libucrt:output.obj
 0001:000371c4       ?parse_int_from_format_string@?$output_processor@DV?$string_output_adapter@D@__crt_stdio_output@@V?$standard_base@DV?$string_output_adapter@D@__crt_stdio_output@@@2@@__crt_stdio_output@@AEAA_NQEAH@Z 00000001800381c4 f i libucrt:output.obj
 0001:00037254       ?parse_int_from_format_string@?$output_processor@_WV?$stream_output_adapter@_W@__crt_stdio_output@@V?$standard_base@_WV?$stream_output_adapter@_W@__crt_stdio_output@@@2@@__crt_stdio_output@@AEAA_NQEAH@Z 0000000180038254 f i libucrt:output.obj
 0001:00037254       ?parse_int_from_format_string@?$output_processor@_WV?$string_output_adapter@_W@__crt_stdio_output@@V?$standard_base@_WV?$string_output_adapter@_W@__crt_stdio_output@@@2@@__crt_stdio_output@@AEAA_NQEAH@Z 0000000180038254 f i libucrt:output.obj
 0001:000372e4       ?process@?$output_processor@DV?$string_output_adapter@D@__crt_stdio_output@@V?$standard_base@DV?$string_output_adapter@D@__crt_stdio_output@@@2@@__crt_stdio_output@@QEAAHXZ 00000001800382e4 f i libucrt:output.obj
 0001:00037668       ?process@?$output_processor@_WV?$stream_output_adapter@_W@__crt_stdio_output@@V?$standard_base@_WV?$stream_output_adapter@_W@__crt_stdio_output@@@2@@__crt_stdio_output@@QEAAHXZ 0000000180038668 f i libucrt:output.obj
 0001:00037924       ?process@?$output_processor@_WV?$string_output_adapter@_W@__crt_stdio_output@@V?$standard_base@_WV?$string_output_adapter@_W@__crt_stdio_output@@@2@@__crt_stdio_output@@QEAAHXZ 0000000180038924 f i libucrt:output.obj
 0001:00037be8       ?state_case_size@?$output_processor@DV?$string_output_adapter@D@__crt_stdio_output@@V?$standard_base@DV?$string_output_adapter@D@__crt_stdio_output@@@2@@__crt_stdio_output@@AEAA_NXZ 0000000180038be8 f i libucrt:output.obj
 0001:00037d6c       ?state_case_size@?$output_processor@_WV?$stream_output_adapter@_W@__crt_stdio_output@@V?$standard_base@_WV?$stream_output_adapter@_W@__crt_stdio_output@@@2@@__crt_stdio_output@@AEAA_NXZ 0000000180038d6c f i libucrt:output.obj
 0001:00037f18       ?state_case_size@?$output_processor@_WV?$string_output_adapter@_W@__crt_stdio_output@@V?$standard_base@_WV?$string_output_adapter@_W@__crt_stdio_output@@@2@@__crt_stdio_output@@AEAA_NXZ 0000000180038f18 f i libucrt:output.obj
 0001:000380c4       ?state_case_type@?$output_processor@DV?$string_output_adapter@D@__crt_stdio_output@@V?$standard_base@DV?$string_output_adapter@D@__crt_stdio_output@@@2@@__crt_stdio_output@@AEAA_NXZ 00000001800390c4 f i libucrt:output.obj
 0001:00038490       ?state_case_type@?$output_processor@_WV?$stream_output_adapter@_W@__crt_stdio_output@@V?$standard_base@_WV?$stream_output_adapter@_W@__crt_stdio_output@@@2@@__crt_stdio_output@@AEAA_NXZ 0000000180039490 f i libucrt:output.obj
 0001:00038960       ?state_case_type@?$output_processor@_WV?$string_output_adapter@_W@__crt_stdio_output@@V?$standard_base@_WV?$string_output_adapter@_W@__crt_stdio_output@@@2@@__crt_stdio_output@@AEAA_NXZ 0000000180039960 f i libucrt:output.obj
 0001:00038dbc       ?type_case_Z@?$output_processor@DV?$string_output_adapter@D@__crt_stdio_output@@V?$standard_base@DV?$string_output_adapter@D@__crt_stdio_output@@@2@@__crt_stdio_output@@AEAA_NXZ 0000000180039dbc f i libucrt:output.obj
 0001:00038e30       ?type_case_Z@?$output_processor@_WV?$stream_output_adapter@_W@__crt_stdio_output@@V?$standard_base@_WV?$stream_output_adapter@_W@__crt_stdio_output@@@2@@__crt_stdio_output@@AEAA_NXZ 0000000180039e30 f i libucrt:output.obj
 0001:00038e30       ?type_case_Z@?$output_processor@_WV?$string_output_adapter@_W@__crt_stdio_output@@V?$standard_base@_WV?$string_output_adapter@_W@__crt_stdio_output@@@2@@__crt_stdio_output@@AEAA_NXZ 0000000180039e30 f i libucrt:output.obj
 0001:00038eac       ?type_case_a@?$output_processor@DV?$string_output_adapter@D@__crt_stdio_output@@V?$standard_base@DV?$string_output_adapter@D@__crt_stdio_output@@@2@@__crt_stdio_output@@AEAA_NXZ 0000000180039eac f i libucrt:output.obj
 0001:000390f8       ?type_case_a@?$output_processor@_WV?$string_output_adapter@_W@__crt_stdio_output@@V?$standard_base@_WV?$string_output_adapter@_W@__crt_stdio_output@@@2@@__crt_stdio_output@@AEAA_NXZ 000000018003a0f8 f i libucrt:output.obj
 0001:000390f8       ?type_case_a@?$output_processor@_WV?$stream_output_adapter@_W@__crt_stdio_output@@V?$standard_base@_WV?$stream_output_adapter@_W@__crt_stdio_output@@@2@@__crt_stdio_output@@AEAA_NXZ 000000018003a0f8 f i libucrt:output.obj
 0001:00039358       ?type_case_c_tchar@?$output_processor@DV?$string_output_adapter@D@__crt_stdio_output@@V?$standard_base@DV?$string_output_adapter@D@__crt_stdio_output@@@2@@__crt_stdio_output@@AEAA_ND@Z 000000018003a358 f i libucrt:output.obj
 0001:0003941c       ?type_case_c_tchar@?$output_processor@_WV?$stream_output_adapter@_W@__crt_stdio_output@@V?$standard_base@_WV?$stream_output_adapter@_W@__crt_stdio_output@@@2@@__crt_stdio_output@@AEAA_N_W@Z 000000018003a41c f i libucrt:output.obj
 0001:0003941c       ?type_case_c_tchar@?$output_processor@_WV?$string_output_adapter@_W@__crt_stdio_output@@V?$standard_base@_WV?$string_output_adapter@_W@__crt_stdio_output@@@2@@__crt_stdio_output@@AEAA_N_W@Z 000000018003a41c f i libucrt:output.obj
 0001:000394e0       ?type_case_n@?$output_processor@_WV?$string_output_adapter@_W@__crt_stdio_output@@V?$standard_base@_WV?$string_output_adapter@_W@__crt_stdio_output@@@2@@__crt_stdio_output@@AEAA_NXZ 000000018003a4e0 f i libucrt:output.obj
 0001:000394e0       ?type_case_n@?$output_processor@_WV?$stream_output_adapter@_W@__crt_stdio_output@@V?$standard_base@_WV?$stream_output_adapter@_W@__crt_stdio_output@@@2@@__crt_stdio_output@@AEAA_NXZ 000000018003a4e0 f i libucrt:output.obj
 0001:000394e0       ?type_case_n@?$output_processor@DV?$string_output_adapter@D@__crt_stdio_output@@V?$standard_base@DV?$string_output_adapter@D@__crt_stdio_output@@@2@@__crt_stdio_output@@AEAA_NXZ 000000018003a4e0 f i libucrt:output.obj
 0001:00039594       ?type_case_s@?$output_processor@DV?$string_output_adapter@D@__crt_stdio_output@@V?$standard_base@DV?$string_output_adapter@D@__crt_stdio_output@@@2@@__crt_stdio_output@@AEAA_NXZ 000000018003a594 f i libucrt:output.obj
 0001:00039628       ?type_case_s@?$output_processor@_WV?$string_output_adapter@_W@__crt_stdio_output@@V?$standard_base@_WV?$string_output_adapter@_W@__crt_stdio_output@@@2@@__crt_stdio_output@@AEAA_NXZ 000000018003a628 f i libucrt:output.obj
 0001:00039628       ?type_case_s@?$output_processor@_WV?$stream_output_adapter@_W@__crt_stdio_output@@V?$standard_base@_WV?$stream_output_adapter@_W@__crt_stdio_output@@@2@@__crt_stdio_output@@AEAA_NXZ 000000018003a628 f i libucrt:output.obj
 0001:000396c0       ?type_case_s_compute_narrow_string_length@?$output_processor@_WV?$stream_output_adapter@_W@__crt_stdio_output@@V?$standard_base@_WV?$stream_output_adapter@_W@__crt_stdio_output@@@2@@__crt_stdio_output@@AEAAHH_W@Z 000000018003a6c0 f i libucrt:output.obj
 0001:000396c0       ?type_case_s_compute_narrow_string_length@?$output_processor@_WV?$string_output_adapter@_W@__crt_stdio_output@@V?$standard_base@_WV?$string_output_adapter@_W@__crt_stdio_output@@@2@@__crt_stdio_output@@AEAAHH_W@Z 000000018003a6c0 f i libucrt:output.obj
 0001:00039740       ?update_locale_slow@__crt_cached_ptd_host@@AEAAXXZ 000000018003a740 f i libucrt:output.obj
 0001:000397b8       ?write_string@?$string_output_adapter@D@__crt_stdio_output@@QEBAXQEBDHQEAHAEAV__crt_cached_ptd_host@@@Z 000000018003a7b8 f i libucrt:output.obj
 0001:0003985c       ?write_string@?$string_output_adapter@_W@__crt_stdio_output@@QEBAXQEB_WHQEAHAEAV__crt_cached_ptd_host@@@Z 000000018003a85c f i libucrt:output.obj
 0001:00039904       ?write_string_impl@?$output_adapter_common@_WV?$stream_output_adapter@_W@__crt_stdio_output@@@__crt_stdio_output@@IEBAXQEB_WHQEAHAEAV__crt_cached_ptd_host@@@Z 000000018003a904 f i libucrt:output.obj
 0001:000399e0       __stdio_common_vfwprintf   000000018003a9e0 f   libucrt:output.obj
 0001:00039b04       __stdio_common_vsprintf    000000018003ab04 f   libucrt:output.obj
 0001:00039d58       __stdio_common_vswprintf   000000018003ad58 f   libucrt:output.obj
 0001:0003a4c4       _ftelli64_nolock_internal  000000018003b4c4 f   libucrt:ftell.obj
 0001:0003a4cc       ftell                      000000018003b4cc f   libucrt:ftell.obj
 0001:0003a620       fopen                      000000018003b620 f   libucrt:fopen.obj
 0001:0003a74c       fclose                     000000018003b74c f   libucrt:fclose.obj
 0001:0003aa34       fseek                      000000018003ba34 f   libucrt:fseek.obj
 0001:0003abb8       rewind                     000000018003bbb8 f   libucrt:rewind.obj
 0001:0003ac44       __acrt_errno_from_os_error 000000018003bc44 f   libucrt:errno.obj
 0001:0003ac8c       __acrt_errno_map_os_error  000000018003bc8c f   libucrt:errno.obj
 0001:0003acd4       __acrt_errno_map_os_error_ptd 000000018003bcd4 f   libucrt:errno.obj
 0001:0003acf8       __doserrno                 000000018003bcf8 f   libucrt:errno.obj
 0001:0003ad18       _errno                     000000018003bd18 f   libucrt:errno.obj
 0001:0003ad38       _fread_nolock_s            000000018003bd38 f   libucrt:fread.obj
 0001:0003af98       fread                      000000018003bf98 f   libucrt:fread.obj
 0001:0003afb8       fread_s                    000000018003bfb8 f   libucrt:fread.obj
 0001:0003b4e4       _fstat64i32                000000018003c4e4 f   libucrt:stat.obj
 0001:0003b5bc       __acrt_initialize_new_handler 000000018003c5bc f   libucrt:new_handler.obj
 0001:0003b5c4       _callnewh                  000000018003c5c4 f   libucrt:new_handler.obj
 0001:0003b600       _query_new_handler         000000018003c600 f   libucrt:new_handler.obj
 0001:0003b634       _seh_filter_dll            000000018003c634 f   libucrt:exception_filter.obj
 0001:0003b648       _seh_filter_exe            000000018003c648 f   libucrt:exception_filter.obj
 0001:0003ba6c       __acrt_initialize_thread_local_exit_callback 000000018003ca6c f   libucrt:exit.obj
 0001:0003ba74       _cexit                     000000018003ca74 f   libucrt:exit.obj
 0001:0003ba84       _exit                      000000018003ca84 f   libucrt:exit.obj
 0001:0003ba90       _is_c_termination_complete 000000018003ca90 f   libucrt:exit.obj
 0001:0003bc58       __acrt_allocate_buffer_for_argv 000000018003cc58 f   libucrt:argv_parsing.obj
 0001:0003bcb8       _configure_narrow_argv     000000018003ccb8 f   libucrt:argv_parsing.obj
 0001:0003c288       __dcrt_get_or_create_wide_environment_nolock 000000018003d288 f   libucrt:environment_initialization.obj
 0001:0003c2c4       __dcrt_uninitialize_environments_nolock 000000018003d2c4 f   libucrt:environment_initialization.obj
 0001:0003c308       _initialize_narrow_environment 000000018003d308 f   libucrt:environment_initialization.obj
 0001:0003c658       _crt_atexit                000000018003d658 f   libucrt:onexit.obj
 0001:0003c668       _execute_onexit_table      000000018003d668 f   libucrt:onexit.obj
 0001:0003c6ac       _initialize_onexit_table   000000018003d6ac f   libucrt:onexit.obj
 0001:0003c6d4       _register_onexit_function  000000018003d6d4 f   libucrt:onexit.obj
 0001:0003c778       __acrt_uninitialize_command_line 000000018003d778 f   libucrt:argv_data.obj
 0001:0003c84c       __acrt_initialize          000000018003d84c f   libucrt:initialization.obj
 0001:0003c860       __acrt_thread_attach       000000018003d860 f   libucrt:initialization.obj
 0001:0003c874       __acrt_thread_detach       000000018003d874 f   libucrt:initialization.obj
 0001:0003c884       __acrt_uninitialize        000000018003d884 f   libucrt:initialization.obj
 0001:0003c8bc       __acrt_uninitialize_critical 000000018003d8bc f   libucrt:initialization.obj
 0001:0003c8cc       terminate                  000000018003d8cc f   libucrt:terminate.obj
 0001:0003c8f8       _initterm                  000000018003d8f8 f   libucrt:initterm.obj
 0001:0003c93c       _initterm_e                000000018003d93c f   libucrt:initterm.obj
 0001:0003c984       strdup                     000000018003d984 f   libucrt:strdup.obj
 0001:0003c984       _strdup                    000000018003d984 f   libucrt:strdup.obj
 0001:0003c9fc       _fileno                    000000018003d9fc f   libucrt:fileno.obj
 0001:0003c9fc       fileno                     000000018003d9fc f   libucrt:fileno.obj
 0001:0003ca24       __acrt_initialize_locks    000000018003da24 f   libucrt:locks.obj
 0001:0003ca6c       __acrt_lock                000000018003da6c f   libucrt:locks.obj
 0001:0003ca88       __acrt_uninitialize_locks  000000018003da88 f   libucrt:locks.obj
 0001:0003cac0       __acrt_unlock              000000018003dac0 f   libucrt:locks.obj
 0001:0003cadc       _lock_locales              000000018003dadc f   libucrt:locks.obj
 0001:0003caf8       _unlock_locales            000000018003daf8 f   libucrt:locks.obj
 0001:0003cde4       setlocale                  000000018003dde4 f   libucrt:setlocale.obj
 0001:0003ce30       __pctype_func              000000018003de30 f   libucrt:ctype.obj
 0001:0003ce60       islower                    000000018003de60 f   libucrt:_ctype.obj
 0001:0003cf10       isupper                    000000018003df10 f   libucrt:_ctype.obj
 0001:0003cfb8       ___lc_codepage_func        000000018003dfb8 f   libucrt:initctype.obj
 0001:0003cfe8       ___lc_locale_name_func     000000018003dfe8 f   libucrt:initctype.obj
 0001:0003d01c       __acrt_locale_initialize_ctype 000000018003e01c f   libucrt:initctype.obj
 0001:0003d680       calloc                     000000018003e680 f   libucrt:calloc.obj
 0001:0003d688       _wcsdup                    000000018003e688 f   libucrt:wcsdup.obj
 0001:0003d710       ?divide@__crt_strtox@@YA_KAEAUbig_integer@1@AEBU21@@Z 000000018003e710 f i libucrt:strtod.obj
 0001:0003dc30       pow                        000000018003ec30 f   libucrt:pow.obj
 0001:0003f2d0       powf                       00000001800402d0 f   libucrt:powf.obj
 0001:00040198       __strncnt                  0000000180041198 f   libucrt:strncnt.obj
 0001:000417f8       _Wcsftime_l                00000001800427f8 f   libucrt:wcsftime.obj
 0001:00041984       strnlen                    0000000180042984 f   libucrt:strnlen.obj
 0001:00041ad4       wcsnlen                    0000000180042ad4 f   libucrt:strnlen.obj
 0001:00041cac       strcpy_s                   0000000180042cac f   libucrt:strcpy_s.obj
 0001:00041d0c       ??$parse_integer@KV?$c_string_character_source@_W@__crt_strtox@@$00@__crt_strtox@@YAKAEAV__crt_cached_ptd_host@@V?$c_string_character_source@_W@0@H_N@Z 0000000180042d0c f i libucrt:atox.obj
 0001:00042494       _wtol                      0000000180043494 f   libucrt:atox.obj
 0001:00042560       strncmp                    0000000180043560 f   libucrt:strncmp.obj
 0001:000425e0       wcsncmp                    00000001800435e0 f   libucrt:wcsncmp.obj
 0001:00042984       __acrt_freeptd             0000000180043984 f   libucrt:per_thread_data.obj
 0001:000429c8       __acrt_getptd              00000001800439c8 f   libucrt:per_thread_data.obj
 0001:00042a9c       __acrt_getptd_head         0000000180043a9c f   libucrt:per_thread_data.obj
 0001:00042b40       __acrt_getptd_noexit       0000000180043b40 f   libucrt:per_thread_data.obj
 0001:00042c08       __acrt_getptd_noexit_explicit 0000000180043c08 f   libucrt:per_thread_data.obj
 0001:00042cc8       __acrt_initialize_ptd      0000000180043cc8 f   libucrt:per_thread_data.obj
 0001:00042d04       __acrt_uninitialize_ptd    0000000180043d04 f   libucrt:per_thread_data.obj
 0001:00042d28       __acrt_update_locale_info  0000000180043d28 f   libucrt:locale_update.obj
 0001:00042d5c       __acrt_update_locale_info_explicit 0000000180043d5c f   libucrt:locale_update.obj
 0001:00042d94       __acrt_update_multibyte_info 0000000180043d94 f   libucrt:locale_update.obj
 0001:00042dc8       __acrt_update_multibyte_info_explicit 0000000180043dc8 f   libucrt:locale_update.obj
 0001:00043068       ?commit_locale_name@_expandlocale_locale_name_cache@@QEAAXQEB_W_K@Z 0000000180044068 f i libucrt:wsetlocale.obj
 0001:000430e0       __acrt_copy_locale_name    00000001800440e0 f   libucrt:wsetlocale.obj
 0001:00043164       __acrt_set_locale_changed  0000000180044164 f   libucrt:wsetlocale.obj
 0001:00043170       __acrt_uninitialize_locale 0000000180044170 f   libucrt:wsetlocale.obj
 0001:000431a0       __lc_lctowcs               00000001800441a0 f   libucrt:wsetlocale.obj
 0001:00043244       __lc_wcstolc               0000000180044244 f   libucrt:wsetlocale.obj
 0001:000438ec       _wcscats                   00000001800448ec f   libucrt:wsetlocale.obj
 0001:00043954       _wsetlocale                0000000180044954 f   libucrt:wsetlocale.obj
 0001:00044690       _query_app_type            0000000180045690 f   libucrt:report_runtime_error.obj
 0001:000447d8       _itow_s                    00000001800457d8 f   libucrt:xtoa.obj
 0001:000447f8       _set_error_mode            00000001800457f8 f   libucrt:set_error_mode.obj
 0001:00044838       wcscat_s                   0000000180045838 f   libucrt:wcscat_s.obj
 0001:000448bc       wcscpy_s                   00000001800458bc f   libucrt:wcscpy_s.obj
 0001:00044924       wcsncat_s                  0000000180045924 f   libucrt:wcsncat_s.obj
 0001:00044a28       __acrt_GetModuleFileNameA  0000000180045a28 f   libucrt:getmodulefilenamea.obj
 0001:00044b4c       __acrt_show_wide_message_box 0000000180045b4c f   libucrt:crtmbox.obj
 0001:00044e0c       __acrt_stdio_flush_nolock  0000000180045e0c f   libucrt:fflush.obj
 0001:00044e98       _fflush_nolock             0000000180045e98 f   libucrt:fflush.obj
 0001:00044f6c       _flushall                  0000000180045f6c f   libucrt:fflush.obj
 0001:00044f74       fflush                     0000000180045f74 f   libucrt:fflush.obj
 0001:00045104       setvbuf                    0000000180046104 f   libucrt:setvbuf.obj
 0001:00045284       __acrt_get_sigabrt_handler 0000000180046284 f   libucrt:signal.obj
 0001:000452b4       __acrt_initialize_signal_handlers 00000001800462b4 f   libucrt:signal.obj
 0001:000452d4       raise                      00000001800462d4 f   libucrt:signal.obj
 0001:00045874       __acrt_LCMapStringA        0000000180046874 f   libucrt:lcmapstringa.obj
 0001:0004590c       _free_base                 000000018004690c f   libucrt:free_base.obj
 0001:00045948       _malloc_base               0000000180046948 f   libucrt:malloc_base.obj
 0001:000459a8       __acrt_MultiByteToWideChar 00000001800469a8 f   libucrt:multibytetowidechar.obj
 0001:00045a04       __acrt_WideCharToMultiByte 0000000180046a04 f   libucrt:widechartomultibyte.obj
 0001:00045ab4       _d_int                     0000000180046ab4 f   libucrt:_test.obj
 0001:00045bcc       _dtest                     0000000180046bcc f   libucrt:_test.obj
 0001:00045c30       _calloc_base               0000000180046c30 f   libucrt:calloc_base.obj
 0001:00045f18       __acrt_AppPolicyGetProcessTerminationMethodInternal 0000000180046f18 f   libucrt:winapi_thunks.obj
 0001:00045f70       __acrt_AppPolicyGetShowDeveloperDiagnosticInternal 0000000180046f70 f   libucrt:winapi_thunks.obj
 0001:00045fc8       __acrt_AppPolicyGetWindowingModelInternal 0000000180046fc8 f   libucrt:winapi_thunks.obj
 0001:00046020       __acrt_AreFileApisANSI     0000000180047020 f   libucrt:winapi_thunks.obj
 0001:00046064       __acrt_CompareStringEx     0000000180047064 f   libucrt:winapi_thunks.obj
 0001:00046150       __acrt_EnumSystemLocalesEx 0000000180047150 f   libucrt:winapi_thunks.obj
 0001:000461f0       __acrt_FlsAlloc            00000001800471f0 f   libucrt:winapi_thunks.obj
 0001:000461f8       __acrt_FlsFree             00000001800471f8 f   libucrt:winapi_thunks.obj
 0001:00046200       __acrt_FlsGetValue         0000000180047200 f   libucrt:winapi_thunks.obj
 0001:00046208       __acrt_FlsSetValue         0000000180047208 f   libucrt:winapi_thunks.obj
 0001:00046210       __acrt_GetDateFormatEx     0000000180047210 f   libucrt:winapi_thunks.obj
 0001:000462d0       __acrt_GetLocaleInfoEx     00000001800472d0 f   libucrt:winapi_thunks.obj
 0001:00046360       __acrt_GetTimeFormatEx     0000000180047360 f   libucrt:winapi_thunks.obj
 0001:00046414       __acrt_GetUserDefaultLocaleName 0000000180047414 f   libucrt:winapi_thunks.obj
 0001:00046480       __acrt_InitializeCriticalSectionEx 0000000180047480 f   libucrt:winapi_thunks.obj
 0001:000464f0       __acrt_IsValidLocaleName   00000001800474f0 f   libucrt:winapi_thunks.obj
 0001:00046554       __acrt_LCIDToLocaleName    0000000180047554 f   libucrt:winapi_thunks.obj
 0001:000465d8       __acrt_LCMapStringEx       00000001800475d8 f   libucrt:winapi_thunks.obj
 0001:000466c4       __acrt_LocaleNameToLCID    00000001800476c4 f   libucrt:winapi_thunks.obj
 0001:00046724       __acrt_MessageBoxW         0000000180047724 f   libucrt:winapi_thunks.obj
 0001:000467a0       __acrt_can_show_message_box 00000001800477a0 f   libucrt:winapi_thunks.obj
 0001:00046810       __acrt_can_use_vista_locale_apis 0000000180047810 f   libucrt:winapi_thunks.obj
 0001:00046840       __acrt_eagerly_load_locale_apis 0000000180047840 f   libucrt:winapi_thunks.obj
 0001:0004699c       __acrt_get_parent_window   000000018004799c f   libucrt:winapi_thunks.obj
 0001:00046a28       __acrt_initialize_winapi_thunks 0000000180047a28 f   libucrt:winapi_thunks.obj
 0001:00046a5c       __acrt_is_interactive      0000000180047a5c f   libucrt:winapi_thunks.obj
 0001:00046b3c       __acrt_uninitialize_winapi_thunks 0000000180047b3c f   libucrt:winapi_thunks.obj
 0001:00046b80       _fcloseall                 0000000180047b80 f   libucrt:closeall.obj
 0001:00046c34       __acrt_stdio_free_buffer_nolock 0000000180047c34 f   libucrt:_freebuf.obj
 0001:00046e6c       __acrt_initialize_lowio    0000000180047e6c f   libucrt:ioinit.obj
 0001:00046ea8       __acrt_uninitialize_lowio  0000000180047ea8 f   libucrt:ioinit.obj
 0001:00047a18       __acrt_fp_format           0000000180048a18 f   libucrt:cvt.obj
 0001:00047d00       _wctomb_internal           0000000180048d00 f   libucrt:wctomb.obj
 0001:00047eb0       _mbtowc_internal           0000000180048eb0 f   libucrt:mbtowc.obj
 0001:00048028       _get_printf_count_output   0000000180049028 f   libucrt:printf_count_output.obj
 0001:00048040       _fputwc_nolock_internal    0000000180049040 f   libucrt:fputwc.obj
 0001:000481cc       _fputc_nolock_internal     00000001800491cc f   libucrt:fputc.obj
 0001:000481e4       __acrt_should_use_temporary_buffer 00000001800491e4 f   libucrt:_sftbuf.obj
 0001:0004822c       __acrt_stdio_begin_temporary_buffering_nolock 000000018004922c f   libucrt:_sftbuf.obj
 0001:000482f4       __acrt_stdio_end_temporary_buffering_nolock 00000001800492f4 f   libucrt:_sftbuf.obj
 0001:00048728       _lseek_internal            0000000180049728 f   libucrt:lseek.obj
 0001:00048730       _lseeki64                  0000000180049730 f   libucrt:lseek.obj
 0001:000487cc       _lseeki64_internal         00000001800497cc f   libucrt:lseek.obj
 0001:000487d4       _lseeki64_nolock           00000001800497d4 f   libucrt:lseek.obj
 0001:00048870       _lseeki64_nolock_internal  0000000180049870 f   libucrt:lseek.obj
 0001:00048d24       _read                      0000000180049d24 f   libucrt:read.obj
 0001:00048e40       _read_nolock               0000000180049e40 f   libucrt:read.obj
 0001:0004928c       ?__acrt_stdio_allocate_stream@@YA?AV__crt_stdio_stream@@XZ 000000018004a28c f   libucrt:stream.obj
 0001:000492e4       ?__acrt_stdio_free_stream@@YAXV__crt_stdio_stream@@@Z 000000018004a2e4 f   libucrt:stream.obj
 0001:000493ec       ??$__acrt_stdio_parse_mode@D@@YA?AU__acrt_stdio_stream_mode@@QEBD@Z 000000018004a3ec f i libucrt:openfile.obj
 0001:000496b0       _openfile                  000000018004a6b0 f   libucrt:openfile.obj
 0001:000497c4       _close_internal            000000018004a7c4 f   libucrt:close.obj
 0001:00049888       _close_nolock              000000018004a888 f   libucrt:close.obj
 0001:00049920       _close_nolock_internal     000000018004a920 f   libucrt:close.obj
 0001:000499f0       __acrt_stdio_refill_and_read_narrow_nolock 000000018004a9f0 f   libucrt:_filbuf.obj
 0001:00049b5c       _getdrive                  000000018004ab5c f   libucrt:drive.obj
 0001:00049c54       wcspbrk                    000000018004ac54 f   libucrt:wcspbrk.obj
 0001:00049c88       __ascii_wcsicmp            000000018004ac88 f   libucrt:wcsicmp.obj
 0001:00049cc8       _wcsicmp                   000000018004acc8 f   libucrt:wcsicmp.obj
 0001:00049d10       _wcsicmp_l                 000000018004ad10 f   libucrt:wcsicmp.obj
 0001:00049e38       __acrt_lowio_create_handle_array 000000018004ae38 f   libucrt:osfinfo.obj
 0001:00049ee0       __acrt_lowio_destroy_handle_array 000000018004aee0 f   libucrt:osfinfo.obj
 0001:00049f30       __acrt_lowio_ensure_fh_exists 000000018004af30 f   libucrt:osfinfo.obj
 0001:00049fd8       __acrt_lowio_lock_fh       000000018004afd8 f   libucrt:osfinfo.obj
 0001:0004a000       __acrt_lowio_set_os_handle 000000018004b000 f   libucrt:osfinfo.obj
 0001:0004a0c0       __acrt_lowio_unlock_fh     000000018004b0c0 f   libucrt:osfinfo.obj
 0001:0004a0e8       _alloc_osfhnd              000000018004b0e8 f   libucrt:osfinfo.obj
 0001:0004a228       _free_osfhnd               000000018004b228 f   libucrt:osfinfo.obj
 0001:0004a2e4       _get_osfhandle             000000018004b2e4 f   libucrt:osfinfo.obj
 0001:0004a588       __loctotime64_t            000000018004b588 f   libucrt:loctotime.obj
 0001:0004a590       __acrt_get_developer_information_policy 000000018004b590 f   libucrt:win_policies.obj
 0001:0004a5e4       __acrt_get_process_end_policy 000000018004b5e4 f   libucrt:win_policies.obj
 0001:0004a620       __acrt_get_windowing_model_policy 000000018004b620 f   libucrt:win_policies.obj
 0001:0004a6a0       ??$__acrt_convert_wcs_mbs_cp@_WDV<lambda_d8593a27d1aa8c02be35c86a17d324c4>@@U__crt_win32_buffer_internal_dynamic_resizing@@@@YAHQEB_WAEAV?$__crt_win32_buffer@DU__crt_win32_buffer_internal_dynamic_resizing@@@@AEBV<lambda_d8593a27d1aa8c02be35c86a17d324c4>@@I@Z 000000018004b6a0 f i libucrt:argv_wildcards.obj
 0001:0004af48       __acrt_expand_narrow_argv_wildcards 000000018004bf48 f   libucrt:argv_wildcards.obj
 0001:0004b748       __acrt_initialize_multibyte 000000018004c748 f   libucrt:mbctype.obj
 0001:0004b7a8       __acrt_update_thread_multibyte_data 000000018004c7a8 f   libucrt:mbctype.obj
 0001:0004b7c4       _setmbcp_nolock            000000018004c7c4 f   libucrt:mbctype.obj
 0001:0004baf8       _ismbblead                 000000018004caf8 f   libucrt:ismbbyte.obj
 0001:0004bb0c       __acrt_initialize_command_line 000000018004cb0c f   libucrt:argv_data.obj
 0001:0004bb34       __dcrt_get_narrow_environment_from_os 000000018004cb34 f   libucrt:get_environment_from_os.obj
 0001:0004bc44       __dcrt_get_wide_environment_from_os 000000018004cc44 f   libucrt:get_environment_from_os.obj
 0001:0004c134       __dcrt_set_variable_in_wide_environment_nolock 000000018004d134 f   libucrt:setenv.obj
 0001:0004c13c       _recalloc_base             000000018004d13c f   libucrt:recalloc.obj
 0001:0004c1d4       __acrt_initialize_heap     000000018004d1d4 f   libucrt:heap_handle.obj
 0001:0004c1f0       __acrt_uninitialize_heap   000000018004d1f0 f   libucrt:heap_handle.obj
 0001:0004c1fc       __acrt_execute_initializers 000000018004d1fc f   libucrt:shared_initialization.obj
 0001:0004c290       __acrt_execute_uninitializers 000000018004d290 f   libucrt:shared_initialization.obj
 0001:0004c2d8       __acrt_has_user_matherr    000000018004d2d8 f   libucrt:matherr.obj
 0001:0004c2f8       __acrt_initialize_user_matherr 000000018004d2f8 f   libucrt:matherr.obj
 0001:0004c300       __acrt_invoke_user_matherr 000000018004d300 f   libucrt:matherr.obj
 0001:0004c658       mbstowcs_s                 000000018004d658 f   libucrt:mbstowcs.obj
 0001:0004cb60       _wcstombs_s_l              000000018004db60 f   libucrt:wcstombs.obj
 0001:0004cc18       _isctype_l                 000000018004dc18 f   libucrt:isctype.obj
 0001:0004cea4       __acrt_GetLocaleInfoA      000000018004dea4 f   libucrt:getlocaleinfoa.obj
 0001:0004d06c       __acrt_GetStringTypeA      000000018004e06c f   libucrt:getstringtypea.obj
 0001:0004d208       _dclass                    000000018004e208 f   libucrt:nan.obj
 0001:0004d224       _raise_exc                 000000018004e224 f   libucrt:fpexcept.obj
 0001:0004d24c       _raise_exc_ex              000000018004e24c f   libucrt:fpexcept.obj
 0001:0004d55c       _raise_excf                000000018004e55c f   libucrt:fpexcept.obj
 0001:0004d588       _set_errno_from_matherr    000000018004e588 f   libucrt:fpexcept.obj
 0001:0004d5b8       _clrfp                     000000018004e5b8 f   libucrt:fpctrl.obj
 0001:0004d5d8       _ctrlfp                    000000018004e5d8 f   libucrt:fpctrl.obj
 0001:0004d654       _set_statfp                000000018004e654 f   libucrt:fpctrl.obj
 0001:0004d674       _statfp                    000000018004e674 f   libucrt:fpctrl.obj
 0001:0004d688       _realloc_base              000000018004e688 f   libucrt:realloc_base.obj
 0001:0004d704       iswctype                   000000018004e704 f   libucrt:iswctype.obj
 0001:0004d770       fegetround                 000000018004e770 f   libucrt:fegetround.obj
 0001:0004d790       __acrt_initialize_fma3     000000018004e790 f   libucrt:fma3_available.obj
 0001:0004d800       _pow_special               000000018004e800 f   libucrt:pow_special.obj
 0001:0004d924       _powf_special              000000018004e924 f   libucrt:pow_special.obj
 0001:0004da70       __acrt_initialize_timeset  000000018004ea70 f   libucrt:timeset.obj
 0001:0004dac0       __daylight                 000000018004eac0 f   libucrt:timeset.obj
 0001:0004dac8       __dstbias                  000000018004eac8 f   libucrt:timeset.obj
 0001:0004dad0       __timezone                 000000018004ead0 f   libucrt:timeset.obj
 0001:0004dad8       __tzname                   000000018004ead8 f   libucrt:timeset.obj
 0001:0004dae0       __wide_tzname              000000018004eae0 f   libucrt:timeset.obj
 0001:0004dae8       _get_daylight              000000018004eae8 f   libucrt:timeset.obj
 0001:0004db18       _get_dstbias               000000018004eb18 f   libucrt:timeset.obj
 0001:0004db48       _get_timezone              000000018004eb48 f   libucrt:timeset.obj
 0001:0004e6dc       __tzset                    000000018004f6dc f   libucrt:tzset.obj
 0001:0004e71c       _isindst                   000000018004f71c f   libucrt:tzset.obj
 0001:0004e74c       __acrt_add_locale_ref      000000018004f74c f   libucrt:locale_refcounting.obj
 0001:0004e7d8       __acrt_free_locale         000000018004f7d8 f   libucrt:locale_refcounting.obj
 0001:0004e950       __acrt_locale_add_lc_time_reference 000000018004f950 f   libucrt:locale_refcounting.obj
 0001:0004e978       __acrt_locale_free_lc_time_if_unreferenced 000000018004f978 f   libucrt:locale_refcounting.obj
 0001:0004e9b0       __acrt_locale_release_lc_time_reference 000000018004f9b0 f   libucrt:locale_refcounting.obj
 0001:0004e9d8       __acrt_release_locale_ref  000000018004f9d8 f   libucrt:locale_refcounting.obj
 0001:0004ea80       __acrt_update_thread_locale_data 000000018004fa80 f   libucrt:locale_refcounting.obj
 0001:0004eaf0       _updatetlocinfoEx_nolock   000000018004faf0 f   libucrt:locale_refcounting.obj
 0001:0004eb58       __acrt_locale_free_monetary 000000018004fb58 f   libucrt:initmon.obj
 0001:0004ec64       __acrt_locale_initialize_monetary 000000018004fc64 f   libucrt:initmon.obj
 0001:0004f198       __acrt_locale_free_numeric 0000000180050198 f   libucrt:initnum.obj
 0001:0004f204       __acrt_locale_initialize_numeric 0000000180050204 f   libucrt:initnum.obj
 0001:0004f85c       __acrt_locale_free_time    000000018005085c f   libucrt:inittime.obj
 0001:0004f964       __acrt_locale_initialize_time 0000000180050964 f   libucrt:inittime.obj
 0001:0004fa00       wcsncpy_s                  0000000180050a00 f   libucrt:wcsncpy_s.obj
 0001:0004fafc       wcscspn                    0000000180050afc f   libucrt:wcscspn.obj
 0001:000502f0       __acrt_get_qualified_locale 00000001800512f0 f   libucrt:get_qualified_locale.obj
 0001:00050d24       __acrt_get_qualified_locale_downlevel 0000000180051d24 f   libucrt:getqloc_downlevel.obj
 0001:00051030       _commit                    0000000180052030 f   libucrt:commit.obj
 0001:000518e0       _write                     00000001800528e0 f   libucrt:write.obj
 0001:00051978       _write_internal            0000000180052978 f   libucrt:write.obj
 0001:00051aa0       _write_nolock              0000000180052aa0 f   libucrt:write.obj
 0001:00051db0       _query_new_mode            0000000180052db0 f   libucrt:new_mode.obj
 0001:00051db8       __acrt_fenv_get_common_round_control 0000000180052db8 f   libucrt:_fenvutils.obj
 0001:00051dc4       __acrt_fenv_get_control    0000000180052dc4 f   libucrt:_fenvutils.obj
 0001:00051ea8       __acrt_fenv_get_status     0000000180052ea8 f   libucrt:_fenvutils.obj
 0001:00051f00       __acrt_fenv_set_control    0000000180052f00 f   libucrt:_fenvutils.obj
 0001:0005203c       __acrt_fenv_set_status     000000018005303c f   libucrt:_fenvutils.obj
 0001:000520b0       __acrt_DownlevelLCIDToLocaleName 00000001800530b0 f   libucrt:lcidtoname_downlevel.obj
 0001:00052198       __acrt_DownlevelLocaleNameToLCID 0000000180053198 f   libucrt:lcidtoname_downlevel.obj
 0001:00052240       __acrt_fp_strflt_to_string 0000000180053240 f   libucrt:_fptostr.obj
 0001:000523c4       __acrt_fltout              00000001800533c4 f   libucrt:cfout.obj
 0001:00053604       ?__c32rtomb_utf8@__crt_mbstring@@YA_KPEAD_UPEAU_Mbstatet@@AEAV__crt_cached_ptd_host@@@Z 0000000180054604 f   libucrt:c32rtomb.obj
 0001:000536a8       ?__mbrtowc_utf8@__crt_mbstring@@YA_KPEA_WPEBD_KPEAU_Mbstatet@@AEAV__crt_cached_ptd_host@@@Z 00000001800546a8 f   libucrt:mbrtowc.obj
 0001:000536ec       ?__mbsrtowcs_utf8@__crt_mbstring@@YA_KPEA_WPEAPEBD_KPEAU_Mbstatet@@AEAV__crt_cached_ptd_host@@@Z 00000001800546ec f   libucrt:mbrtowc.obj
 0001:00053b00       __acrt_stdio_flush_and_write_narrow_nolock 0000000180054b00 f   libucrt:_flsbuf.obj
 0001:00053bc4       __acrt_stdio_flush_and_write_wide_nolock 0000000180054bc4 f   libucrt:_flsbuf.obj
 0001:00053c88       _isatty                    0000000180054c88 f   libucrt:isatty.obj
 0001:00053ce8       __ascii_wcsnicmp           0000000180054ce8 f   libucrt:wcsnicmp.obj
 0001:00053d34       _wcsnicmp                  0000000180054d34 f   libucrt:wcsnicmp.obj
 0001:00053d7c       _wcsnicmp_l                0000000180054d7c f   libucrt:wcsnicmp.obj
 0001:00053ecc       __ascii_strnicmp           0000000180054ecc f   libucrt:strnicmp.obj
 0001:00053f18       _strnicmp                  0000000180054f18 f   libucrt:strnicmp.obj
 0001:00053f68       _strnicmp_l                0000000180054f68 f   libucrt:strnicmp.obj
 0001:00054624       _sopen_nolock              0000000180055624 f   libucrt:open.obj
 0001:00054740       _sopen_s                   0000000180055740 f   libucrt:open.obj
 0001:00054774       _wsopen_nolock             0000000180055774 f   libucrt:open.obj
 0001:00054b64       __acrt_stdio_allocate_buffer_nolock 0000000180055b64 f   libucrt:_getbuf.obj
 0001:00054bd0       _towlower_l                0000000180055bd0 f   libucrt:towlower.obj
 0001:00054cd0       qsort                      0000000180055cd0 f   libucrt:qsort.obj
 0001:000550e0       strncpy_s                  00000001800560e0 f   libucrt:strncpy_s.obj
 0001:00055270       strpbrk                    0000000180056270 f   libucrt:strpbrk.obj
 0001:00055638       _mbsdec                    0000000180056638 f   libucrt:mbsdec.obj
 0001:00055640       _mbsdec_l                  0000000180056640 f   libucrt:mbsdec.obj
 0001:000556ec       _wcsnicoll                 00000001800566ec f   libucrt:wcsnicol.obj
 0001:0005573c       _wcsnicoll_l               000000018005673c f   libucrt:wcsnicol.obj
 0001:0005582c       _msize_base                000000018005682c f   libucrt:msize.obj
 0001:00055868       ?__wcsrtombs_utf8@__crt_mbstring@@YA_KPEADPEAPEB_W_KPEAU_Mbstatet@@AEAV__crt_cached_ptd_host@@@Z 0000000180056868 f   libucrt:wcrtomb.obj
 0001:000559d0       _get_fpsr                  00000001800569d0 f   libucrt:fpsr.obj
 0001:000559e0       _set_fpsr                  00000001800569e0 f   libucrt:fpsr.obj
 0001:000559ea       _fclrf                     00000001800569ea f   libucrt:fpsr.obj
 0001:000559fe       _frnd                      00000001800569fe f   libucrt:fpsr.obj
 0001:00055a20       __acrt_GetStringTypeW      0000000180056a20 f   libucrt:getstringtypew.obj
 0001:00055b4c       _handle_error              0000000180056b4c f   libucrt:libm_error.obj
 0001:00055c74       _handle_errorf             0000000180056c74 f   libucrt:libm_error.obj
 0001:00055da8       _handle_nan                0000000180056da8 f   libucrt:libm_error.obj
 0001:00055dc4       _handle_nanf               0000000180056dc4 f   libucrt:libm_error.obj
 0001:00055dd4       wcstol                     0000000180056dd4 f   libucrt:strtox.obj
 0001:00056018       _wgetenv_s                 0000000180057018 f   libucrt:getenv.obj
 0001:00056020       wcscmp                     0000000180057020 f   libucrt:wcscmp.obj
 0001:00056058       _putwch_nolock             0000000180057058 f   libucrt:putwch.obj
 0001:00056094       _controlfp_s               0000000180057094 f   libucrt:contrlfp.obj
 0001:000560f8       fegetenv                   00000001800570f8 f   libucrt:fegetenv.obj
 0001:00056118       fesetenv                   0000000180057118 f   libucrt:fesetenv.obj
 0001:00056164       feholdexcept               0000000180057164 f   libucrt:feholdexcept.obj
 0001:000561b4       ceil                       00000001800571b4 f   libucrt:ceil.obj
 0001:00056280       log10                      0000000180057280 f   libucrt:log10.obj
 0001:0005682c       ?reset_and_return@__crt_mbstring@@YA_K_KPEAU_Mbstatet@@@Z 000000018005782c f   libucrt:common_utf8.obj
 0001:00056834       ?return_illegal_sequence@__crt_mbstring@@YA_KPEAU_Mbstatet@@AEAV__crt_cached_ptd_host@@@Z 0000000180057834 f   libucrt:common_utf8.obj
 0001:00056848       ?__mbrtoc32_utf8@__crt_mbstring@@YA_KPEA_UPEBD_KPEAU_Mbstatet@@AEAV__crt_cached_ptd_host@@@Z 0000000180057848 f   libucrt:mbrtoc32.obj
 0001:00056a24       _get_fmode                 0000000180057a24 f   libucrt:setmode.obj
 0001:00056a54       _setmode_nolock            0000000180057a54 f   libucrt:setmode.obj
 0001:00056b34       _chsize_nolock             0000000180057b34 f   libucrt:chsize.obj
 0001:00056bcc       _chsize_nolock_internal    0000000180057bcc f   libucrt:chsize.obj
 0001:00056d60       __acrt_LCMapStringW        0000000180057d60 f   libucrt:lcmapstringw.obj
 0001:00056de8       __acrt_CompareStringW      0000000180057de8 f   libucrt:comparestringw.obj
 0001:00056ea8       ?__c16rtomb_utf8@__crt_mbstring@@YA_KPEAD_SPEAU_Mbstatet@@AEAV__crt_cached_ptd_host@@@Z 0000000180057ea8 f   libucrt:c16rtomb.obj
 0001:00056f4c       __dcrt_lowio_ensure_console_output_initialized 0000000180057f4c f   libucrt:initcon.obj
 0001:00056fa0       __dcrt_terminate_console_output 0000000180057fa0 f   libucrt:initcon.obj
 0001:00056fbc       __dcrt_write_console       0000000180057fbc f   libucrt:initcon.obj
 0001:0005707c       _clearfp                   000000018005807c f   libucrt:ieee.obj
 0001:000570ec       _control87                 00000001800580ec f   libucrt:ieee.obj
 0001:000573c0       _log10_special             00000001800583c0 f   libucrt:log_special.obj
 0001:00057478       __acrt_initialize_fmode    0000000180058478 f   libucrt:txtmode.obj
 0001:00057491       RtlUnwind                  0000000180058491 f   kernel32:KERNEL32.dll
 0001:00057498       ?DloadAcquireSectionWriteAccess@@YAXXZ 0000000180058498 f i DelayImp:delayhlp.obj
 0001:00057544       ?DloadGetSRWLockFunctionPointers@@YAEXZ 0000000180058544 f i DelayImp:delayhlp.obj
 0001:000575e0       ?DloadMakePermanentImageCommit@@YAXPEAX_K@Z 00000001800585e0 f i DelayImp:delayhlp.obj
 0001:00057678       ?DloadObtainSection@@YAPEAXPEAK0@Z 0000000180058678 f i DelayImp:delayhlp.obj
 0001:00057714       ?DloadProtectSection@@YAXKPEAK@Z 0000000180058714 f i DelayImp:delayhlp.obj
 0001:000577a4       ?DloadReleaseSectionWriteAccess@@YAXXZ 00000001800587a4 f i DelayImp:delayhlp.obj
 0001:00057838       __delayLoadHelper2         0000000180058838 f   DelayImp:delayhlp.obj
 0001:00057b0c       __GSHandlerCheck           0000000180058b0c f   LIBCMT:gshandler.obj
 0001:00057b2c       __GSHandlerCheckCommon     0000000180058b2c f   LIBCMT:gshandler.obj
 0001:00057b88       __GSHandlerCheck_EH4       0000000180058b88 f   LIBCMT:gshandlereh4.obj
 0001:00057c20       __chkstk                   0000000180058c20 f   LIBCMT:chkstk.obj
 0001:00057c20       _alloca_probe              0000000180058c20 f   LIBCMT:chkstk.obj
 0001:00057c70       _FindPESection             0000000180058c70 f   LIBCMT:pesect.obj
 0001:00057cc0       _IsNonwritableInCurrentImage 0000000180058cc0 f   LIBCMT:pesect.obj
 0001:00057d10       _ValidateImageBase         0000000180058d10 f   LIBCMT:pesect.obj
 0001:00057d40       __GSHandlerCheck_SEH       0000000180058d40 f   LIBCMT:gshandlerseh.obj
 0001:00057dc8       __GSHandlerCheck_EH        0000000180058dc8 f   LIBCMT:gshandlereh.obj
 0001:00057e48       __C_specific_handler_noexcept 0000000180058e48 f   libvcruntime:chandler_noexcept.obj
 0001:00057e94       wcsrchr                    0000000180058e94 f   libvcruntime:wcsrchr.obj
 0001:00057f44       strrchr                    0000000180058f44 f   libvcruntime:strrchr.obj
 0001:00058070       wcschr                     0000000180059070 f   libvcruntime:wcschr.obj
 0001:000580f0       acos                       00000001800590f0 f   libucrt:acos.obj
 0001:00058390       acosf                      0000000180059390 f   libucrt:acosf.obj
 0001:000585bc       ceilf                      00000001800595bc f   libucrt:ceilf.obj
 0001:00058644       floor                      0000000180059644 f   libucrt:floor.obj
 0001:00058700       fmod                       0000000180059700 f   libucrt:fmod.obj
 0001:000589d4       fmodf                      00000001800599d4 f   libucrt:fmodf.obj
 0001:00058c18       sqrt                       0000000180059c18 f   libucrt:sqrt.obj
 0001:00058ce4       sqrtf                      0000000180059ce4 f   libucrt:sqrtf.obj
 0001:00058da0       strcmp                     0000000180059da0 f   libucrt:strcmp.obj
 0001:00058e10       tan                        0000000180059e10 f   libucrt:tan.obj
 0001:0005964c       _tan_special               000000018005a64c f   libucrt:sincos_special.obj
 0001:00059660       __remainder_piby2_fma3     000000018005a660 f   libucrt:remainder_piby2_forfma3.obj
 0001:00059850       __remainder_piby2_fma3_bdl 000000018005a850 f   libucrt:remainder_piby2_forfma3.obj
 0001:000598d0       __remainder_piby2_forAsm   000000018005a8d0 f   libucrt:remainder_piby2_forasm.obj
 0001:00059ae0       __remainder_piby2_cw_forAsm 000000018005aae0 f   libucrt:remainder_piby2_forasm.obj
 0001:00059c30       _guard_dispatch_icall_nop  000000018005ac30 f   LIBCMT:guard_dispatch.obj
 0001:00059c50       _guard_xfg_dispatch_icall_nop 000000018005ac50 f   LIBCMT:guard_xfg_dispatch.obj
 0001:00059c70       __longjmp_internal         000000018005ac70 f   libvcruntime:longjmp.obj
 0001:00059d70       __intrinsic_setjmp         000000018005ad70 f   libvcruntime:setjmp.obj
 0001:00059d70       _setjmp                    000000018005ad70 f   libvcruntime:setjmp.obj
 0001:00059e10       setjmp                     000000018005ae10 f   libvcruntime:setjmp.obj
 0002:00000000       __imp_cairo_append_path    000000018005e000     libcairo-2:D__a__temp_msys64_mingw64_lib_libcairo_2_lib_s01102.o
 0002:00000008       __imp_cairo_arc            000000018005e008     libcairo-2:D__a__temp_msys64_mingw64_lib_libcairo_2_lib_s01103.o
 0002:00000010       __imp_cairo_arc_negative   000000018005e010     libcairo-2:D__a__temp_msys64_mingw64_lib_libcairo_2_lib_s01104.o
 0002:00000018       __imp_cairo_clip           000000018005e018     libcairo-2:D__a__temp_msys64_mingw64_lib_libcairo_2_lib_s01105.o
 0002:00000020       __imp_cairo_clip_preserve  000000018005e020     libcairo-2:D__a__temp_msys64_mingw64_lib_libcairo_2_lib_s01107.o
 0002:00000028       __imp_cairo_close_path     000000018005e028     libcairo-2:D__a__temp_msys64_mingw64_lib_libcairo_2_lib_s01108.o
 0002:00000030       __imp_cairo_copy_path      000000018005e030     libcairo-2:D__a__temp_msys64_mingw64_lib_libcairo_2_lib_s01111.o
 0002:00000038       __imp_cairo_copy_path_flat 000000018005e038     libcairo-2:D__a__temp_msys64_mingw64_lib_libcairo_2_lib_s01112.o
 0002:00000040       __imp_cairo_create         000000018005e040     libcairo-2:D__a__temp_msys64_mingw64_lib_libcairo_2_lib_s01113.o
 0002:00000048       __imp_cairo_curve_to       000000018005e048     libcairo-2:D__a__temp_msys64_mingw64_lib_libcairo_2_lib_s01114.o
 0002:00000050       __imp_cairo_destroy        000000018005e050     libcairo-2:D__a__temp_msys64_mingw64_lib_libcairo_2_lib_s01116.o
 0002:00000058       __imp_cairo_fill           000000018005e058     libcairo-2:D__a__temp_msys64_mingw64_lib_libcairo_2_lib_s01139.o
 0002:00000060       __imp_cairo_fill_extents   000000018005e060     libcairo-2:D__a__temp_msys64_mingw64_lib_libcairo_2_lib_s01140.o
 0002:00000068       __imp_cairo_fill_preserve  000000018005e068     libcairo-2:D__a__temp_msys64_mingw64_lib_libcairo_2_lib_s01141.o
 0002:00000070       __imp_cairo_format_stride_for_width 000000018005e070     libcairo-2:D__a__temp_msys64_mingw64_lib_libcairo_2_lib_s01167.o
 0002:00000078       __imp_cairo_get_antialias  000000018005e078     libcairo-2:D__a__temp_msys64_mingw64_lib_libcairo_2_lib_s01176.o
 0002:00000080       __imp_cairo_get_current_point 000000018005e080     libcairo-2:D__a__temp_msys64_mingw64_lib_libcairo_2_lib_s01177.o
 0002:00000088       __imp_cairo_get_dash       000000018005e088     libcairo-2:D__a__temp_msys64_mingw64_lib_libcairo_2_lib_s01178.o
 0002:00000090       __imp_cairo_get_dash_count 000000018005e090     libcairo-2:D__a__temp_msys64_mingw64_lib_libcairo_2_lib_s01179.o
 0002:00000098       __imp_cairo_get_line_cap   000000018005e098     libcairo-2:D__a__temp_msys64_mingw64_lib_libcairo_2_lib_s01186.o
 0002:000000a0       __imp_cairo_get_line_join  000000018005e0a0     libcairo-2:D__a__temp_msys64_mingw64_lib_libcairo_2_lib_s01187.o
 0002:000000a8       __imp_cairo_get_line_width 000000018005e0a8     libcairo-2:D__a__temp_msys64_mingw64_lib_libcairo_2_lib_s01188.o
 0002:000000b0       __imp_cairo_get_matrix     000000018005e0b0     libcairo-2:D__a__temp_msys64_mingw64_lib_libcairo_2_lib_s01189.o
 0002:000000b8       __imp_cairo_get_miter_limit 000000018005e0b8     libcairo-2:D__a__temp_msys64_mingw64_lib_libcairo_2_lib_s01190.o
 0002:000000c0       __imp_cairo_get_operator   000000018005e0c0     libcairo-2:D__a__temp_msys64_mingw64_lib_libcairo_2_lib_s01191.o
 0002:000000c8       __imp_cairo_get_source     000000018005e0c8     libcairo-2:D__a__temp_msys64_mingw64_lib_libcairo_2_lib_s01194.o
 0002:000000d0       __imp_cairo_identity_matrix 000000018005e0d0     libcairo-2:D__a__temp_msys64_mingw64_lib_libcairo_2_lib_s01203.o
 0002:000000d8       __imp_cairo_image_surface_create 000000018005e0d8     libcairo-2:D__a__temp_msys64_mingw64_lib_libcairo_2_lib_s01204.o
 0002:000000e0       __imp_cairo_image_surface_create_for_data 000000018005e0e0     libcairo-2:D__a__temp_msys64_mingw64_lib_libcairo_2_lib_s01205.o
 0002:000000e8       __imp_cairo_image_surface_create_from_png 000000018005e0e8     libcairo-2:D__a__temp_msys64_mingw64_lib_libcairo_2_lib_s01206.o
 0002:000000f0       __imp_cairo_image_surface_create_from_png_stream 000000018005e0f0     libcairo-2:D__a__temp_msys64_mingw64_lib_libcairo_2_lib_s01207.o
 0002:000000f8       __imp_cairo_image_surface_get_data 000000018005e0f8     libcairo-2:D__a__temp_msys64_mingw64_lib_libcairo_2_lib_s01208.o
 0002:00000100       __imp_cairo_image_surface_get_format 000000018005e100     libcairo-2:D__a__temp_msys64_mingw64_lib_libcairo_2_lib_s01209.o
 0002:00000108       __imp_cairo_image_surface_get_height 000000018005e108     libcairo-2:D__a__temp_msys64_mingw64_lib_libcairo_2_lib_s01210.o
 0002:00000110       __imp_cairo_image_surface_get_stride 000000018005e110     libcairo-2:D__a__temp_msys64_mingw64_lib_libcairo_2_lib_s01211.o
 0002:00000118       __imp_cairo_image_surface_get_width 000000018005e118     libcairo-2:D__a__temp_msys64_mingw64_lib_libcairo_2_lib_s01212.o
 0002:00000120       __imp_cairo_in_fill        000000018005e120     libcairo-2:D__a__temp_msys64_mingw64_lib_libcairo_2_lib_s01214.o
 0002:00000128       __imp_cairo_in_stroke      000000018005e128     libcairo-2:D__a__temp_msys64_mingw64_lib_libcairo_2_lib_s01215.o
 0002:00000130       __imp_cairo_line_to        000000018005e130     libcairo-2:D__a__temp_msys64_mingw64_lib_libcairo_2_lib_s01216.o
 0002:00000138       __imp_cairo_mask_surface   000000018005e138     libcairo-2:D__a__temp_msys64_mingw64_lib_libcairo_2_lib_s01218.o
 0002:00000140       __imp_cairo_matrix_init    000000018005e140     libcairo-2:D__a__temp_msys64_mingw64_lib_libcairo_2_lib_s01219.o
 0002:00000148       __imp_cairo_matrix_invert  000000018005e148     libcairo-2:D__a__temp_msys64_mingw64_lib_libcairo_2_lib_s01224.o
 0002:00000150       __imp_cairo_move_to        000000018005e150     libcairo-2:D__a__temp_msys64_mingw64_lib_libcairo_2_lib_s01243.o
 0002:00000158       __imp_cairo_new_path       000000018005e158     libcairo-2:D__a__temp_msys64_mingw64_lib_libcairo_2_lib_s01244.o
 0002:00000160       __imp_cairo_paint          000000018005e160     libcairo-2:D__a__temp_msys64_mingw64_lib_libcairo_2_lib_s01246.o
 0002:00000168       __imp_cairo_paint_with_alpha 000000018005e168     libcairo-2:D__a__temp_msys64_mingw64_lib_libcairo_2_lib_s01247.o
 0002:00000170       __imp_cairo_path_destroy   000000018005e170     libcairo-2:D__a__temp_msys64_mingw64_lib_libcairo_2_lib_s01248.o
 0002:00000178       __imp_cairo_path_extents   000000018005e178     libcairo-2:D__a__temp_msys64_mingw64_lib_libcairo_2_lib_s01249.o
 0002:00000180       __imp_cairo_pattern_add_color_stop_rgba 000000018005e180     libcairo-2:D__a__temp_msys64_mingw64_lib_libcairo_2_lib_s01251.o
 0002:00000188       __imp_cairo_pattern_create_for_surface 000000018005e188     libcairo-2:D__a__temp_msys64_mingw64_lib_libcairo_2_lib_s01252.o
 0002:00000190       __imp_cairo_pattern_create_linear 000000018005e190     libcairo-2:D__a__temp_msys64_mingw64_lib_libcairo_2_lib_s01253.o
 0002:00000198       __imp_cairo_pattern_create_radial 000000018005e198     libcairo-2:D__a__temp_msys64_mingw64_lib_libcairo_2_lib_s01255.o
 0002:000001a0       __imp_cairo_pattern_destroy 000000018005e1a0     libcairo-2:D__a__temp_msys64_mingw64_lib_libcairo_2_lib_s01259.o
 0002:000001a8       __imp_cairo_pattern_get_color_stop_count 000000018005e1a8     libcairo-2:D__a__temp_msys64_mingw64_lib_libcairo_2_lib_s01260.o
 0002:000001b0       __imp_cairo_pattern_get_color_stop_rgba 000000018005e1b0     libcairo-2:D__a__temp_msys64_mingw64_lib_libcairo_2_lib_s01261.o
 0002:000001b8       __imp_cairo_pattern_get_filter 000000018005e1b8     libcairo-2:D__a__temp_msys64_mingw64_lib_libcairo_2_lib_s01263.o
 0002:000001c0       __imp_cairo_pattern_get_linear_points 000000018005e1c0     libcairo-2:D__a__temp_msys64_mingw64_lib_libcairo_2_lib_s01264.o
 0002:000001c8       __imp_cairo_pattern_get_radial_circles 000000018005e1c8     libcairo-2:D__a__temp_msys64_mingw64_lib_libcairo_2_lib_s01266.o
 0002:000001d0       __imp_cairo_pattern_get_surface 000000018005e1d0     libcairo-2:D__a__temp_msys64_mingw64_lib_libcairo_2_lib_s01269.o
 0002:000001d8       __imp_cairo_pattern_get_type 000000018005e1d8     libcairo-2:D__a__temp_msys64_mingw64_lib_libcairo_2_lib_s01270.o
 0002:000001e0       __imp_cairo_pattern_get_user_data 000000018005e1e0     libcairo-2:D__a__temp_msys64_mingw64_lib_libcairo_2_lib_s01271.o
 0002:000001e8       __imp_cairo_pattern_set_extend 000000018005e1e8     libcairo-2:D__a__temp_msys64_mingw64_lib_libcairo_2_lib_s01273.o
 0002:000001f0       __imp_cairo_pattern_set_filter 000000018005e1f0     libcairo-2:D__a__temp_msys64_mingw64_lib_libcairo_2_lib_s01274.o
 0002:000001f8       __imp_cairo_pattern_set_matrix 000000018005e1f8     libcairo-2:D__a__temp_msys64_mingw64_lib_libcairo_2_lib_s01275.o
 0002:00000200       __imp_cairo_pattern_set_user_data 000000018005e200     libcairo-2:D__a__temp_msys64_mingw64_lib_libcairo_2_lib_s01276.o
 0002:00000208       __imp_cairo_pdf_surface_create_for_stream 000000018005e208     libcairo-2:D__a__temp_msys64_mingw64_lib_libcairo_2_lib_s01281.o
 0002:00000210       __imp_cairo_pdf_surface_set_metadata 000000018005e210     libcairo-2:D__a__temp_msys64_mingw64_lib_libcairo_2_lib_s01284.o
 0002:00000218       __imp_cairo_pdf_surface_set_size 000000018005e218     libcairo-2:D__a__temp_msys64_mingw64_lib_libcairo_2_lib_s01286.o
 0002:00000220       __imp_cairo_pop_group_to_source 000000018005e220     libcairo-2:D__a__temp_msys64_mingw64_lib_libcairo_2_lib_s01290.o
 0002:00000228       __imp_cairo_push_group     000000018005e228     libcairo-2:D__a__temp_msys64_mingw64_lib_libcairo_2_lib_s01302.o
 0002:00000230       __imp_cairo_rectangle      000000018005e230     libcairo-2:D__a__temp_msys64_mingw64_lib_libcairo_2_lib_s01317.o
 0002:00000238       __imp_cairo_restore        000000018005e238     libcairo-2:D__a__temp_msys64_mingw64_lib_libcairo_2_lib_s01347.o
 0002:00000240       __imp_cairo_rotate         000000018005e240     libcairo-2:D__a__temp_msys64_mingw64_lib_libcairo_2_lib_s01348.o
 0002:00000248       __imp_cairo_save           000000018005e248     libcairo-2:D__a__temp_msys64_mingw64_lib_libcairo_2_lib_s01349.o
 0002:00000250       __imp_cairo_scale          000000018005e250     libcairo-2:D__a__temp_msys64_mingw64_lib_libcairo_2_lib_s01350.o
 0002:00000258       __imp_cairo_set_antialias  000000018005e258     libcairo-2:D__a__temp_msys64_mingw64_lib_libcairo_2_lib_s01377.o
 0002:00000260       __imp_cairo_set_dash       000000018005e260     libcairo-2:D__a__temp_msys64_mingw64_lib_libcairo_2_lib_s01378.o
 0002:00000268       __imp_cairo_set_fill_rule  000000018005e268     libcairo-2:D__a__temp_msys64_mingw64_lib_libcairo_2_lib_s01379.o
 0002:00000270       __imp_cairo_set_line_cap   000000018005e270     libcairo-2:D__a__temp_msys64_mingw64_lib_libcairo_2_lib_s01385.o
 0002:00000278       __imp_cairo_set_line_join  000000018005e278     libcairo-2:D__a__temp_msys64_mingw64_lib_libcairo_2_lib_s01386.o
 0002:00000280       __imp_cairo_set_line_width 000000018005e280     libcairo-2:D__a__temp_msys64_mingw64_lib_libcairo_2_lib_s01387.o
 0002:00000288       __imp_cairo_set_matrix     000000018005e288     libcairo-2:D__a__temp_msys64_mingw64_lib_libcairo_2_lib_s01388.o
 0002:00000290       __imp_cairo_set_miter_limit 000000018005e290     libcairo-2:D__a__temp_msys64_mingw64_lib_libcairo_2_lib_s01389.o
 0002:00000298       __imp_cairo_set_operator   000000018005e298     libcairo-2:D__a__temp_msys64_mingw64_lib_libcairo_2_lib_s01390.o
 0002:000002a0       __imp_cairo_set_source     000000018005e2a0     libcairo-2:D__a__temp_msys64_mingw64_lib_libcairo_2_lib_s01392.o
 0002:000002a8       __imp_cairo_set_source_rgba 000000018005e2a8     libcairo-2:D__a__temp_msys64_mingw64_lib_libcairo_2_lib_s01394.o
 0002:000002b0       __imp_cairo_set_source_surface 000000018005e2b0     libcairo-2:D__a__temp_msys64_mingw64_lib_libcairo_2_lib_s01395.o
 0002:000002b8       __imp_cairo_show_page      000000018005e2b8     libcairo-2:D__a__temp_msys64_mingw64_lib_libcairo_2_lib_s01399.o
 0002:000002c0       __imp_cairo_status         000000018005e2c0     libcairo-2:D__a__temp_msys64_mingw64_lib_libcairo_2_lib_s01402.o
 0002:000002c8       __imp_cairo_status_to_string 000000018005e2c8     libcairo-2:D__a__temp_msys64_mingw64_lib_libcairo_2_lib_s01403.o
 0002:000002d0       __imp_cairo_stroke         000000018005e2d0     libcairo-2:D__a__temp_msys64_mingw64_lib_libcairo_2_lib_s01404.o
 0002:000002d8       __imp_cairo_stroke_extents 000000018005e2d8     libcairo-2:D__a__temp_msys64_mingw64_lib_libcairo_2_lib_s01405.o
 0002:000002e0       __imp_cairo_stroke_preserve 000000018005e2e0     libcairo-2:D__a__temp_msys64_mingw64_lib_libcairo_2_lib_s01406.o
 0002:000002e8       __imp_cairo_surface_destroy 000000018005e2e8     libcairo-2:D__a__temp_msys64_mingw64_lib_libcairo_2_lib_s01412.o
 0002:000002f0       __imp_cairo_surface_finish 000000018005e2f0     libcairo-2:D__a__temp_msys64_mingw64_lib_libcairo_2_lib_s01413.o
 0002:000002f8       __imp_cairo_surface_flush  000000018005e2f8     libcairo-2:D__a__temp_msys64_mingw64_lib_libcairo_2_lib_s01414.o
 0002:00000300       __imp_cairo_surface_mark_dirty 000000018005e300     libcairo-2:D__a__temp_msys64_mingw64_lib_libcairo_2_lib_s01427.o
 0002:00000308       __imp_cairo_surface_mark_dirty_rectangle 000000018005e308     libcairo-2:D__a__temp_msys64_mingw64_lib_libcairo_2_lib_s01428.o
 0002:00000310       __imp_cairo_surface_set_mime_data 000000018005e310     libcairo-2:D__a__temp_msys64_mingw64_lib_libcairo_2_lib_s01442.o
 0002:00000318       __imp_cairo_surface_status 000000018005e318     libcairo-2:D__a__temp_msys64_mingw64_lib_libcairo_2_lib_s01445.o
 0002:00000320       __imp_cairo_svg_surface_create_for_stream 000000018005e320     libcairo-2:D__a__temp_msys64_mingw64_lib_libcairo_2_lib_s01452.o
 0002:00000328       __imp_cairo_transform      000000018005e328     libcairo-2:D__a__temp_msys64_mingw64_lib_libcairo_2_lib_s01471.o
 0002:00000330       __imp_cairo_translate      000000018005e330     libcairo-2:D__a__temp_msys64_mingw64_lib_libcairo_2_lib_s01472.o
 0002:00000338       __imp_cairo_user_to_device_distance 000000018005e338     libcairo-2:D__a__temp_msys64_mingw64_lib_libcairo_2_lib_s01485.o
 0002:00000340       __imp_cairo_version_string 000000018005e340     libcairo-2:D__a__temp_msys64_mingw64_lib_libcairo_2_lib_s01487.o
 0002:00000350       __imp_FT_Done_Face         000000018005e350     libfreetype-6:D__a__temp_msys64_mingw64_lib_libfreetype_6_lib_s00034.o
 0002:00000358       __imp_FT_Done_FreeType     000000018005e358     libfreetype-6:D__a__temp_msys64_mingw64_lib_libfreetype_6_lib_s00035.o
 0002:00000360       __imp_FT_Get_Sfnt_Name     000000018005e360     libfreetype-6:D__a__temp_msys64_mingw64_lib_libfreetype_6_lib_s00090.o
 0002:00000368       __imp_FT_Get_Sfnt_Name_Count 000000018005e368     libfreetype-6:D__a__temp_msys64_mingw64_lib_libfreetype_6_lib_s00091.o
 0002:00000370       __imp_FT_Get_Sfnt_Table    000000018005e370     libfreetype-6:D__a__temp_msys64_mingw64_lib_libfreetype_6_lib_s00092.o
 0002:00000378       __imp_FT_Init_FreeType     000000018005e378     libfreetype-6:D__a__temp_msys64_mingw64_lib_libfreetype_6_lib_s00113.o
 0002:00000380       __imp_FT_Open_Face         000000018005e380     libfreetype-6:D__a__temp_msys64_mingw64_lib_libfreetype_6_lib_s00139.o
 0002:00000390       __imp_DGifCloseFile        000000018005e390     libgif-7:D__a__temp_msys64_mingw64_lib_libgif_7_lib_s00000.o
 0002:00000398       __imp_DGifOpen             000000018005e398     libgif-7:D__a__temp_msys64_mingw64_lib_libgif_7_lib_s00014.o
 0002:000003a0       __imp_DGifSlurp            000000018005e3a0     libgif-7:D__a__temp_msys64_mingw64_lib_libgif_7_lib_s00018.o
 0002:000003b0       __imp_g_iconv              000000018005e3b0     libglib-2.0-0:D__a__temp_msys64_mingw64_lib_libglib_2_0_0_lib_s00537.o
 0002:000003b8       __imp_g_iconv_open         000000018005e3b8     libglib-2.0-0:D__a__temp_msys64_mingw64_lib_libglib_2_0_0_lib_s00539.o
 0002:000003c8       __imp_g_object_unref       000000018005e3c8     libgobject-2.0-0:D__a__temp_msys64_mingw64_lib_libgobject_2_0_0_lib_s00172.o
 0002:000003d8       __imp_jpeg_CreateCompress  000000018005e3d8     libjpeg-8:D__a__temp_msys64_mingw64_lib_libjpeg_8_lib_s00029.o
 0002:000003e0       __imp_jpeg_CreateDecompress 000000018005e3e0     libjpeg-8:D__a__temp_msys64_mingw64_lib_libjpeg_8_lib_s00030.o
 0002:000003e8       __imp_jpeg_abort_decompress 000000018005e3e8     libjpeg-8:D__a__temp_msys64_mingw64_lib_libjpeg_8_lib_s00033.o
 0002:000003f0       __imp_jpeg_destroy_compress 000000018005e3f0     libjpeg-8:D__a__temp_msys64_mingw64_lib_libjpeg_8_lib_s00046.o
 0002:000003f8       __imp_jpeg_destroy_decompress 000000018005e3f8     libjpeg-8:D__a__temp_msys64_mingw64_lib_libjpeg_8_lib_s00047.o
 0002:00000400       __imp_jpeg_finish_compress 000000018005e400     libjpeg-8:D__a__temp_msys64_mingw64_lib_libjpeg_8_lib_s00052.o
 0002:00000408       __imp_jpeg_finish_decompress 000000018005e408     libjpeg-8:D__a__temp_msys64_mingw64_lib_libjpeg_8_lib_s00053.o
 0002:00000410       __imp_jpeg_mem_src         000000018005e410     libjpeg-8:D__a__temp_msys64_mingw64_lib_libjpeg_8_lib_s00074.o
 0002:00000418       __imp_jpeg_read_header     000000018005e418     libjpeg-8:D__a__temp_msys64_mingw64_lib_libjpeg_8_lib_s00080.o
 0002:00000420       __imp_jpeg_read_scanlines  000000018005e420     libjpeg-8:D__a__temp_msys64_mingw64_lib_libjpeg_8_lib_s00083.o
 0002:00000428       __imp_jpeg_set_defaults    000000018005e428     libjpeg-8:D__a__temp_msys64_mingw64_lib_libjpeg_8_lib_s00087.o
 0002:00000430       __imp_jpeg_set_quality     000000018005e430     libjpeg-8:D__a__temp_msys64_mingw64_lib_libjpeg_8_lib_s00090.o
 0002:00000438       __imp_jpeg_simple_progression 000000018005e438     libjpeg-8:D__a__temp_msys64_mingw64_lib_libjpeg_8_lib_s00091.o
 0002:00000440       __imp_jpeg_start_compress  000000018005e440     libjpeg-8:D__a__temp_msys64_mingw64_lib_libjpeg_8_lib_s00093.o
 0002:00000448       __imp_jpeg_start_decompress 000000018005e448     libjpeg-8:D__a__temp_msys64_mingw64_lib_libjpeg_8_lib_s00094.o
 0002:00000450       __imp_jpeg_std_error       000000018005e450     libjpeg-8:D__a__temp_msys64_mingw64_lib_libjpeg_8_lib_s00096.o
 0002:00000458       __imp_jpeg_stdio_src       000000018005e458     libjpeg-8:D__a__temp_msys64_mingw64_lib_libjpeg_8_lib_s00098.o
 0002:00000460       __imp_jpeg_write_scanlines 000000018005e460     libjpeg-8:D__a__temp_msys64_mingw64_lib_libjpeg_8_lib_s00106.o
 0002:00000470       __imp_pango_context_get_language 000000018005e470     libpango-1.0-0:D__a__temp_msys64_mingw64_lib_libpango_1_0_0_lib_s00100.o
 0002:00000478       __imp_pango_context_get_metrics 000000018005e478     libpango-1.0-0:D__a__temp_msys64_mingw64_lib_libpango_1_0_0_lib_s00102.o
 0002:00000480       __imp_pango_font_description_better_match 000000018005e480     libpango-1.0-0:D__a__temp_msys64_mingw64_lib_libpango_1_0_0_lib_s00141.o
 0002:00000488       __imp_pango_font_description_copy 000000018005e488     libpango-1.0-0:D__a__temp_msys64_mingw64_lib_libpango_1_0_0_lib_s00142.o
 0002:00000490       __imp_pango_font_description_equal 000000018005e490     libpango-1.0-0:D__a__temp_msys64_mingw64_lib_libpango_1_0_0_lib_s00144.o
 0002:00000498       __imp_pango_font_description_free 000000018005e498     libpango-1.0-0:D__a__temp_msys64_mingw64_lib_libpango_1_0_0_lib_s00145.o
 0002:000004a0       __imp_pango_font_description_from_string 000000018005e4a0     libpango-1.0-0:D__a__temp_msys64_mingw64_lib_libpango_1_0_0_lib_s00146.o
 0002:000004a8       __imp_pango_font_description_get_family 000000018005e4a8     libpango-1.0-0:D__a__temp_msys64_mingw64_lib_libpango_1_0_0_lib_s00147.o
 0002:000004b0       __imp_pango_font_description_new 000000018005e4b0     libpango-1.0-0:D__a__temp_msys64_mingw64_lib_libpango_1_0_0_lib_s00161.o
 0002:000004b8       __imp_pango_font_description_set_absolute_size 000000018005e4b8     libpango-1.0-0:D__a__temp_msys64_mingw64_lib_libpango_1_0_0_lib_s00162.o
 0002:000004c0       __imp_pango_font_description_set_family 000000018005e4c0     libpango-1.0-0:D__a__temp_msys64_mingw64_lib_libpango_1_0_0_lib_s00163.o
 0002:000004c8       __imp_pango_font_description_set_family_static 000000018005e4c8     libpango-1.0-0:D__a__temp_msys64_mingw64_lib_libpango_1_0_0_lib_s00164.o
 0002:000004d0       __imp_pango_font_description_set_stretch 000000018005e4d0     libpango-1.0-0:D__a__temp_msys64_mingw64_lib_libpango_1_0_0_lib_s00167.o
 0002:000004d8       __imp_pango_font_description_set_style 000000018005e4d8     libpango-1.0-0:D__a__temp_msys64_mingw64_lib_libpango_1_0_0_lib_s00168.o
 0002:000004e0       __imp_pango_font_description_set_weight 000000018005e4e0     libpango-1.0-0:D__a__temp_msys64_mingw64_lib_libpango_1_0_0_lib_s00172.o
 0002:000004e8       __imp_pango_font_metrics_get_ascent 000000018005e4e8     libpango-1.0-0:D__a__temp_msys64_mingw64_lib_libpango_1_0_0_lib_s00213.o
 0002:000004f0       __imp_pango_font_metrics_unref 000000018005e4f0     libpango-1.0-0:D__a__temp_msys64_mingw64_lib_libpango_1_0_0_lib_s00223.o
 0002:000004f8       __imp_pango_layout_get_baseline 000000018005e4f8     libpango-1.0-0:D__a__temp_msys64_mingw64_lib_libpango_1_0_0_lib_s00297.o
 0002:00000500       __imp_pango_layout_get_context 000000018005e500     libpango-1.0-0:D__a__temp_msys64_mingw64_lib_libpango_1_0_0_lib_s00300.o
 0002:00000508       __imp_pango_layout_get_extents 000000018005e508     libpango-1.0-0:D__a__temp_msys64_mingw64_lib_libpango_1_0_0_lib_s00304.o
 0002:00000510       __imp_pango_layout_get_font_description 000000018005e510     libpango-1.0-0:D__a__temp_msys64_mingw64_lib_libpango_1_0_0_lib_s00305.o
 0002:00000518       __imp_pango_layout_get_line 000000018005e518     libpango-1.0-0:D__a__temp_msys64_mingw64_lib_libpango_1_0_0_lib_s00311.o
 0002:00000520       __imp_pango_layout_get_pixel_extents 000000018005e520     libpango-1.0-0:D__a__temp_msys64_mingw64_lib_libpango_1_0_0_lib_s00319.o
 0002:00000528       __imp_pango_layout_line_get_extents 000000018005e528     libpango-1.0-0:D__a__temp_msys64_mingw64_lib_libpango_1_0_0_lib_s00357.o
 0002:00000530       __imp_pango_layout_set_font_description 000000018005e530     libpango-1.0-0:D__a__temp_msys64_mingw64_lib_libpango_1_0_0_lib_s00378.o
 0002:00000538       __imp_pango_layout_set_text 000000018005e538     libpango-1.0-0:D__a__temp_msys64_mingw64_lib_libpango_1_0_0_lib_s00389.o
 0002:00000548       __imp_pango_cairo_create_layout 000000018005e548     libpangocairo-1.0-0:D__a__temp_msys64_mingw64_lib_libpangocairo_1_0_0_lib_s00007.o
 0002:00000550       __imp_pango_cairo_font_map_set_default 000000018005e550     libpangocairo-1.0-0:D__a__temp_msys64_mingw64_lib_libpangocairo_1_0_0_lib_s00020.o
 0002:00000558       __imp_pango_cairo_layout_path 000000018005e558     libpangocairo-1.0-0:D__a__temp_msys64_mingw64_lib_libpangocairo_1_0_0_lib_s00024.o
 0002:00000560       __imp_pango_cairo_show_layout 000000018005e560     libpangocairo-1.0-0:D__a__temp_msys64_mingw64_lib_libpangocairo_1_0_0_lib_s00029.o
 0002:00000568       __imp_pango_cairo_update_layout 000000018005e568     libpangocairo-1.0-0:D__a__temp_msys64_mingw64_lib_libpangocairo_1_0_0_lib_s00032.o
 0002:00000578       __imp_png_create_info_struct 000000018005e578     libpng16-16:D__a__temp_msys64_mingw64_lib_libpng16_16_lib_s00011.o
 0002:00000580       __imp_png_create_write_struct_2 000000018005e580     libpng16-16:D__a__temp_msys64_mingw64_lib_libpng16_16_lib_s00015.o
 0002:00000588       __imp_png_data_freer       000000018005e588     libpng16-16:D__a__temp_msys64_mingw64_lib_libpng16_16_lib_s00016.o
 0002:00000590       __imp_png_destroy_write_struct 000000018005e590     libpng16-16:D__a__temp_msys64_mingw64_lib_libpng16_16_lib_s00019.o
 0002:00000598       __imp_png_error            000000018005e598     libpng16-16:D__a__temp_msys64_mingw64_lib_libpng16_16_lib_s00020.o
 0002:000005a0       __imp_png_get_error_ptr    000000018005e5a0     libpng16-16:D__a__temp_msys64_mingw64_lib_libpng16_16_lib_s00044.o
 0002:000005a8       __imp_png_get_io_ptr       000000018005e5a8     libpng16-16:D__a__temp_msys64_mingw64_lib_libpng16_16_lib_s00058.o
 0002:000005b0       __imp_png_malloc           000000018005e5b0     libpng16-16:D__a__temp_msys64_mingw64_lib_libpng16_16_lib_s00129.o
 0002:000005b8       __imp_png_set_IHDR         000000018005e5b8     libpng16-16:D__a__temp_msys64_mingw64_lib_libpng16_16_lib_s00149.o
 0002:000005c0       __imp_png_set_PLTE         000000018005e5c0     libpng16-16:D__a__temp_msys64_mingw64_lib_libpng16_16_lib_s00150.o
 0002:000005c8       __imp_png_set_bKGD         000000018005e5c8     libpng16-16:D__a__temp_msys64_mingw64_lib_libpng16_16_lib_s00155.o
 0002:000005d0       __imp_png_set_compression_level 000000018005e5d0     libpng16-16:D__a__temp_msys64_mingw64_lib_libpng16_16_lib_s00168.o
 0002:000005d8       __imp_png_set_filler       000000018005e5d8     libpng16-16:D__a__temp_msys64_mingw64_lib_libpng16_16_lib_s00180.o
 0002:000005e0       __imp_png_set_filter       000000018005e5e0     libpng16-16:D__a__temp_msys64_mingw64_lib_libpng16_16_lib_s00181.o
 0002:000005e8       __imp_png_set_longjmp_fn   000000018005e5e8     libpng16-16:D__a__temp_msys64_mingw64_lib_libpng16_16_lib_s00198.o
 0002:000005f0       __imp_png_set_pHYs         000000018005e5f0     libpng16-16:D__a__temp_msys64_mingw64_lib_libpng16_16_lib_s00204.o
 0002:000005f8       __imp_png_set_packing      000000018005e5f8     libpng16-16:D__a__temp_msys64_mingw64_lib_libpng16_16_lib_s00205.o
 0002:00000600       __imp_png_set_packswap     000000018005e600     libpng16-16:D__a__temp_msys64_mingw64_lib_libpng16_16_lib_s00206.o
 0002:00000608       __imp_png_set_tRNS         000000018005e608     libpng16-16:D__a__temp_msys64_mingw64_lib_libpng16_16_lib_s00233.o
 0002:00000610       __imp_png_set_write_fn     000000018005e610     libpng16-16:D__a__temp_msys64_mingw64_lib_libpng16_16_lib_s00245.o
 0002:00000618       __imp_png_set_write_user_transform_fn 000000018005e618     libpng16-16:D__a__temp_msys64_mingw64_lib_libpng16_16_lib_s00247.o
 0002:00000620       __imp_png_write_end        000000018005e620     libpng16-16:D__a__temp_msys64_mingw64_lib_libpng16_16_lib_s00255.o
 0002:00000628       __imp_png_write_image      000000018005e628     libpng16-16:D__a__temp_msys64_mingw64_lib_libpng16_16_lib_s00259.o
 0002:00000630       __imp_png_write_info       000000018005e630     libpng16-16:D__a__temp_msys64_mingw64_lib_libpng16_16_lib_s00260.o
 0002:00000640       __imp_rsvg_handle_get_dimensions 000000018005e640     librsvg-2-2:D__a__temp_msys64_mingw64_lib_librsvg_2_2_lib_s00008.o
 0002:00000648       __imp_rsvg_handle_new_from_data 000000018005e648     librsvg-2-2:D__a__temp_msys64_mingw64_lib_librsvg_2_2_lib_s00023.o
 0002:00000650       __imp_rsvg_handle_render_cairo 000000018005e650     librsvg-2-2:D__a__temp_msys64_mingw64_lib_librsvg_2_2_lib_s00029.o
 0002:00000660       __imp_AddFontResourceExW   000000018005e660     gdi32:GDI32.dll
 0002:00000668       __imp_RemoveFontResourceExW 000000018005e668     gdi32:GDI32.dll
 0002:00000670       \177GDI32_NULL_THUNK_DATA  000000018005e670     gdi32:GDI32.dll
 0002:00000678       __imp_ReadFile             000000018005e678     kernel32:KERNEL32.dll
 0002:00000680       __imp_GetFileSizeEx        000000018005e680     kernel32:KERNEL32.dll
 0002:00000688       __imp_VirtualQuery         000000018005e688     kernel32:KERNEL32.dll
 0002:00000690       __imp_MultiByteToWideChar  000000018005e690     kernel32:KERNEL32.dll
 0002:00000698       __imp_CloseHandle          000000018005e698     kernel32:KERNEL32.dll
 0002:000006a0       __imp_CreateFileW          000000018005e6a0     kernel32:KERNEL32.dll
 0002:000006a8       __imp_GetModuleHandleA     000000018005e6a8     kernel32:KERNEL32.dll
 0002:000006b0       __imp_RtlCaptureContext    000000018005e6b0     kernel32:KERNEL32.dll
 0002:000006b8       __imp_RtlLookupFunctionEntry 000000018005e6b8     kernel32:KERNEL32.dll
 0002:000006c0       __imp_RtlVirtualUnwind     000000018005e6c0     kernel32:KERNEL32.dll
 0002:000006c8       __imp_UnhandledExceptionFilter 000000018005e6c8     kernel32:KERNEL32.dll
 0002:000006d0       __imp_SetUnhandledExceptionFilter 000000018005e6d0     kernel32:KERNEL32.dll
 0002:000006d8       __imp_GetCurrentProcess    000000018005e6d8     kernel32:KERNEL32.dll
 0002:000006e0       __imp_TerminateProcess     000000018005e6e0     kernel32:KERNEL32.dll
 0002:000006e8       __imp_IsProcessorFeaturePresent 000000018005e6e8     kernel32:KERNEL32.dll
 0002:000006f0       __imp_IsDebuggerPresent    000000018005e6f0     kernel32:KERNEL32.dll
 0002:000006f8       __imp_GetStartupInfoW      000000018005e6f8     kernel32:KERNEL32.dll
 0002:00000700       __imp_GetModuleHandleW     000000018005e700     kernel32:KERNEL32.dll
 0002:00000708       __imp_QueryPerformanceCounter 000000018005e708     kernel32:KERNEL32.dll
 0002:00000710       __imp_GetCurrentProcessId  000000018005e710     kernel32:KERNEL32.dll
 0002:00000718       __imp_GetCurrentThreadId   000000018005e718     kernel32:KERNEL32.dll
 0002:00000720       __imp_GetSystemTimeAsFileTime 000000018005e720     kernel32:KERNEL32.dll
 0002:00000728       __imp_InitializeSListHead  000000018005e728     kernel32:KERNEL32.dll
 0002:00000730       __imp_EnterCriticalSection 000000018005e730     kernel32:KERNEL32.dll
 0002:00000738       __imp_LeaveCriticalSection 000000018005e738     kernel32:KERNEL32.dll
 0002:00000740       __imp_InitializeCriticalSectionEx 000000018005e740     kernel32:KERNEL32.dll
 0002:00000748       __imp_DeleteCriticalSection 000000018005e748     kernel32:KERNEL32.dll
 0002:00000750       __imp_EncodePointer        000000018005e750     kernel32:KERNEL32.dll
 0002:00000758       __imp_DecodePointer        000000018005e758     kernel32:KERNEL32.dll
 0002:00000760       __imp_WideCharToMultiByte  000000018005e760     kernel32:KERNEL32.dll
 0002:00000768       __imp_LCMapStringEx        000000018005e768     kernel32:KERNEL32.dll
 0002:00000770       __imp_GetStringTypeW       000000018005e770     kernel32:KERNEL32.dll
 0002:00000778       __imp_GetCPInfo            000000018005e778     kernel32:KERNEL32.dll
 0002:00000780       __imp_RtlUnwindEx          000000018005e780     kernel32:KERNEL32.dll
 0002:00000788       __imp_RtlPcToFileHeader    000000018005e788     kernel32:KERNEL32.dll
 0002:00000790       __imp_RaiseException       000000018005e790     kernel32:KERNEL32.dll
 0002:00000798       __imp_InterlockedFlushSList 000000018005e798     kernel32:KERNEL32.dll
 0002:000007a0       __imp_GetLastError         000000018005e7a0     kernel32:KERNEL32.dll
 0002:000007a8       __imp_SetLastError         000000018005e7a8     kernel32:KERNEL32.dll
 0002:000007b0       __imp_RtlUnwind            000000018005e7b0     kernel32:KERNEL32.dll
 0002:000007b8       __imp_InitializeCriticalSectionAndSpinCount 000000018005e7b8     kernel32:KERNEL32.dll
 0002:000007c0       __imp_TlsAlloc             000000018005e7c0     kernel32:KERNEL32.dll
 0002:000007c8       __imp_TlsGetValue          000000018005e7c8     kernel32:KERNEL32.dll
 0002:000007d0       __imp_TlsSetValue          000000018005e7d0     kernel32:KERNEL32.dll
 0002:000007d8       __imp_TlsFree              000000018005e7d8     kernel32:KERNEL32.dll
 0002:000007e0       __imp_FreeLibrary          000000018005e7e0     kernel32:KERNEL32.dll
 0002:000007e8       __imp_GetProcAddress       000000018005e7e8     kernel32:KERNEL32.dll
 0002:000007f0       __imp_LoadLibraryExW       000000018005e7f0     kernel32:KERNEL32.dll
 0002:000007f8       __imp_GetStdHandle         000000018005e7f8     kernel32:KERNEL32.dll
 0002:00000800       __imp_GetFileType          000000018005e800     kernel32:KERNEL32.dll
 0002:00000808       __imp_GetModuleFileNameW   000000018005e808     kernel32:KERNEL32.dll
 0002:00000810       __imp_GetModuleHandleExW   000000018005e810     kernel32:KERNEL32.dll
 0002:00000818       __imp_WriteConsoleW        000000018005e818     kernel32:KERNEL32.dll
 0002:00000820       __imp_GetFileInformationByHandle 000000018005e820     kernel32:KERNEL32.dll
 0002:00000828       __imp_PeekNamedPipe        000000018005e828     kernel32:KERNEL32.dll
 0002:00000830       __imp_SystemTimeToTzSpecificLocalTime 000000018005e830     kernel32:KERNEL32.dll
 0002:00000838       __imp_FileTimeToSystemTime 000000018005e838     kernel32:KERNEL32.dll
 0002:00000840       __imp_ExitProcess          000000018005e840     kernel32:KERNEL32.dll
 0002:00000848       __imp_WriteFile            000000018005e848     kernel32:KERNEL32.dll
 0002:00000850       __imp_OutputDebugStringW   000000018005e850     kernel32:KERNEL32.dll
 0002:00000858       __imp_HeapFree             000000018005e858     kernel32:KERNEL32.dll
 0002:00000860       __imp_HeapAlloc            000000018005e860     kernel32:KERNEL32.dll
 0002:00000868       __imp_FlsAlloc             000000018005e868     kernel32:KERNEL32.dll
 0002:00000870       __imp_FlsGetValue          000000018005e870     kernel32:KERNEL32.dll
 0002:00000878       __imp_FlsSetValue          000000018005e878     kernel32:KERNEL32.dll
 0002:00000880       __imp_FlsFree              000000018005e880     kernel32:KERNEL32.dll
 0002:00000888       __imp_GetDateFormatW       000000018005e888     kernel32:KERNEL32.dll
 0002:00000890       __imp_GetTimeFormatW       000000018005e890     kernel32:KERNEL32.dll
 0002:00000898       __imp_CompareStringW       000000018005e898     kernel32:KERNEL32.dll
 0002:000008a0       __imp_LCMapStringW         000000018005e8a0     kernel32:KERNEL32.dll
 0002:000008a8       __imp_GetLocaleInfoW       000000018005e8a8     kernel32:KERNEL32.dll
 0002:000008b0       __imp_IsValidLocale        000000018005e8b0     kernel32:KERNEL32.dll
 0002:000008b8       __imp_GetUserDefaultLCID   000000018005e8b8     kernel32:KERNEL32.dll
 0002:000008c0       __imp_EnumSystemLocalesW   000000018005e8c0     kernel32:KERNEL32.dll
 0002:000008c8       __imp_SetFilePointerEx     000000018005e8c8     kernel32:KERNEL32.dll
 0002:000008d0       __imp_GetConsoleMode       000000018005e8d0     kernel32:KERNEL32.dll
 0002:000008d8       __imp_ReadConsoleW         000000018005e8d8     kernel32:KERNEL32.dll
 0002:000008e0       __imp_GetCurrentDirectoryW 000000018005e8e0     kernel32:KERNEL32.dll
 0002:000008e8       __imp_SetStdHandle         000000018005e8e8     kernel32:KERNEL32.dll
 0002:000008f0       __imp_FindClose            000000018005e8f0     kernel32:KERNEL32.dll
 0002:000008f8       __imp_FindFirstFileExW     000000018005e8f8     kernel32:KERNEL32.dll
 0002:00000900       __imp_FindNextFileW        000000018005e900     kernel32:KERNEL32.dll
 0002:00000908       __imp_IsValidCodePage      000000018005e908     kernel32:KERNEL32.dll
 0002:00000910       __imp_GetACP               000000018005e910     kernel32:KERNEL32.dll
 0002:00000918       __imp_GetOEMCP             000000018005e918     kernel32:KERNEL32.dll
 0002:00000920       __imp_GetCommandLineA      000000018005e920     kernel32:KERNEL32.dll
 0002:00000928       __imp_GetCommandLineW      000000018005e928     kernel32:KERNEL32.dll
 0002:00000930       __imp_GetEnvironmentStringsW 000000018005e930     kernel32:KERNEL32.dll
 0002:00000938       __imp_FreeEnvironmentStringsW 000000018005e938     kernel32:KERNEL32.dll
 0002:00000940       __imp_SetEnvironmentVariableW 000000018005e940     kernel32:KERNEL32.dll
 0002:00000948       __imp_GetProcessHeap       000000018005e948     kernel32:KERNEL32.dll
 0002:00000950       __imp_HeapReAlloc          000000018005e950     kernel32:KERNEL32.dll
 0002:00000958       __imp_GetTimeZoneInformation 000000018005e958     kernel32:KERNEL32.dll
 0002:00000960       __imp_FlushFileBuffers     000000018005e960     kernel32:KERNEL32.dll
 0002:00000968       __imp_GetConsoleOutputCP   000000018005e968     kernel32:KERNEL32.dll
 0002:00000970       __imp_HeapSize             000000018005e970     kernel32:KERNEL32.dll
 0002:00000978       __imp_SetEndOfFile         000000018005e978     kernel32:KERNEL32.dll
 0002:00000980       __imp_GetSystemInfo        000000018005e980     kernel32:KERNEL32.dll
 0002:00000988       __imp_VirtualProtect       000000018005e988     kernel32:KERNEL32.dll
 0002:00000990       __imp_LoadLibraryExA       000000018005e990     kernel32:KERNEL32.dll
 0002:00000998       \177KERNEL32_NULL_THUNK_DATA 000000018005e998     kernel32:KERNEL32.dll
 0002:000009a0       __guard_check_icall_fptr   000000018005e9a0     LIBCMT:guard_support.obj
 0002:000009a8       __guard_xfg_check_icall_fptr 000000018005e9a8     LIBCMT:guard_support.obj
 0002:000009b0       __guard_dispatch_icall_fptr 000000018005e9b0     LIBCMT:guard_support.obj
 0002:000009b8       __guard_xfg_dispatch_icall_fptr 000000018005e9b8     LIBCMT:guard_support.obj
 0002:000009c0       __guard_xfg_table_dispatch_icall_fptr 000000018005e9c0     LIBCMT:guard_support.obj
 0002:000009c8       __xc_a                     000000018005e9c8     LIBCMT:initializers.obj
 0002:000009f8       _register_canvas_          000000018005e9f8     init.obj
 0002:00000a70       __xc_z                     000000018005ea70     LIBCMT:initializers.obj
 0002:00000a78       __xi_a                     000000018005ea78     LIBCMT:initializers.obj
 0002:00000a80       __acrt_stdio_initializer   000000018005ea80     libucrt:stdio_initializer.obj
 0002:00000a88       __acrt_multibyte_initializer 000000018005ea88     libucrt:multibyte_initializer.obj
 0002:00000a90       __acrt_tran_fma3_initializer 000000018005ea90     libucrt:fma3_initializer.obj
 0002:00000a98       __acrt_timeset_initializer 000000018005ea98     libucrt:timeset_initializer.obj
 0002:00000aa0       __acrt_fmode_initializer   000000018005eaa0     libucrt:fmode_initializer.obj
 0002:00000aa8       __xi_z                     000000018005eaa8     LIBCMT:initializers.obj
 0002:00000ab0       __xp_a                     000000018005eab0     LIBCMT:initializers.obj
 0002:00000ab8       __acrt_locale_terminator   000000018005eab8     libucrt:locale_initializer.obj
 0002:00000ac0       __dcrt_console_output_terminator 000000018005eac0     libucrt:console_output_initializer.obj
 0002:00000ac8       __acrt_stdio_terminator    000000018005eac8     libucrt:stdio_initializer.obj
 0002:00000ad0       __xp_z                     000000018005ead0     LIBCMT:initializers.obj
 0002:00000ad8       __xt_a                     000000018005ead8     LIBCMT:initializers.obj
 0002:00000ae0       __xt_z                     000000018005eae0     LIBCMT:initializers.obj
 0002:00000af0       __sz_node_exe              000000018005eaf0     node:node.exe
 0002:00000b00       __xmm@ffffffffffffffffffffffffffffffff 000000018005eb00     LIBCMT:utility.obj
 0002:00000b18       ??_7type_info@@6B@         000000018005eb18     LIBCMT:std_type_info_static.obj
 0002:00000b20       ?nothrow@std@@3Unothrow_t@1@B 000000018005eb20     LIBCMT:std_nothrow.obj
 0002:00000b28       _pRawDllMain               000000018005eb28     LIBCMT:dll_dllmain.obj
 0002:00000b28       _pDefaultRawDllMain        000000018005eb28     LIBCMT:dll_dllmain.obj
 0002:00000b48       ??_7exception@std@@6B@     000000018005eb48     LIBCMT:throw_bad_alloc.obj
 0002:00000b58       ??_C@_0BC@EOODALEL@Unknown?5exception@ 000000018005eb58     LIBCMT:throw_bad_alloc.obj
 0002:00000b78       ??_7bad_alloc@std@@6B@     000000018005eb78     LIBCMT:throw_bad_alloc.obj
 0002:00000b88       ??_C@_0P@GHFPNOJB@bad?5allocation@ 000000018005eb88     LIBCMT:throw_bad_alloc.obj
 0002:00000ba0       ??_7bad_array_new_length@std@@6B@ 000000018005eba0     LIBCMT:throw_bad_alloc.obj
 0002:00000bb8       ??_7bad_function_call@std@@6B@ 000000018005ebb8     libcpmt:xthrow.obj
 0002:00000bc8       ??_C@_0BC@DPJNKNAF@bad?5function?5call@ 000000018005ebc8     libcpmt:xthrow.obj
 0002:00000be8       ??_7logic_error@std@@6B@   000000018005ebe8     libcpmt:xthrow.obj
 0002:00000c00       ??_7length_error@std@@6B@  000000018005ec00     libcpmt:xthrow.obj
 0002:00000c18       ??_7runtime_error@std@@6B@ 000000018005ec18     libcpmt:xthrow.obj
 0002:00000c30       ??_7_Facet_base@std@@6B@   000000018005ec30     libcpmt:locale0.obj
 0002:00000c50       ??_7_Locimp@locale@std@@6B@ 000000018005ec50     libcpmt:locale0.obj
 0002:00000c68       ??_C@_01NBENCBCI@?$CK@     000000018005ec68     libcpmt:locale0.obj
 0002:00000c6c       ??_C@_01GFHCPBMG@C@        000000018005ec6c     libcpmt:locale0.obj
 0002:00000c70       ?_BADOFF@std@@3_JB         000000018005ec70     libcpmt:ios.obj
 0002:000013e0       ??_C@_0BN@LKKBCCDB@address?5family?5not?5supported@ 000000018005f3e0     libcpmt:syserror.obj
 0002:00001400       ??_C@_0P@LDMLAFHI@address?5in?5use@ 000000018005f400     libcpmt:syserror.obj
 0002:00001410       ??_C@_0BG@DHPCNBJB@address?5not?5available@ 000000018005f410     libcpmt:syserror.obj
 0002:00001428       ??_C@_0BC@DFIBIBIL@already?5connected@ 000000018005f428     libcpmt:syserror.obj
 0002:00001440       ??_C@_0BH@CAKOHOMI@argument?5list?5too?5long@ 000000018005f440     libcpmt:syserror.obj
 0002:00001458       ??_C@_0BH@CGIMPKIM@argument?5out?5of?5domain@ 000000018005f458     libcpmt:syserror.obj
 0002:00001470       ??_C@_0M@KGHGGJGL@bad?5address@ 000000018005f470     libcpmt:syserror.obj
 0002:00001480       ??_C@_0BE@MPJPGCEO@bad?5file?5descriptor@ 000000018005f480     libcpmt:syserror.obj
 0002:00001498       ??_C@_0M@PMMIEFCP@bad?5message@ 000000018005f498     libcpmt:syserror.obj
 0002:000014a8       ??_C@_0M@KPHOFDBE@broken?5pipe@ 000000018005f4a8     libcpmt:syserror.obj
 0002:000014b8       ??_C@_0BD@MGNDDEGM@connection?5aborted@ 000000018005f4b8     libcpmt:syserror.obj
 0002:000014d0       ??_C@_0BP@KAIHPOGN@connection?5already?5in?5progress@ 000000018005f4d0     libcpmt:syserror.obj
 0002:000014f0       ??_C@_0BD@PJLIIJEL@connection?5refused@ 000000018005f4f0     libcpmt:syserror.obj
 0002:00001508       ??_C@_0BB@IECNJNOI@connection?5reset@ 000000018005f508     libcpmt:syserror.obj
 0002:00001520       ??_C@_0BC@PPHBOELF@cross?5device?5link@ 000000018005f520     libcpmt:syserror.obj
 0002:00001538       ??_C@_0BN@KDMIFEIP@destination?5address?5required@ 000000018005f538     libcpmt:syserror.obj
 0002:00001558       ??_C@_0BI@NGCEHDD@device?5or?5resource?5busy@ 000000018005f558     libcpmt:syserror.obj
 0002:00001570       ??_C@_0BE@JIDOCPHM@directory?5not?5empty@ 000000018005f570     libcpmt:syserror.obj
 0002:00001588       ??_C@_0BI@BNCLIGPB@executable?5format?5error@ 000000018005f588     libcpmt:syserror.obj
 0002:000015a0       ??_C@_0M@MIDIAGJP@file?5exists@ 000000018005f5a0     libcpmt:syserror.obj
 0002:000015b0       ??_C@_0P@DNAJLBJK@file?5too?5large@ 000000018005f5b0     libcpmt:syserror.obj
 0002:000015c0       ??_C@_0BC@EJHOMAAK@filename?5too?5long@ 000000018005f5c0     libcpmt:syserror.obj
 0002:000015d8       ??_C@_0BH@KEFGLDAF@function?5not?5supported@ 000000018005f5d8     libcpmt:syserror.obj
 0002:000015f0       ??_C@_0BB@DHFDFGDM@host?5unreachable@ 000000018005f5f0     libcpmt:syserror.obj
 0002:00001608       ??_C@_0BD@JPHBMONG@identifier?5removed@ 000000018005f608     libcpmt:syserror.obj
 0002:00001620       ??_C@_0BG@CDNPAGJK@illegal?5byte?5sequence@ 000000018005f620     libcpmt:syserror.obj
 0002:00001638       ??_C@_0CD@BNPLBMNA@inappropriate?5io?5control?5operat@ 000000018005f638     libcpmt:syserror.obj
 0002:00001660       ??_C@_0M@EGEKIIMP@interrupted@ 000000018005f660     libcpmt:syserror.obj
 0002:00001670       ??_C@_0BB@FCMFBGOM@invalid?5argument@ 000000018005f670     libcpmt:syserror.obj
 0002:00001688       ??_C@_0N@OHAFKDEK@invalid?5seek@ 000000018005f688     libcpmt:syserror.obj
 0002:00001698       ??_C@_08GLNPIFBN@io?5error@ 000000018005f698     libcpmt:syserror.obj
 0002:000016a8       ??_C@_0P@FLLDBIDK@is?5a?5directory@ 000000018005f6a8     libcpmt:syserror.obj
 0002:000016b8       ??_C@_0N@IFLPBIOP@message?5size@ 000000018005f6b8     libcpmt:syserror.obj
 0002:000016c8       ??_C@_0N@KIIEAAIO@network?5down@ 000000018005f6c8     libcpmt:syserror.obj
 0002:000016d8       ??_C@_0O@FNPDBHEE@network?5reset@ 000000018005f6d8     libcpmt:syserror.obj
 0002:000016e8       ??_C@_0BE@IFNCKGE@network?5unreachable@ 000000018005f6e8     libcpmt:syserror.obj
 0002:00001700       ??_C@_0BA@PFFCAOFK@no?5buffer?5space@ 000000018005f700     libcpmt:syserror.obj
 0002:00001710       ??_C@_0BB@IEPBLJHK@no?5child?5process@ 000000018005f710     libcpmt:syserror.obj
 0002:00001728       ??_C@_07PLECNNKG@no?5link@ 000000018005f728     libcpmt:syserror.obj
 0002:00001730       ??_C@_0BC@NJECKMKE@no?5lock?5available@ 000000018005f730     libcpmt:syserror.obj
 0002:00001748       ??_C@_0BF@PBGGPKKE@no?5message?5available@ 000000018005f748     libcpmt:syserror.obj
 0002:00001760       ??_C@_0L@EDOLMPAK@no?5message@ 000000018005f760     libcpmt:syserror.obj
 0002:00001770       ??_C@_0BD@EAMBFIDF@no?5protocol?5option@ 000000018005f770     libcpmt:syserror.obj
 0002:00001788       ??_C@_0BD@IJDJKDEA@no?5space?5on?5device@ 000000018005f788     libcpmt:syserror.obj
 0002:000017a0       ??_C@_0BE@MKFDAFMP@no?5stream?5resources@ 000000018005f7a0     libcpmt:syserror.obj
 0002:000017b8       ??_C@_0BK@IMCPHCBI@no?5such?5device?5or?5address@ 000000018005f7b8     libcpmt:syserror.obj
 0002:000017d8       ??_C@_0P@FDINDDOK@no?5such?5device@ 000000018005f7d8     libcpmt:syserror.obj
 0002:000017e8       ??_C@_0BK@NDOCBPGE@no?5such?5file?5or?5directory@ 000000018005f7e8     libcpmt:syserror.obj
 0002:00001808       ??_C@_0BA@ENLPPKBN@no?5such?5process@ 000000018005f808     libcpmt:syserror.obj
 0002:00001818       ??_C@_0BA@DOCPFFJG@not?5a?5directory@ 000000018005f818     libcpmt:syserror.obj
 0002:00001828       ??_C@_0N@POEIPGGF@not?5a?5socket@ 000000018005f828     libcpmt:syserror.obj
 0002:00001838       ??_C@_0N@LGAPMMPI@not?5a?5stream@ 000000018005f838     libcpmt:syserror.obj
 0002:00001848       ??_C@_0O@GLMIBBEG@not?5connected@ 000000018005f848     libcpmt:syserror.obj
 0002:00001858       ??_C@_0BC@ENOOLCNF@not?5enough?5memory@ 000000018005f858     libcpmt:syserror.obj
 0002:00001870       ??_C@_0O@NHEDABJP@not?5supported@ 000000018005f870     libcpmt:syserror.obj
 0002:00001880       ??_C@_0BD@MOLBPMEA@operation?5canceled@ 000000018005f880     libcpmt:syserror.obj
 0002:00001898       ??_C@_0BG@KDKHOPCO@operation?5in?5progress@ 000000018005f898     libcpmt:syserror.obj
 0002:000018b0       ??_C@_0BI@OHIEJAAB@operation?5not?5permitted@ 000000018005f8b0     libcpmt:syserror.obj
 0002:000018c8       ??_C@_0BI@LNEGIFLN@operation?5not?5supported@ 000000018005f8c8     libcpmt:syserror.obj
 0002:000018e0       ??_C@_0BG@OEMDKMEE@operation?5would?5block@ 000000018005f8e0     libcpmt:syserror.obj
 0002:000018f8       ??_C@_0L@BLPOFLNJ@owner?5dead@ 000000018005f8f8     libcpmt:syserror.obj
 0002:00001908       ??_C@_0BC@CIJDGCDI@permission?5denied@ 000000018005f908     libcpmt:syserror.obj
 0002:00001920       ??_C@_0P@FNPOCJBE@protocol?5error@ 000000018005f920     libcpmt:syserror.obj
 0002:00001930       ??_C@_0BH@JPPPLHJB@protocol?5not?5supported@ 000000018005f930     libcpmt:syserror.obj
 0002:00001948       ??_C@_0BG@EICBIHDP@read?5only?5file?5system@ 000000018005f948     libcpmt:syserror.obj
 0002:00001960       ??_C@_0BO@BJBOMOEJ@resource?5deadlock?5would?5occur@ 000000018005f960     libcpmt:syserror.obj
 0002:00001980       ??_C@_0BP@LKNGHENJ@resource?5unavailable?5try?5again@ 000000018005f980     libcpmt:syserror.obj
 0002:000019a0       ??_C@_0BE@GOIPJJHG@result?5out?5of?5range@ 000000018005f9a0     libcpmt:syserror.obj
 0002:000019b8       ??_C@_0BG@MPLKFPAE@state?5not?5recoverable@ 000000018005f9b8     libcpmt:syserror.obj
 0002:000019d0       ??_C@_0P@DIIFGFCG@stream?5timeout@ 000000018005f9d0     libcpmt:syserror.obj
 0002:000019e0       ??_C@_0P@IPFDMIFL@text?5file?5busy@ 000000018005f9e0     libcpmt:syserror.obj
 0002:000019f0       ??_C@_09KJPPMAOI@timed?5out@ 000000018005f9f0     libcpmt:syserror.obj
 0002:00001a00       ??_C@_0BO@HACHBEKI@too?5many?5files?5open?5in?5system@ 000000018005fa00     libcpmt:syserror.obj
 0002:00001a20       ??_C@_0BE@GHAFMPAH@too?5many?5files?5open@ 000000018005fa20     libcpmt:syserror.obj
 0002:00001a38       ??_C@_0P@HCOMKFCC@too?5many?5links@ 000000018005fa38     libcpmt:syserror.obj
 0002:00001a48       ??_C@_0BO@EFGOJEF@too?5many?5symbolic?5link?5levels@ 000000018005fa48     libcpmt:syserror.obj
 0002:00001a68       ??_C@_0BA@KGKGOOJA@value?5too?5large@ 000000018005fa68     libcpmt:syserror.obj
 0002:00001a78       ??_C@_0BE@MIEJDDNH@wrong?5protocol?5type@ 000000018005fa78     libcpmt:syserror.obj
 0002:00001a90       ??_C@_0O@BFJCFAAK@unknown?5error@ 000000018005fa90     libcpmt:syserror.obj
 0002:00001aa8       ??_7?$ctype@D@std@@6B@     000000018005faa8     libcpmt:locale.obj
 0002:00001c00       ??_C@_11LOCGONAA@@         000000018005fc00     libcpmt:wlocale.obj
 0002:00001c04       ??_C@_13IMODFHAA@?$AA?9@   000000018005fc04     libcpmt:wlocale.obj
 0002:00001c08       ??_C@_01JOAMLHOP@?9@       000000018005fc08     libcpmt:wlocale.obj
 0002:00001cb0       ?s_negLengthTab@FH4@@3QBCB 000000018005fcb0     libvcruntime:risctrnsctrl.obj
 0002:00001cc0       ?s_shiftTab@FH4@@3QBEB     000000018005fcc0     libvcruntime:risctrnsctrl.obj
 0002:00001e08       _pDestructExceptionObject  000000018005fe08     libvcruntime:ehhelpers.obj
 0002:00001e18       ??_7bad_exception@std@@6B@ 000000018005fe18     libvcruntime:frame.obj
 0002:00001e28       ??_C@_0O@DPKOEFFH@bad?5exception@ 000000018005fe28     libvcruntime:frame.obj
 0002:00002540       ??_C@_08EHJDFFNH@__based?$CI@ 0000000180060540     libvcruntime:undname.obj
 0002:00002550       ??_C@_07KOLFKCDI@__cdecl@  0000000180060550     libvcruntime:undname.obj
 0002:00002558       ??_C@_08GHMPAG@__pascal@   0000000180060558     libvcruntime:undname.obj
 0002:00002568       ??_C@_09IFJBGAPI@__stdcall@ 0000000180060568     libvcruntime:undname.obj
 0002:00002578       ??_C@_0L@NPHFGOKO@__thiscall@ 0000000180060578     libvcruntime:undname.obj
 0002:00002588       ??_C@_0L@JMKHOMEK@__fastcall@ 0000000180060588     libvcruntime:undname.obj
 0002:00002598       ??_C@_0N@BCKKPABJ@__vectorcall@ 0000000180060598     libvcruntime:undname.obj
 0002:000025a8       ??_C@_09HIJEGCPM@__clrcall@ 00000001800605a8     libvcruntime:undname.obj
 0002:000025b4       ??_C@_06GHPCKEAG@__eabi@   00000001800605b4     libvcruntime:undname.obj
 0002:000025c0       ??_C@_09IOPIDJLG@__swift_1@ 00000001800605c0     libvcruntime:undname.obj
 0002:000025d0       ??_C@_09KFNFGKHF@__swift_2@ 00000001800605d0     libvcruntime:undname.obj
 0002:000025e0       ??_C@_07JOMMBBKO@__ptr64@  00000001800605e0     libvcruntime:undname.obj
 0002:000025e8       ??_C@_0L@PILCLIHE@__restrict@ 00000001800605e8     libvcruntime:undname.obj
 0002:000025f8       ??_C@_0M@GFIIJFMG@__unaligned@ 00000001800605f8     libvcruntime:undname.obj
 0002:00002608       ??_C@_09DHDLOLLB@restrict?$CI@ 0000000180060608     libvcruntime:undname.obj
 0002:00002614       ??_C@_04NIHEBCM@?5new@     0000000180060614     libvcruntime:undname.obj
 0002:00002620       ??_C@_07FPCDHGMM@?5delete@ 0000000180060620     libvcruntime:undname.obj
 0002:00002628       ??_C@_01NEMOKFLO@?$DN@     0000000180060628     libvcruntime:undname.obj
 0002:0000262c       ??_C@_02GPIOPFAK@?$DO?$DO@ 000000018006062c     libvcruntime:undname.obj
 0002:00002630       ??_C@_02FODMEDOG@?$DM?$DM@ 0000000180060630     libvcruntime:undname.obj
 0002:00002634       ??_C@_01DCLJPIOD@?$CB@     0000000180060634     libvcruntime:undname.obj
 0002:00002638       ??_C@_02EGOFBIJA@?$DN?$DN@ 0000000180060638     libvcruntime:undname.obj
 0002:0000263c       ??_C@_02FDNJECIE@?$CB?$DN@ 000000018006063c     libvcruntime:undname.obj
 0002:00002640       ??_C@_02GPECMEKF@?$FL?$FN@ 0000000180060640     libvcruntime:undname.obj
 0002:00002648       ??_C@_08LHJFAFGD@operator@ 0000000180060648     libvcruntime:undname.obj
 0002:00002654       ??_C@_02HBOOOICD@?9?$DO@   0000000180060654     libvcruntime:undname.obj
 0002:00002658       ??_C@_02ECNGHCIF@?$CL?$CL@ 0000000180060658     libvcruntime:undname.obj
 0002:0000265c       ??_C@_02BAABKJLB@?9?9@     000000018006065c     libvcruntime:undname.obj
 0002:00002660       ??_C@_01MIFGBAGJ@?$CL@     0000000180060660     libvcruntime:undname.obj
 0002:00002664       ??_C@_01HNPIGOCE@?$CG@     0000000180060664     libvcruntime:undname.obj
 0002:00002668       ??_C@_03MNHNFDLC@?9?$DO?$CK@ 0000000180060668     libvcruntime:undname.obj
 0002:0000266c       ??_C@_01KMDKNFGN@?1@       000000018006066c     libvcruntime:undname.obj
 0002:00002670       ??_C@_01FGNFDNOH@?$CF@     0000000180060670     libvcruntime:undname.obj
 0002:00002674       ??_C@_01MNNFJEPP@?$DM@     0000000180060674     libvcruntime:undname.obj
 0002:00002678       ??_C@_02EHCHHCKH@?$DM?$DN@ 0000000180060678     libvcruntime:undname.obj
 0002:0000267c       ??_C@_01PPODPGHN@?$DO@     000000018006067c     libvcruntime:undname.obj
 0002:00002680       ??_C@_02EEKDKGMJ@?$DO?$DN@ 0000000180060680     libvcruntime:undname.obj
 0002:00002684       ??_C@_02HCKGKOFO@?$CI?$CJ@ 0000000180060684     libvcruntime:undname.obj
 0002:00002688       ??_C@_01PJKLJHI@?$HO@      0000000180060688     libvcruntime:undname.obj
 0002:0000268c       ??_C@_01JKBOJNNK@?$FO@     000000018006068c     libvcruntime:undname.obj
 0002:00002690       ??_C@_01DNKMNLPK@?$HM@     0000000180060690     libvcruntime:undname.obj
 0002:00002694       ??_C@_02PPKAJPJL@?$CG?$CG@ 0000000180060694     libvcruntime:undname.obj
 0002:00002698       ??_C@_02NONPIBCD@?$HM?$HM@ 0000000180060698     libvcruntime:undname.obj
 0002:0000269c       ??_C@_02FPIMKNGF@?$CK?$DN@ 000000018006069c     libvcruntime:undname.obj
 0002:000026a0       ??_C@_02FOEOMHFC@?$CL?$DN@ 00000001800606a0     libvcruntime:undname.obj
 0002:000026a4       ??_C@_02FKMDLLOA@?9?$DN@   00000001800606a4     libvcruntime:undname.obj
 0002:000026a8       ??_C@_02FJEHGPIO@?1?$DN@   00000001800606a8     libvcruntime:undname.obj
 0002:000026ac       ??_C@_02FENAOKFI@?$CF?$DN@ 00000001800606ac     libvcruntime:undname.obj
 0002:000026b0       ??_C@_03IKFCCPFF@?$DO?$DO?$DN@ 00000001800606b0     libvcruntime:undname.obj
 0002:000026b4       ??_C@_03CDNPDDLA@?$DM?$DM?$DN@ 00000001800606b4     libvcruntime:undname.obj
 0002:000026b8       ??_C@_02FGJGFEAB@?$CG?$DN@ 00000001800606b8     libvcruntime:undname.obj
 0002:000026bc       ??_C@_02DHLNPPGH@?$HM?$DN@ 00000001800606bc     libvcruntime:undname.obj
 0002:000026c0       ??_C@_02MHEGNOJ@?$FO?$DN@  00000001800606c0     libvcruntime:undname.obj
 0002:000026c8       ??_C@_09IFPLHPGF@?$GAvftable?8@ 00000001800606c8     libvcruntime:undname.obj
 0002:000026d8       ??_C@_09BLBHBJP@?$GAvbtable?8@ 00000001800606d8     libvcruntime:undname.obj
 0002:000026e8       ??_C@_07FEEIOKP@?$GAvcall?8@ 00000001800606e8     libvcruntime:undname.obj
 0002:000026f0       ??_C@_08LLFFHHDJ@?$GAtypeof?8@ 00000001800606f0     libvcruntime:undname.obj
 0002:00002700       ??_C@_0BF@KDPPACIK@?$GAlocal?5static?5guard?8@ 0000000180060700     libvcruntime:undname.obj
 0002:00002718       ??_C@_08OBABFOLI@?$GAstring?8@ 0000000180060718     libvcruntime:undname.obj
 0002:00002728       ??_C@_0BD@JDLKDPAB@?$GAvbase?5destructor?8@ 0000000180060728     libvcruntime:undname.obj
 0002:00002740       ??_C@_0BN@DEGPLNFK@?$GAvector?5deleting?5destructor?8@ 0000000180060740     libvcruntime:undname.obj
 0002:00002760       ??_C@_0BO@OBMKPJIG@?$GAdefault?5constructor?5closure?8@ 0000000180060760     libvcruntime:undname.obj
 0002:00002780       ??_C@_0BN@IMDCHIKM@?$GAscalar?5deleting?5destructor?8@ 0000000180060780     libvcruntime:undname.obj
 0002:000027a0       ??_C@_0BO@PFGOCPJJ@?$GAvector?5constructor?5iterator?8@ 00000001800607a0     libvcruntime:undname.obj
 0002:000027c0       ??_C@_0BN@LFPFMEDL@?$GAvector?5destructor?5iterator?8@ 00000001800607c0     libvcruntime:undname.obj
 0002:000027e0       ??_C@_0CE@IKBNEHA@?$GAvector?5vbase?5constructor?5itera@ 00000001800607e0     libvcruntime:undname.obj
 0002:00002808       ??_C@_0BL@NILFHHPC@?$GAvirtual?5displacement?5map?8@ 0000000180060808     libvcruntime:undname.obj
 0002:00002828       ??_C@_0CB@JONCMFFK@?$GAeh?5vector?5constructor?5iterator@ 0000000180060828     libvcruntime:undname.obj
 0002:00002850       ??_C@_0CA@GCEOPDGL@?$GAeh?5vector?5destructor?5iterator?8@ 0000000180060850     libvcruntime:undname.obj
 0002:00002870       ??_C@_0CH@OOJPLCPH@?$GAeh?5vector?5vbase?5constructor?5it@ 0000000180060870     libvcruntime:undname.obj
 0002:00002898       ??_C@_0BL@LLKPOHJI@?$GAcopy?5constructor?5closure?8@ 0000000180060898     libvcruntime:undname.obj
 0002:000028b8       ??_C@_0BA@KBCDOMBN@?$GAudt?5returning?8@ 00000001800608b8     libvcruntime:undname.obj
 0002:000028c8       ??_C@_03KLGMFNMG@?$GAEH@   00000001800608c8     libvcruntime:undname.obj
 0002:000028cc       ??_C@_05KHLCHHI@?$GARTTI@  00000001800608cc     libvcruntime:undname.obj
 0002:000028d8       ??_C@_0BA@KKLDJDLB@?$GAlocal?5vftable?8@ 00000001800608d8     libvcruntime:undname.obj
 0002:000028e8       ??_C@_0CE@IIHCMGGL@?$GAlocal?5vftable?5constructor?5clos@ 00000001800608e8     libvcruntime:undname.obj
 0002:0000290c       ??_C@_06FHBGPFGH@?5new?$FL?$FN@ 000000018006090c     libvcruntime:undname.obj
 0002:00002918       ??_C@_09LBNFPBCA@?5delete?$FL?$FN@ 0000000180060918     libvcruntime:undname.obj
 0002:00002928       ??_C@_0P@HJKNJFNN@?$GAomni?5callsig?8@ 0000000180060928     libvcruntime:undname.obj
 0002:00002938       ??_C@_0BL@CNOONJFP@?$GAplacement?5delete?5closure?8@ 0000000180060938     libvcruntime:undname.obj
 0002:00002958       ??_C@_0BN@CKNJLHMB@?$GAplacement?5delete?$FL?$FN?5closure?8@ 0000000180060958     libvcruntime:undname.obj
 0002:00002978       ??_C@_0CG@CFDHKGGD@?$GAmanaged?5vector?5constructor?5ite@ 0000000180060978     libvcruntime:undname.obj
 0002:000029a0       ??_C@_0CF@IMGKMJNO@?$GAmanaged?5vector?5destructor?5iter@ 00000001800609a0     libvcruntime:undname.obj
 0002:000029c8       ??_C@_0CG@HLDDJMAG@?$GAeh?5vector?5copy?5constructor?5ite@ 00000001800609c8     libvcruntime:undname.obj
 0002:000029f0       ??_C@_0CM@FCBBDIGB@?$GAeh?5vector?5vbase?5copy?5construct@ 00000001800609f0     libvcruntime:undname.obj
 0002:00002a20       ??_C@_0BL@CLIPGLGB@?$GAdynamic?5initializer?5for?5?8@ 0000000180060a20     libvcruntime:undname.obj
 0002:00002a40       ??_C@_0CB@PDBIFEP@?$GAdynamic?5atexit?5destructor?5for?5@ 0000000180060a40     libvcruntime:undname.obj
 0002:00002a68       ??_C@_0CD@CGAJBKEJ@?$GAvector?5copy?5constructor?5iterat@ 0000000180060a68     libvcruntime:undname.obj
 0002:00002a90       ??_C@_0CJ@GJELGAMM@?$GAvector?5vbase?5copy?5constructor?5@ 0000000180060a90     libvcruntime:undname.obj
 0002:00002ac0       ??_C@_0CL@FGIJHLCE@?$GAmanaged?5vector?5copy?5constructo@ 0000000180060ac0     libvcruntime:undname.obj
 0002:00002af0       ??_C@_0BM@PMGGMLDN@?$GAlocal?5static?5thread?5guard?8@ 0000000180060af0     libvcruntime:undname.obj
 0002:00002b10       ??_C@_0N@BDNMDMOL@operator?5?$CC?$CC?5@ 0000000180060b10     libvcruntime:undname.obj
 0002:00002b20       ??_C@_0BC@GGEBGALA@operator?5co_await@ 0000000180060b20     libvcruntime:undname.obj
 0002:00002b38       ??_C@_0M@GAAIMMOH@operator?$DM?$DN?$DO@ 0000000180060b38     libvcruntime:undname.obj
 0002:00002b48       ??_C@_0BC@DAFEJGAK@?5Type?5Descriptor?8@ 0000000180060b48     libvcruntime:undname.obj
 0002:00002b60       ??_C@_0BM@LDKODKLH@?5Base?5Class?5Descriptor?5at?5?$CI@ 0000000180060b60     libvcruntime:undname.obj
 0002:00002b80       ??_C@_0BD@LGICGFMM@?5Base?5Class?5Array?8@ 0000000180060b80     libvcruntime:undname.obj
 0002:00002b98       ??_C@_0BN@MECKDCOJ@?5Class?5Hierarchy?5Descriptor?8@ 0000000180060b98     libvcruntime:undname.obj
 0002:00002bb8       ??_C@_0BK@CFCOFLF@?5Complete?5Object?5Locator?8@ 0000000180060bb8     libvcruntime:undname.obj
 0002:00002bd8       ??_C@_0BG@JNJLAMPM@?$GAanonymous?5namespace?8@ 0000000180060bd8     libvcruntime:undname.obj
 0002:00002c08       ??_C@_1DM@KHCHBNEB@?$AAa?$AAp?$AAi?$AA?9?$AAm?$AAs?$AA?9?$AAw?$AAi?$AAn?$AA?9?$AAc?$AAo?$AAr?$AAe@ 0000000180060c08     libvcruntime:winapi_downlevel.obj
 0002:00002c48       ??_C@_1DK@LPPGFMPP@?$AAa?$AAp?$AAi?$AA?9?$AAm?$AAs?$AA?9?$AAw?$AAi?$AAn?$AA?9?$AAc?$AAo?$AAr?$AAe@ 0000000180060c48     libvcruntime:winapi_downlevel.obj
 0002:00002c88       ??_C@_1BC@GDMECMAK@?$AAk?$AAe?$AAr?$AAn?$AAe?$AAl?$AA3?$AA2@ 0000000180060c88     libvcruntime:winapi_downlevel.obj
 0002:00002ca0       ??_C@_1BA@PFFKHIOG@?$AAa?$AAp?$AAi?$AA?9?$AAm?$AAs?$AA?9@ 0000000180060ca0     libvcruntime:winapi_downlevel.obj
 0002:00002cb8       ??_C@_08KNHFBNJ@FlsAlloc@  0000000180060cb8     libvcruntime:winapi_downlevel.obj
 0002:00002cd0       ??_C@_07PEJMOBNF@FlsFree@  0000000180060cd0     libvcruntime:winapi_downlevel.obj
 0002:00002ce0       ??_C@_0M@GDNOONDI@FlsGetValue@ 0000000180060ce0     libvcruntime:winapi_downlevel.obj
 0002:00002cf8       ??_C@_0M@JCPCPOEF@FlsSetValue@ 0000000180060cf8     libvcruntime:winapi_downlevel.obj
 0002:00002d10       ??_C@_0BM@HCFOFFN@InitializeCriticalSectionEx@ 0000000180060d10     libvcruntime:winapi_downlevel.obj
 0002:00002d30       ??_C@_1FE@LHBLIKM@?$AAA?$AAs?$AAs?$AAe?$AAr?$AAt?$AAi?$AAo?$AAn?$AA?5?$AAf?$AAa?$AAi?$AAl?$AAe@ 0000000180060d30     libucrt:assert.obj
 0002:00002d90       ??_C@_1EK@MBDPDCGA@?$AAM?$AAi?$AAc?$AAr?$AAo?$AAs?$AAo?$AAf?$AAt?$AA?5?$AAV?$AAi?$AAs?$AAu?$AAa@ 0000000180060d90     libucrt:assert.obj
 0002:00002de0       ??_C@_1CE@OJBNHDMO@?$AAA?$AAs?$AAs?$AAe?$AAr?$AAt?$AAi?$AAo?$AAn?$AA?5?$AAf?$AAa?$AAi?$AAl?$AAe@ 0000000180060de0     libucrt:assert.obj
 0002:00002e08       ??_C@_1BE@PHKBBGE@?$AAP?$AAr?$AAo?$AAg?$AAr?$AAa?$AAm?$AA?3?$AA?5@ 0000000180060e08     libucrt:assert.obj
 0002:00002e20       ??_C@_1O@HEMHKNDC@?$AAF?$AAi?$AAl?$AAe?$AA?3?$AA?5@ 0000000180060e20     libucrt:assert.obj
 0002:00002e30       ??_C@_1O@KCAFKHJE@?$AAL?$AAi?$AAn?$AAe?$AA?3?$AA?5@ 0000000180060e30     libucrt:assert.obj
 0002:00002e40       ??_C@_1BK@PEDCIPMA@?$AAE?$AAx?$AAp?$AAr?$AAe?$AAs?$AAs?$AAi?$AAo?$AAn?$AA?3?$AA?5@ 0000000180060e40     libucrt:assert.obj
 0002:00002e60       ??_C@_1OA@EGMLFBHJ@?$AAF?$AAo?$AAr?$AA?5?$AAi?$AAn?$AAf?$AAo?$AAr?$AAm?$AAa?$AAt?$AAi?$AAo?$AAn@ 0000000180060e60     libucrt:assert.obj
 0002:00002f40       ??_C@_1HK@POCJMFGK@?$AA?$CI?$AAP?$AAr?$AAe?$AAs?$AAs?$AA?5?$AAR?$AAe?$AAt?$AAr?$AAy?$AA?5?$AAt?$AAo@ 0000000180060f40     libucrt:assert.obj
 0002:00002fc0       ??_C@_17LGKOMLJ@?$AA?4?$AA?4?$AA?4@ 0000000180060fc0     libucrt:assert.obj
 0002:00002fc8       ??_C@_13LBAGMAIH@?$AA?6@   0000000180060fc8     libucrt:assert.obj
 0002:00002fcc       ??_C@_15IABLJNFO@?$AA?6?$AA?6@ 0000000180060fcc     libucrt:assert.obj
 0002:00002fd8       ??_C@_1CO@EAEJAADC@?$AA?$DM?$AAp?$AAr?$AAo?$AAg?$AAr?$AAa?$AAm?$AA?5?$AAn?$AAa?$AAm?$AAe?$AA?5?$AAu@ 0000000180060fd8     libucrt:assert.obj
 0002:00003010       ?standard_lookup_table_spectre@__crt_stdio_output@@3V?$spectre_mitigated_lookup_table@Ustate_transition_pair@__crt_stdio_output@@$0IA@@1@B 0000000180061010     libucrt:output.obj
 0002:00003110       ??_C@_1O@CEDCILHN@?$AA?$CI?$AAn?$AAu?$AAl?$AAl?$AA?$CJ@ 0000000180061110     libucrt:output.obj
 0002:00003120       ??_C@_06OJHGLDPL@?$CInull?$CJ@ 0000000180061120     libucrt:output.obj
 0002:00003298       ??_C@_19DOGDICKI@?$AA?4?$AAe?$AAx?$AAe@ 0000000180061298     libucrt:stat.obj
 0002:000032a8       ??_C@_19BDKLHPGC@?$AA?4?$AAc?$AAm?$AAd@ 00000001800612a8     libucrt:stat.obj
 0002:000032b8       ??_C@_19PINKOIBI@?$AA?4?$AAb?$AAa?$AAt@ 00000001800612b8     libucrt:stat.obj
 0002:000032c8       ??_C@_19CDGLJBOD@?$AA?4?$AAc?$AAo?$AAm@ 00000001800612c8     libucrt:stat.obj
 0002:000032e0       __acrt_exception_action_table 00000001800612e0     libucrt:exception_filter.obj
 0002:000033a0       __acrt_signal_action_table_count 00000001800613a0     libucrt:exception_filter.obj
 0002:000033a8       __acrt_signal_action_first_fpe_index 00000001800613a8     libucrt:exception_filter.obj
 0002:000033b0       __acrt_signal_action_fpe_count 00000001800613b0     libucrt:exception_filter.obj
 0002:000033b8       ??_C@_13CGOKJPIL@?$AA?1@   00000001800613b8     libucrt:exit.obj
 0002:00003410       ??_C@_1BI@BGOHAHKC@?$AAm?$AAs?$AAc?$AAo?$AAr?$AAe?$AAe?$AA?4?$AAd?$AAl?$AAl@ 0000000180061410     libucrt:exit.obj
 0002:00003428       ??_C@_0P@MIGLKIOC@CorExitProcess@ 0000000180061428     libucrt:exit.obj
 0002:00003590       __newctype                 0000000180061590     libucrt:ctype.obj
 0002:00003890       __newclmap                 0000000180061890     libucrt:ctype.obj
 0002:00003a10       __newcumap                 0000000180061a10     libucrt:ctype.obj
 0002:00003b90       _wctype                    0000000180061b90     libucrt:ctype.obj
 0002:00003da0       ?large_power_data@?1??multiply_by_power_of_ten@__crt_strtox@@YA_NAEAUbig_integer@2@I@Z@4QBIB 0000000180061da0     libucrt:strtod.obj
 0002:000046b0       ?large_power_indices@?1??multiply_by_power_of_ten@__crt_strtox@@YA_NAEAUbig_integer@2@I@Z@4QBUunpack_index@?1??12@YA_N0I@Z@B 00000001800626b0     libucrt:strtod.obj
 0002:00004748       ?small_powers_of_ten@?1??multiply_by_power_of_ten@__crt_strtox@@YA_NAEAUbig_integer@2@I@Z@4QBIB 0000000180062748     libucrt:strtod.obj
 0002:00006418       ??_C@_1M@PBPMMENC@?$AAa?$AAm?$AA?1?$AAp?$AAm@ 0000000180064418     libucrt:wcsftime.obj
 0002:00006428       ??_C@_17BLFJJHMM@?$AAa?$AA?1?$AAp@ 0000000180064428     libucrt:wcsftime.obj
 0002:00006430       ??_C@_13HOIJIPNN@?$AA?5@   0000000180064430     libucrt:wcsftime.obj
 0002:00006434       ??_C@_13EBCNDICG@?$AA?3@   0000000180064434     libucrt:wcsftime.obj
 0002:00006438       ??_C@_13KDLDGPGJ@?$AA?7@   0000000180064438     libucrt:wcsftime.obj
 0002:0000643c       ??_C@_13KJIIAINM@?$AA?$CL@ 000000018006443c     libucrt:wcsftime.obj
 0002:00006440       ??_C@_13EJFHHPOP@?$AA?$CF@ 0000000180064440     libucrt:wcsftime.obj
 0002:000064d0       __lc_category              00000001800644d0     libucrt:wsetlocale.obj
 0002:00006560       ??_C@_1O@GIFLHMA@?$AAL?$AAC?$AA_?$AAA?$AAL?$AAL@ 0000000180064560     libucrt:wsetlocale.obj
 0002:00006570       ??_C@_1BG@PPOMIBNJ@?$AAL?$AAC?$AA_?$AAC?$AAO?$AAL?$AAL?$AAA?$AAT?$AAE@ 0000000180064570     libucrt:wsetlocale.obj
 0002:00006588       ??_C@_1BC@FFJGAPJM@?$AAL?$AAC?$AA_?$AAC?$AAT?$AAY?$AAP?$AAE@ 0000000180064588     libucrt:wsetlocale.obj
 0002:000065a0       ??_C@_1BI@PCKFNJFB@?$AAL?$AAC?$AA_?$AAM?$AAO?$AAN?$AAE?$AAT?$AAA?$AAR?$AAY@ 00000001800645a0     libucrt:wsetlocale.obj
 0002:000065b8       ??_C@_1BG@ENIEDKID@?$AAL?$AAC?$AA_?$AAN?$AAU?$AAM?$AAE?$AAR?$AAI?$AAC@ 00000001800645b8     libucrt:wsetlocale.obj
 0002:000065d0       ??_C@_1BA@HAAOMIIG@?$AAL?$AAC?$AA_?$AAT?$AAI?$AAM?$AAE@ 00000001800645d0     libucrt:wsetlocale.obj
 0002:000065e0       ??_C@_15NBPDDFIP@?$AA?$DN?$AA?$DL@ 00000001800645e0     libucrt:wsetlocale.obj
 0002:000065e8       ??_C@_13PJJBFPED@?$AA?$DL@ 00000001800645e8     libucrt:wsetlocale.obj
 0002:000065ec       ??_C@_13NMPKAAJP@?$AA?$DN@ 00000001800645ec     libucrt:wsetlocale.obj
 0002:000065f0       ??_C@_17EFJLDFDO@?$AA?9?$AA_?$AA?4@ 00000001800645f0     libucrt:wsetlocale.obj
 0002:000065f8       ??_C@_13FHBKNHDA@?$AAC@    00000001800645f8     libucrt:wsetlocale.obj
 0002:00006600       ??_C@_17MBJJLFDM@?$AA_?$AA?4?$AA?0@ 0000000180064600     libucrt:wsetlocale.obj
 0002:00006608       ??_C@_13ENNFDPBH@?$AA_@    0000000180064608     libucrt:wsetlocale.obj
 0002:0000660c       ??_C@_13JOFGPIOO@?$AA?4@   000000018006460c     libucrt:wsetlocale.obj
 0002:00006610       __lc_time_c                0000000180064610     libucrt:nlsdata.obj
 0002:000068d0       ??_C@_03KOEHGMDN@Sun@      00000001800648d0     libucrt:nlsdata.obj
 0002:000068d4       ??_C@_03PDAGKDH@Mon@       00000001800648d4     libucrt:nlsdata.obj
 0002:000068d8       ??_C@_03NAGEINEP@Tue@      00000001800648d8     libucrt:nlsdata.obj
 0002:000068dc       ??_C@_03MHOMLAJA@Wed@      00000001800648dc     libucrt:nlsdata.obj
 0002:000068e0       ??_C@_03IOFIKPDN@Thu@      00000001800648e0     libucrt:nlsdata.obj
 0002:000068e4       ??_C@_03IDIOELNC@Fri@      00000001800648e4     libucrt:nlsdata.obj
 0002:000068e8       ??_C@_03FEFJNEK@Sat@       00000001800648e8     libucrt:nlsdata.obj
 0002:000068ec       ??_C@_06OOPIFAJ@Sunday@    00000001800648ec     libucrt:nlsdata.obj
 0002:000068f4       ??_C@_06JLEDEDGH@Monday@   00000001800648f4     libucrt:nlsdata.obj
 0002:00006900       ??_C@_07BAAGCFCM@Tuesday@  0000000180064900     libucrt:nlsdata.obj
 0002:00006908       ??_C@_09DLIGFAKA@Wednesday@ 0000000180064908     libucrt:nlsdata.obj
 0002:00006918       ??_C@_08HACCIKIA@Thursday@ 0000000180064918     libucrt:nlsdata.obj
 0002:00006924       ??_C@_06JECMNKMI@Friday@   0000000180064924     libucrt:nlsdata.obj
 0002:00006930       ??_C@_08INBOOONO@Saturday@ 0000000180064930     libucrt:nlsdata.obj
 0002:0000693c       ??_C@_03JIHJHPIE@Jan@      000000018006493c     libucrt:nlsdata.obj
 0002:00006940       ??_C@_03HJBDCHOM@Feb@      0000000180064940     libucrt:nlsdata.obj
 0002:00006944       ??_C@_03ODNJBKGA@Mar@      0000000180064944     libucrt:nlsdata.obj
 0002:00006948       ??_C@_03LEOLGMJP@Apr@      0000000180064948     libucrt:nlsdata.obj
 0002:0000694c       ??_C@_03CNMDKL@May@        000000018006494c     libucrt:nlsdata.obj
 0002:00006950       ??_C@_03IDFGHECI@Jun@      0000000180064950     libucrt:nlsdata.obj
 0002:00006954       ??_C@_03LBGABGKK@Jul@      0000000180064954     libucrt:nlsdata.obj
 0002:00006958       ??_C@_03IFJFEIGA@Aug@      0000000180064958     libucrt:nlsdata.obj
 0002:0000695c       ??_C@_03GGCAPAJC@Sep@      000000018006495c     libucrt:nlsdata.obj
 0002:00006960       ??_C@_03BMAOKBAD@Oct@      0000000180064960     libucrt:nlsdata.obj
 0002:00006964       ??_C@_03JPJOFNIA@Nov@      0000000180064964     libucrt:nlsdata.obj
 0002:00006968       ??_C@_03MKABNOCG@Dec@      0000000180064968     libucrt:nlsdata.obj
 0002:00006970       ??_C@_07CGJPFGJA@January@  0000000180064970     libucrt:nlsdata.obj
 0002:00006978       ??_C@_08GNJGEPFN@February@ 0000000180064978     libucrt:nlsdata.obj
 0002:00006984       ??_C@_05HPCKOFNC@March@    0000000180064984     libucrt:nlsdata.obj
 0002:0000698c       ??_C@_05DMJDNLEJ@April@    000000018006498c     libucrt:nlsdata.obj
 0002:00006994       ??_C@_04CNLMGBGM@June@     0000000180064994     libucrt:nlsdata.obj
 0002:0000699c       ??_C@_04MIEPOIFP@July@     000000018006499c     libucrt:nlsdata.obj
 0002:000069a4       ??_C@_06LBBHFDDG@August@   00000001800649a4     libucrt:nlsdata.obj
 0002:000069b0       ??_C@_09BHHEALKD@September@ 00000001800649b0     libucrt:nlsdata.obj
 0002:000069c0       ??_C@_07JJNFCEND@October@  00000001800649c0     libucrt:nlsdata.obj
 0002:000069c8       ??_C@_08HCHEGEOA@November@ 00000001800649c8     libucrt:nlsdata.obj
 0002:000069d8       ??_C@_08EDHMEBNP@December@ 00000001800649d8     libucrt:nlsdata.obj
 0002:000069e4       ??_C@_02DEDBPAFC@AM@       00000001800649e4     libucrt:nlsdata.obj
 0002:000069e8       ??_C@_02CJNFDJBF@PM@       00000001800649e8     libucrt:nlsdata.obj
 0002:000069f0       ??_C@_08BPBNCDIB@MM?1dd?1yy@ 00000001800649f0     libucrt:nlsdata.obj
 0002:00006a00       ??_C@_0BE@CKGJFCPC@dddd?0?5MMMM?5dd?0?5yyyy@ 0000000180064a00     libucrt:nlsdata.obj
 0002:00006a18       ??_C@_08JCCMCCIL@HH?3mm?3ss@ 0000000180064a18     libucrt:nlsdata.obj
 0002:00006a28       ??_C@_17MBGCMIPB@?$AAS?$AAu?$AAn@ 0000000180064a28     libucrt:nlsdata.obj
 0002:00006a30       ??_C@_17KBOMKBF@?$AAM?$AAo?$AAn@ 0000000180064a30     libucrt:nlsdata.obj
 0002:00006a38       ??_C@_17BMKGEGOJ@?$AAT?$AAu?$AAe@ 0000000180064a38     libucrt:nlsdata.obj
 0002:00006a40       ??_C@_17CJEDCEPE@?$AAW?$AAe?$AAd@ 0000000180064a40     libucrt:nlsdata.obj
 0002:00006a48       ??_C@_17PDPHAADD@?$AAT?$AAh?$AAu@ 0000000180064a48     libucrt:nlsdata.obj
 0002:00006a50       ??_C@_17HFOLPPLP@?$AAF?$AAr?$AAi@ 0000000180064a50     libucrt:nlsdata.obj
 0002:00006a58       ??_C@_17GGIBDPIH@?$AAS?$AAa?$AAt@ 0000000180064a58     libucrt:nlsdata.obj
 0002:00006a60       ??_C@_1O@IHNHDHPB@?$AAS?$AAu?$AAn?$AAd?$AAa?$AAy@ 0000000180064a60     libucrt:nlsdata.obj
 0002:00006a70       ??_C@_1O@MMNBFLIA@?$AAM?$AAo?$AAn?$AAd?$AAa?$AAy@ 0000000180064a70     libucrt:nlsdata.obj
 0002:00006a80       ??_C@_1BA@ENFBFFEK@?$AAT?$AAu?$AAe?$AAs?$AAd?$AAa?$AAy@ 0000000180064a80     libucrt:nlsdata.obj
 0002:00006a90       ??_C@_1BE@EBOGMDOH@?$AAW?$AAe?$AAd?$AAn?$AAe?$AAs?$AAd?$AAa?$AAy@ 0000000180064a90     libucrt:nlsdata.obj
 0002:00006aa8       ??_C@_1BC@HHMNLIHE@?$AAT?$AAh?$AAu?$AAr?$AAs?$AAd?$AAa?$AAy@ 0000000180064aa8     libucrt:nlsdata.obj
 0002:00006ac0       ??_C@_1O@PDICJHAG@?$AAF?$AAr?$AAi?$AAd?$AAa?$AAy@ 0000000180064ac0     libucrt:nlsdata.obj
 0002:00006ad0       ??_C@_1BC@ENMNNPAJ@?$AAS?$AAa?$AAt?$AAu?$AAr?$AAd?$AAa?$AAy@ 0000000180064ad0     libucrt:nlsdata.obj
 0002:00006ae8       ??_C@_17DKNBKCHM@?$AAJ?$AAa?$AAn@ 0000000180064ae8     libucrt:nlsdata.obj
 0002:00006af0       ??_C@_17LMDJEKJN@?$AAF?$AAe?$AAb@ 0000000180064af0     libucrt:nlsdata.obj
 0002:00006af8       ??_C@_17CKNLEDEC@?$AAM?$AAa?$AAr@ 0000000180064af8     libucrt:nlsdata.obj
 0002:00006b00       ??_C@_17LFPOIHDD@?$AAA?$AAp?$AAr@ 0000000180064b00     libucrt:nlsdata.obj
 0002:00006b08       ??_C@_17PNNKMEED@?$AAM?$AAa?$AAy@ 0000000180064b08     libucrt:nlsdata.obj
 0002:00006b10       ??_C@_17KCJGOCPB@?$AAJ?$AAu?$AAn@ 0000000180064b10     libucrt:nlsdata.obj
 0002:00006b18       ??_C@_17IJPCKHK@?$AAJ?$AAu?$AAl@ 0000000180064b18     libucrt:nlsdata.obj
 0002:00006b20       ??_C@_17ICPELBCN@?$AAA?$AAu?$AAg@ 0000000180064b20     libucrt:nlsdata.obj
 0002:00006b28       ??_C@_17HCHCOKMG@?$AAS?$AAe?$AAp@ 0000000180064b28     libucrt:nlsdata.obj
 0002:00006b30       ??_C@_17FNLKOI@?$AAO?$AAc?$AAt@ 0000000180064b30     libucrt:nlsdata.obj
 0002:00006b38       ??_C@_17BBDMLCIG@?$AAN?$AAo?$AAv@ 0000000180064b38     libucrt:nlsdata.obj
 0002:00006b40       ??_C@_17EGKACKIF@?$AAD?$AAe?$AAc@ 0000000180064b40     libucrt:nlsdata.obj
 0002:00006b48       ??_C@_1BA@EFMEIEBA@?$AAJ?$AAa?$AAn?$AAu?$AAa?$AAr?$AAy@ 0000000180064b48     libucrt:nlsdata.obj
 0002:00006b58       ??_C@_1BC@JGDDFFAM@?$AAF?$AAe?$AAb?$AAr?$AAu?$AAa?$AAr?$AAy@ 0000000180064b58     libucrt:nlsdata.obj
 0002:00006b70       ??_C@_1M@IKEENEDF@?$AAM?$AAa?$AAr?$AAc?$AAh@ 0000000180064b70     libucrt:nlsdata.obj
 0002:00006b80       ??_C@_1M@GJNLMHFD@?$AAA?$AAp?$AAr?$AAi?$AAl@ 0000000180064b80     libucrt:nlsdata.obj
 0002:00006b90       ??_C@_19EPFLPGAP@?$AAJ?$AAu?$AAn?$AAe@ 0000000180064b90     libucrt:nlsdata.obj
 0002:00006ba0       ??_C@_19BIFMLPCD@?$AAJ?$AAu?$AAl?$AAy@ 0000000180064ba0     libucrt:nlsdata.obj
 0002:00006bb0       ??_C@_1O@PAHLKOAC@?$AAA?$AAu?$AAg?$AAu?$AAs?$AAt@ 0000000180064bb0     libucrt:nlsdata.obj
 0002:00006bc0       ??_C@_1BE@DKAAMBJL@?$AAS?$AAe?$AAp?$AAt?$AAe?$AAm?$AAb?$AAe?$AAr@ 0000000180064bc0     libucrt:nlsdata.obj
 0002:00006bd8       ??_C@_1BA@EPANDLNG@?$AAO?$AAc?$AAt?$AAo?$AAb?$AAe?$AAr@ 0000000180064bd8     libucrt:nlsdata.obj
 0002:00006be8       ??_C@_1BC@BGLIFPF@?$AAN?$AAo?$AAv?$AAe?$AAm?$AAb?$AAe?$AAr@ 0000000180064be8     libucrt:nlsdata.obj
 0002:00006c00       ??_C@_1BC@FEMKIFH@?$AAD?$AAe?$AAc?$AAe?$AAm?$AAb?$AAe?$AAr@ 0000000180064c00     libucrt:nlsdata.obj
 0002:00006c14       ??_C@_15ODEHAHHF@?$AAA?$AAM@ 0000000180064c14     libucrt:nlsdata.obj
 0002:00006c1c       ??_C@_15CLMNNGEL@?$AAP?$AAM@ 0000000180064c1c     libucrt:nlsdata.obj
 0002:00006c28       ??_C@_1BC@IEBCMHCM@?$AAM?$AAM?$AA?1?$AAd?$AAd?$AA?1?$AAy?$AAy@ 0000000180064c28     libucrt:nlsdata.obj
 0002:00006c40       ??_C@_1CI@KNAKOEBC@?$AAd?$AAd?$AAd?$AAd?$AA?0?$AA?5?$AAM?$AAM?$AAM?$AAM?$AA?5?$AAd?$AAd?$AA?0?$AA?5@ 0000000180064c40     libucrt:nlsdata.obj
 0002:00006c68       ??_C@_1BC@GDGBMEMK@?$AAH?$AAH?$AA?3?$AAm?$AAm?$AA?3?$AAs?$AAs@ 0000000180064c68     libucrt:nlsdata.obj
 0002:00006c80       ??_C@_1M@BMHNFIME@?$AAe?$AAn?$AA?9?$AAU?$AAS@ 0000000180064c80     libucrt:nlsdata.obj
 0002:00006c90       _days                      0000000180064c90     libucrt:days.obj
 0002:00006cc8       _lpdays                    0000000180064cc8     libucrt:days.obj
 0002:00006de0       ??_C@_1EA@JGEFHKEI@?$AAa?$AAp?$AAi?$AA?9?$AAm?$AAs?$AA?9?$AAw?$AAi?$AAn?$AA?9?$AAc?$AAo?$AAr?$AAe@ 0000000180064de0     libucrt:winapi_thunks.obj
 0002:00006e20       ??_C@_1DI@IJCEHOCB@?$AAa?$AAp?$AAi?$AA?9?$AAm?$AAs?$AA?9?$AAw?$AAi?$AAn?$AA?9?$AAc?$AAo?$AAr?$AAe@ 0000000180064e20     libucrt:winapi_thunks.obj
 0002:00006e60       ??_C@_1EI@MPIAOHOC@?$AAa?$AAp?$AAi?$AA?9?$AAm?$AAs?$AA?9?$AAw?$AAi?$AAn?$AA?9?$AAc?$AAo?$AAr?$AAe@ 0000000180064e60     libucrt:winapi_thunks.obj
 0002:00006eb0       ??_C@_1FK@FPHCKFIE@?$AAa?$AAp?$AAi?$AA?9?$AAm?$AAs?$AA?9?$AAw?$AAi?$AAn?$AA?9?$AAc?$AAo?$AAr?$AAe@ 0000000180064eb0     libucrt:winapi_thunks.obj
 0002:00006f10       ??_C@_1EM@DILCGIIO@?$AAa?$AAp?$AAi?$AA?9?$AAm?$AAs?$AA?9?$AAw?$AAi?$AAn?$AA?9?$AAc?$AAo?$AAr?$AAe@ 0000000180064f10     libucrt:winapi_thunks.obj
 0002:00006f60       ??_C@_1DM@LNCGDDPN@?$AAa?$AAp?$AAi?$AA?9?$AAm?$AAs?$AA?9?$AAw?$AAi?$AAn?$AA?9?$AAc?$AAo?$AAr?$AAe@ 0000000180064f60     libucrt:winapi_thunks.obj
 0002:00006fa0       ??_C@_1DO@FPAPJEMD@?$AAa?$AAp?$AAi?$AA?9?$AAm?$AAs?$AA?9?$AAw?$AAi?$AAn?$AA?9?$AAc?$AAo?$AAr?$AAe@ 0000000180064fa0     libucrt:winapi_thunks.obj
 0002:00006fe0       ??_C@_1DK@NDHNAHIO@?$AAa?$AAp?$AAi?$AA?9?$AAm?$AAs?$AA?9?$AAw?$AAi?$AAn?$AA?9?$AAc?$AAo?$AAr?$AAe@ 0000000180064fe0     libucrt:winapi_thunks.obj
 0002:00007020       ??_C@_1DM@KGHDGBCM@?$AAa?$AAp?$AAi?$AA?9?$AAm?$AAs?$AA?9?$AAw?$AAi?$AAn?$AA?9?$AAc?$AAo?$AAr?$AAe@ 0000000180065020     libucrt:winapi_thunks.obj
 0002:00007060       ??_C@_1EO@IJIOEFOH@?$AAa?$AAp?$AAi?$AA?9?$AAm?$AAs?$AA?9?$AAw?$AAi?$AAn?$AA?9?$AAr?$AAt?$AAc?$AAo@ 0000000180065060     libucrt:winapi_thunks.obj
 0002:000070b0       ??_C@_1FG@HHGEKANL@?$AAa?$AAp?$AAi?$AA?9?$AAm?$AAs?$AA?9?$AAw?$AAi?$AAn?$AA?9?$AAs?$AAe?$AAc?$AAu@ 00000001800650b0     libucrt:winapi_thunks.obj
 0002:00007110       ??_C@_1EG@DBIOJECG@?$AAe?$AAx?$AAt?$AA?9?$AAm?$AAs?$AA?9?$AAw?$AAi?$AAn?$AA?9?$AAn?$AAt?$AAu?$AAs@ 0000000180065110     libucrt:winapi_thunks.obj
 0002:00007160       ??_C@_1EO@FIHMJCLF@?$AAe?$AAx?$AAt?$AA?9?$AAm?$AAs?$AA?9?$AAw?$AAi?$AAn?$AA?9?$AAn?$AAt?$AAu?$AAs@ 0000000180065160     libucrt:winapi_thunks.obj
 0002:000071b0       ??_C@_1BC@DNHGCMLG@?$AAa?$AAd?$AAv?$AAa?$AAp?$AAi?$AA3?$AA2@ 00000001800651b0     libucrt:winapi_thunks.obj
 0002:000071c8       ??_C@_1M@OAIMIKLP@?$AAn?$AAt?$AAd?$AAl?$AAl@ 00000001800651c8     libucrt:winapi_thunks.obj
 0002:000071e0       ??_C@_1EG@DPGNFKGC@?$AAa?$AAp?$AAi?$AA?9?$AAm?$AAs?$AA?9?$AAw?$AAi?$AAn?$AA?9?$AAa?$AAp?$AAp?$AAm@ 00000001800651e0     libucrt:winapi_thunks.obj
 0002:00007228       ??_C@_1O@BCCLBEOE@?$AAu?$AAs?$AAe?$AAr?$AA3?$AA2@ 0000000180065228     libucrt:winapi_thunks.obj
 0002:00007238       ??_C@_1BA@IAIFMGEF@?$AAe?$AAx?$AAt?$AA?9?$AAm?$AAs?$AA?9@ 0000000180065238     libucrt:winapi_thunks.obj
 0002:00007250       ??_C@_0BA@FHFNEAED@AreFileApisANSI@ 0000000180065250     libucrt:winapi_thunks.obj
 0002:00007268       ??_C@_0BA@IHGNDAEB@CompareStringEx@ 0000000180065268     libucrt:winapi_thunks.obj
 0002:00007280       ??_C@_0BE@LJANKFHF@EnumSystemLocalesEx@ 0000000180065280     libucrt:winapi_thunks.obj
 0002:000072a0       ??_C@_0BA@HNOPNCHB@GetActiveWindow@ 00000001800652a0     libucrt:winapi_thunks.obj
 0002:000072b8       ??_C@_0BA@EPCJIIPD@GetDateFormatEx@ 00000001800652b8     libucrt:winapi_thunks.obj
 0002:000072d0       ??_C@_0BD@HHGDFDBJ@GetLastActivePopup@ 00000001800652d0     libucrt:winapi_thunks.obj
 0002:000072f0       ??_C@_0BA@ONOKGCMP@GetLocaleInfoEx@ 00000001800652f0     libucrt:winapi_thunks.obj
 0002:00007308       ??_C@_0BI@DFKBFLJE@GetProcessWindowStation@ 0000000180065308     libucrt:winapi_thunks.obj
 0002:00007328       ??_C@_0BA@CIJJKCJJ@GetTimeFormatEx@ 0000000180065328     libucrt:winapi_thunks.obj
 0002:00007340       ??_C@_0BJ@PBCCBIPI@GetUserDefaultLocaleName@ 0000000180065340     libucrt:winapi_thunks.obj
 0002:00007368       ??_C@_0BK@DEKFELLI@GetUserObjectInformationW@ 0000000180065368     libucrt:winapi_thunks.obj
 0002:00007398       ??_C@_0BC@CELBKLLA@IsValidLocaleName@ 0000000180065398     libucrt:winapi_thunks.obj
 0002:000073b8       ??_C@_0O@KKBNKAPF@LCMapStringEx@ 00000001800653b8     libucrt:winapi_thunks.obj
 0002:000073d0       ??_C@_0BB@CDHDDLLP@LCIDToLocaleName@ 00000001800653d0     libucrt:winapi_thunks.obj
 0002:000073f0       ??_C@_0BB@HBDEELFH@LocaleNameToLCID@ 00000001800653f0     libucrt:winapi_thunks.obj
 0002:00007410       ??_C@_0M@CHKKJDAI@MessageBoxA@ 0000000180065410     libucrt:winapi_thunks.obj
 0002:00007428       ??_C@_0M@DLDCCGNP@MessageBoxW@ 0000000180065428     libucrt:winapi_thunks.obj
 0002:00007438       ??_C@_0CF@OJOFEIGO@AppPolicyGetProcessTerminationM@ 0000000180065438     libucrt:winapi_thunks.obj
 0002:00007468       ??_C@_0CE@OICFMIKE@AppPolicyGetShowDeveloperDiagno@ 0000000180065468     libucrt:winapi_thunks.obj
 0002:00007490       ??_C@_0BL@ODDJNEDA@AppPolicyGetWindowingModel@ 0000000180065490     libucrt:winapi_thunks.obj
 0002:00007530       ??_C@_03OEIAHPBN@INF@      0000000180065530     libucrt:cvt.obj
 0002:00007534       ??_C@_03OJHLLCGB@inf@      0000000180065534     libucrt:cvt.obj
 0002:00007538       ??_C@_03LKNCIKJB@NAN@      0000000180065538     libucrt:cvt.obj
 0002:0000753c       ??_C@_03LHCJEHON@nan@      000000018006553c     libucrt:cvt.obj
 0002:00007540       ??_C@_09OFJJIMPC@NAN?$CISNAN?$CJ@ 0000000180065540     libucrt:cvt.obj
 0002:00007550       ??_C@_09IPFBKMDL@nan?$CIsnan?$CJ@ 0000000180065550     libucrt:cvt.obj
 0002:00007560       ??_C@_08IKHNHAJ@NAN?$CIIND?$CJ@ 0000000180065560     libucrt:cvt.obj
 0002:00007570       ??_C@_08OFCDMILK@nan?$CIind?$CJ@ 0000000180065570     libucrt:cvt.obj
 0002:0000757c       ??_C@_05KLBDPFGC@e?$CL000@ 000000018006557c     libucrt:cvt.obj
 0002:00007584       ?ccs@?1???$__acrt_stdio_parse_mode@D@@YA?AU__acrt_stdio_stream_mode@@QEBD@Z@4QBDB 0000000180065584     libucrt:openfile.obj
 0002:00007588       ?utf8_encoding@?1???$__acrt_stdio_parse_mode@D@@YA?AU__acrt_stdio_stream_mode@@QEBD@Z@4QBDB 0000000180065588     libucrt:openfile.obj
 0002:00007590       ?utf16_encoding@?1???$__acrt_stdio_parse_mode@D@@YA?AU__acrt_stdio_stream_mode@@QEBD@Z@4QBDB 0000000180065590     libucrt:openfile.obj
 0002:00007598       ?unicode_encoding@?1???$__acrt_stdio_parse_mode@D@@YA?AU__acrt_stdio_stream_mode@@QEBD@Z@4QBDB 0000000180065598     libucrt:openfile.obj
 0002:000075c0       ??_C@_1M@HPNHIDJI@?$AAj?$AAa?$AA?9?$AAJ?$AAP@ 00000001800655c0     libucrt:mbctype.obj
 0002:000075d0       ??_C@_1M@BIBDDEMK@?$AAz?$AAh?$AA?9?$AAC?$AAN@ 00000001800655d0     libucrt:mbctype.obj
 0002:000075e0       ??_C@_1M@JLOOOEGK@?$AAk?$AAo?$AA?9?$AAK?$AAR@ 00000001800655e0     libucrt:mbctype.obj
 0002:000075f0       ??_C@_1M@CLNBBOPM@?$AAz?$AAh?$AA?9?$AAT?$AAW@ 00000001800655f0     libucrt:mbctype.obj
 0002:00007628       ??_C@_03JGHBODFD@pow@      0000000180065628     libucrt:fpexcept.obj
 0002:0000762c       ??_C@_05HGHHAHAP@log10@    000000018006562c     libucrt:fpexcept.obj
 0002:00007634       ??_C@_04PDIFKINK@acos@     0000000180065634     libucrt:fpexcept.obj
 0002:0000763c       ??_C@_04EIAKFFMI@sqrt@     000000018006563c     libucrt:fpexcept.obj
 0002:00007650       __log_256_lead             0000000180065650     libucrt:log_256_lead_tail_table.obj
 0002:00007e60       __log_256_tail             0000000180065e60     libucrt:log_256_lead_tail_table.obj
 0002:00008670       __two_to_jby64_head_table  0000000180066670     libucrt:two_to_jby64_head_tail_table.obj
 0002:00008870       __two_to_jby64_tail_table  0000000180066870     libucrt:two_to_jby64_head_tail_table.obj
 0002:00008a70       ??_C@_04MBFDLNIM@powf@     0000000180066a70     libucrt:pow_special.obj
 0002:00008a80       __two_to_jby64_table       0000000180066a80     libucrt:two_to_jby64_table.obj
 0002:00008c80       __log_F_inv_qword          0000000180066c80     libucrt:log_f_inv_qword_table.obj
 0002:00009490       ??_C@_15HNJCPLHL@?$AAT?$AAZ@ 0000000180067490     libucrt:tzset.obj
 0002:000094a0       __acrt_rg_language         00000001800674a0     libucrt:get_qualified_locale.obj
 0002:000098b0       __acrt_rg_language_count   00000001800678b0     libucrt:get_qualified_locale.obj
 0002:000098c0       __acrt_rg_country          00000001800678c0     libucrt:get_qualified_locale.obj
 0002:00009a30       __acrt_rg_country_count    0000000180067a30     libucrt:get_qualified_locale.obj
 0002:00009a38       ??_C@_1BC@LLOKLNP@?$AAa?$AAm?$AAe?$AAr?$AAi?$AAc?$AAa?$AAn@ 0000000180067a38     libucrt:get_qualified_locale.obj
 0002:00009a50       ??_C@_1CC@HEIGCDGG@?$AAa?$AAm?$AAe?$AAr?$AAi?$AAc?$AAa?$AAn?$AA?5?$AAe?$AAn?$AAg?$AAl?$AAi?$AAs@ 0000000180067a50     libucrt:get_qualified_locale.obj
 0002:00009a78       ??_C@_1CC@IHCNOMIN@?$AAa?$AAm?$AAe?$AAr?$AAi?$AAc?$AAa?$AAn?$AA?9?$AAe?$AAn?$AAg?$AAl?$AAi?$AAs@ 0000000180067a78     libucrt:get_qualified_locale.obj
 0002:00009aa0       ??_C@_1BG@GKAGPCGG@?$AAa?$AAu?$AAs?$AAt?$AAr?$AAa?$AAl?$AAi?$AAa?$AAn@ 0000000180067aa0     libucrt:get_qualified_locale.obj
 0002:00009ab8       ??_C@_1BA@GMENCENF@?$AAb?$AAe?$AAl?$AAg?$AAi?$AAa?$AAn@ 0000000180067ab8     libucrt:get_qualified_locale.obj
 0002:00009ac8       ??_C@_1BC@PJMIIAAN@?$AAc?$AAa?$AAn?$AAa?$AAd?$AAi?$AAa?$AAn@ 0000000180067ac8     libucrt:get_qualified_locale.obj
 0002:00009ae0       ??_C@_17NOIMNFBF@?$AAc?$AAh?$AAh@ 0000000180067ae0     libucrt:get_qualified_locale.obj
 0002:00009ae8       ??_C@_17GGDALCHA@?$AAc?$AAh?$AAi@ 0000000180067ae8     libucrt:get_qualified_locale.obj
 0002:00009af0       ??_C@_1BA@NPNJKIBL@?$AAc?$AAh?$AAi?$AAn?$AAe?$AAs?$AAe@ 0000000180067af0     libucrt:get_qualified_locale.obj
 0002:00009b00       ??_C@_1CC@DINBAMMJ@?$AAc?$AAh?$AAi?$AAn?$AAe?$AAs?$AAe?$AA?9?$AAh?$AAo?$AAn?$AAg?$AAk?$AAo?$AAn@ 0000000180067b00     libucrt:get_qualified_locale.obj
 0002:00009b28       ??_C@_1CG@IOBJPACO@?$AAc?$AAh?$AAi?$AAn?$AAe?$AAs?$AAe?$AA?9?$AAs?$AAi?$AAm?$AAp?$AAl?$AAi?$AAf@ 0000000180067b28     libucrt:get_qualified_locale.obj
 0002:00009b50       ??_C@_1CE@GAJNDCKG@?$AAc?$AAh?$AAi?$AAn?$AAe?$AAs?$AAe?$AA?9?$AAs?$AAi?$AAn?$AAg?$AAa?$AAp?$AAo@ 0000000180067b50     libucrt:get_qualified_locale.obj
 0002:00009b78       ??_C@_1CI@PAJPIOOD@?$AAc?$AAh?$AAi?$AAn?$AAe?$AAs?$AAe?$AA?9?$AAt?$AAr?$AAa?$AAd?$AAi?$AAt?$AAi@ 0000000180067b78     libucrt:get_qualified_locale.obj
 0002:00009ba0       ??_C@_1BM@NILJBMMD@?$AAd?$AAu?$AAt?$AAc?$AAh?$AA?9?$AAb?$AAe?$AAl?$AAg?$AAi?$AAa?$AAn@ 0000000180067ba0     libucrt:get_qualified_locale.obj
 0002:00009bc0       ??_C@_1CC@OOJPJNEJ@?$AAe?$AAn?$AAg?$AAl?$AAi?$AAs?$AAh?$AA?9?$AAa?$AAm?$AAe?$AAr?$AAi?$AAc?$AAa@ 0000000180067bc0     libucrt:get_qualified_locale.obj
 0002:00009be8       ??_C@_1BI@IOLFEEM@?$AAe?$AAn?$AAg?$AAl?$AAi?$AAs?$AAh?$AA?9?$AAa?$AAu?$AAs@ 0000000180067be8     libucrt:get_qualified_locale.obj
 0002:00009c00       ??_C@_1BO@HFFNLENJ@?$AAe?$AAn?$AAg?$AAl?$AAi?$AAs?$AAh?$AA?9?$AAb?$AAe?$AAl?$AAi?$AAz?$AAe@ 0000000180067c00     libucrt:get_qualified_locale.obj
 0002:00009c20       ??_C@_1BI@HAPKJMPO@?$AAe?$AAn?$AAg?$AAl?$AAi?$AAs?$AAh?$AA?9?$AAc?$AAa?$AAn@ 0000000180067c20     libucrt:get_qualified_locale.obj
 0002:00009c38       ??_C@_1CE@HLNDMIOJ@?$AAe?$AAn?$AAg?$AAl?$AAi?$AAs?$AAh?$AA?9?$AAc?$AAa?$AAr?$AAi?$AAb?$AAb?$AAe@ 0000000180067c38     libucrt:get_qualified_locale.obj
 0002:00009c60       ??_C@_1BI@LDHJHHAC@?$AAe?$AAn?$AAg?$AAl?$AAi?$AAs?$AAh?$AA?9?$AAi?$AAr?$AAe@ 0000000180067c60     libucrt:get_qualified_locale.obj
 0002:00009c78       ??_C@_1CA@NJMMCFOC@?$AAe?$AAn?$AAg?$AAl?$AAi?$AAs?$AAh?$AA?9?$AAj?$AAa?$AAm?$AAa?$AAi?$AAc?$AAa@ 0000000180067c78     libucrt:get_qualified_locale.obj
 0002:00009c98       ??_C@_1BG@BHJEBBGG@?$AAe?$AAn?$AAg?$AAl?$AAi?$AAs?$AAh?$AA?9?$AAn?$AAz@ 0000000180067c98     libucrt:get_qualified_locale.obj
 0002:00009cb0       ??_C@_1CK@FGOEJJCO@?$AAe?$AAn?$AAg?$AAl?$AAi?$AAs?$AAh?$AA?9?$AAs?$AAo?$AAu?$AAt?$AAh?$AA?5?$AAa@ 0000000180067cb0     libucrt:get_qualified_locale.obj
 0002:00009ce0       ??_C@_1DE@PDBJPCJ@?$AAe?$AAn?$AAg?$AAl?$AAi?$AAs?$AAh?$AA?9?$AAt?$AAr?$AAi?$AAn?$AAi?$AAd?$AAa@ 0000000180067ce0     libucrt:get_qualified_locale.obj
 0002:00009d18       ??_C@_1BG@JGCANDME@?$AAe?$AAn?$AAg?$AAl?$AAi?$AAs?$AAh?$AA?9?$AAu?$AAk@ 0000000180067d18     libucrt:get_qualified_locale.obj
 0002:00009d30       ??_C@_1BG@DINKMLE@?$AAe?$AAn?$AAg?$AAl?$AAi?$AAs?$AAh?$AA?9?$AAu?$AAs@ 0000000180067d30     libucrt:get_qualified_locale.obj
 0002:00009d48       ??_C@_1BI@NMFDBHJE@?$AAe?$AAn?$AAg?$AAl?$AAi?$AAs?$AAh?$AA?9?$AAu?$AAs?$AAa@ 0000000180067d48     libucrt:get_qualified_locale.obj
 0002:00009d60       ??_C@_1BO@OIHKJKII@?$AAf?$AAr?$AAe?$AAn?$AAc?$AAh?$AA?9?$AAb?$AAe?$AAl?$AAg?$AAi?$AAa?$AAn@ 0000000180067d60     libucrt:get_qualified_locale.obj
 0002:00009d80       ??_C@_1CA@NKAELJKI@?$AAf?$AAr?$AAe?$AAn?$AAc?$AAh?$AA?9?$AAc?$AAa?$AAn?$AAa?$AAd?$AAi?$AAa?$AAn@ 0000000180067d80     libucrt:get_qualified_locale.obj
 0002:00009da0       ??_C@_1CE@MGKCNLGN@?$AAf?$AAr?$AAe?$AAn?$AAc?$AAh?$AA?9?$AAl?$AAu?$AAx?$AAe?$AAm?$AAb?$AAo?$AAu@ 0000000180067da0     libucrt:get_qualified_locale.obj
 0002:00009dc8       ??_C@_1BK@CEGEAILM@?$AAf?$AAr?$AAe?$AAn?$AAc?$AAh?$AA?9?$AAs?$AAw?$AAi?$AAs?$AAs@ 0000000180067dc8     libucrt:get_qualified_locale.obj
 0002:00009de8       ??_C@_1CA@PAFKEOCC@?$AAg?$AAe?$AAr?$AAm?$AAa?$AAn?$AA?9?$AAa?$AAu?$AAs?$AAt?$AAr?$AAi?$AAa?$AAn@ 0000000180067de8     libucrt:get_qualified_locale.obj
 0002:00009e08       ??_C@_1CI@HCFHGOFD@?$AAg?$AAe?$AAr?$AAm?$AAa?$AAn?$AA?9?$AAl?$AAi?$AAc?$AAh?$AAt?$AAe?$AAn?$AAs@ 0000000180067e08     libucrt:get_qualified_locale.obj
 0002:00009e30       ??_C@_1CE@FEDDNPDG@?$AAg?$AAe?$AAr?$AAm?$AAa?$AAn?$AA?9?$AAl?$AAu?$AAx?$AAe?$AAm?$AAb?$AAo?$AAu@ 0000000180067e30     libucrt:get_qualified_locale.obj
 0002:00009e58       ??_C@_1BK@LIMINNMN@?$AAg?$AAe?$AAr?$AAm?$AAa?$AAn?$AA?9?$AAs?$AAw?$AAi?$AAs?$AAs@ 0000000180067e58     libucrt:get_qualified_locale.obj
 0002:00009e78       ??_C@_1BM@LGMDBEPD@?$AAi?$AAr?$AAi?$AAs?$AAh?$AA?9?$AAe?$AAn?$AAg?$AAl?$AAi?$AAs?$AAh@ 0000000180067e78     libucrt:get_qualified_locale.obj
 0002:00009e98       ??_C@_1BM@NNCFBAEE@?$AAi?$AAt?$AAa?$AAl?$AAi?$AAa?$AAn?$AA?9?$AAs?$AAw?$AAi?$AAs?$AAs@ 0000000180067e98     libucrt:get_qualified_locale.obj
 0002:00009eb8       ??_C@_1BE@FEDJNPIB@?$AAn?$AAo?$AAr?$AAw?$AAe?$AAg?$AAi?$AAa?$AAn@ 0000000180067eb8     libucrt:get_qualified_locale.obj
 0002:00009ed0       ??_C@_1CC@CILKDEIE@?$AAn?$AAo?$AAr?$AAw?$AAe?$AAg?$AAi?$AAa?$AAn?$AA?9?$AAb?$AAo?$AAk?$AAm?$AAa@ 0000000180067ed0     libucrt:get_qualified_locale.obj
 0002:00009ef8       ??_C@_1CE@DHMMHEPL@?$AAn?$AAo?$AAr?$AAw?$AAe?$AAg?$AAi?$AAa?$AAn?$AA?9?$AAn?$AAy?$AAn?$AAo?$AAr@ 0000000180067ef8     libucrt:get_qualified_locale.obj
 0002:00009f20       ??_C@_1CK@OPNMHECD@?$AAp?$AAo?$AAr?$AAt?$AAu?$AAg?$AAu?$AAe?$AAs?$AAe?$AA?9?$AAb?$AAr?$AAa?$AAz@ 0000000180067f20     libucrt:get_qualified_locale.obj
 0002:00009f50       ??_C@_1CE@KEEHCDB@?$AAs?$AAp?$AAa?$AAn?$AAi?$AAs?$AAh?$AA?9?$AAa?$AAr?$AAg?$AAe?$AAn?$AAt?$AAi@ 0000000180067f50     libucrt:get_qualified_locale.obj
 0002:00009f78       ??_C@_1CA@GIAOLHJD@?$AAs?$AAp?$AAa?$AAn?$AAi?$AAs?$AAh?$AA?9?$AAb?$AAo?$AAl?$AAi?$AAv?$AAi?$AAa@ 0000000180067f78     libucrt:get_qualified_locale.obj
 0002:00009f98       ??_C@_1BM@OJNDFNPD@?$AAs?$AAp?$AAa?$AAn?$AAi?$AAs?$AAh?$AA?9?$AAc?$AAh?$AAi?$AAl?$AAe@ 0000000180067f98     libucrt:get_qualified_locale.obj
 0002:00009fb8       ??_C@_1CC@OCOLPALL@?$AAs?$AAp?$AAa?$AAn?$AAi?$AAs?$AAh?$AA?9?$AAc?$AAo?$AAl?$AAo?$AAm?$AAb?$AAi@ 0000000180067fb8     libucrt:get_qualified_locale.obj
 0002:00009fe0       ??_C@_1CG@BPOFMKBB@?$AAs?$AAp?$AAa?$AAn?$AAi?$AAs?$AAh?$AA?9?$AAc?$AAo?$AAs?$AAt?$AAa?$AA?5?$AAr@ 0000000180067fe0     libucrt:get_qualified_locale.obj
 0002:0000a008       ??_C@_1DG@IGOBAPBB@?$AAs?$AAp?$AAa?$AAn?$AAi?$AAs?$AAh?$AA?9?$AAd?$AAo?$AAm?$AAi?$AAn?$AAi?$AAc@ 0000000180068008     libucrt:get_qualified_locale.obj
 0002:0000a040       ??_C@_1CA@JHAPGEGI@?$AAs?$AAp?$AAa?$AAn?$AAi?$AAs?$AAh?$AA?9?$AAe?$AAc?$AAu?$AAa?$AAd?$AAo?$AAr@ 0000000180068040     libucrt:get_qualified_locale.obj
 0002:0000a060       ??_C@_1CI@LAPALJPP@?$AAs?$AAp?$AAa?$AAn?$AAi?$AAs?$AAh?$AA?9?$AAe?$AAl?$AA?5?$AAs?$AAa?$AAl?$AAv@ 0000000180068060     libucrt:get_qualified_locale.obj
 0002:0000a088       ??_C@_1CE@PDGBOFOM@?$AAs?$AAp?$AAa?$AAn?$AAi?$AAs?$AAh?$AA?9?$AAg?$AAu?$AAa?$AAt?$AAe?$AAm?$AAa@ 0000000180068088     libucrt:get_qualified_locale.obj
 0002:0000a0b0       ??_C@_1CC@NBEBAODI@?$AAs?$AAp?$AAa?$AAn?$AAi?$AAs?$AAh?$AA?9?$AAh?$AAo?$AAn?$AAd?$AAu?$AAr?$AAa@ 00000001800680b0     libucrt:get_qualified_locale.obj
 0002:0000a0d8       ??_C@_1CA@LLKGHBMF@?$AAs?$AAp?$AAa?$AAn?$AAi?$AAs?$AAh?$AA?9?$AAm?$AAe?$AAx?$AAi?$AAc?$AAa?$AAn@ 00000001800680d8     libucrt:get_qualified_locale.obj
 0002:0000a0f8       ??_C@_1BO@LKNDOIGD@?$AAs?$AAp?$AAa?$AAn?$AAi?$AAs?$AAh?$AA?9?$AAm?$AAo?$AAd?$AAe?$AAr?$AAn@ 00000001800680f8     libucrt:get_qualified_locale.obj
 0002:0000a118       ??_C@_1CE@NMDMOEEB@?$AAs?$AAp?$AAa?$AAn?$AAi?$AAs?$AAh?$AA?9?$AAn?$AAi?$AAc?$AAa?$AAr?$AAa?$AAg@ 0000000180068118     libucrt:get_qualified_locale.obj
 0002:0000a140       ??_C@_1BO@LLCBEJGB@?$AAs?$AAp?$AAa?$AAn?$AAi?$AAs?$AAh?$AA?9?$AAp?$AAa?$AAn?$AAa?$AAm?$AAa@ 0000000180068140     libucrt:get_qualified_locale.obj
 0002:0000a160       ??_C@_1CC@FKPGGIHO@?$AAs?$AAp?$AAa?$AAn?$AAi?$AAs?$AAh?$AA?9?$AAp?$AAa?$AAr?$AAa?$AAg?$AAu?$AAa@ 0000000180068160     libucrt:get_qualified_locale.obj
 0002:0000a188       ??_C@_1BK@CDEIHOOP@?$AAs?$AAp?$AAa?$AAn?$AAi?$AAs?$AAh?$AA?9?$AAp?$AAe?$AAr?$AAu@ 0000000180068188     libucrt:get_qualified_locale.obj
 0002:0000a1a8       ??_C@_1CI@GAHAKKGP@?$AAs?$AAp?$AAa?$AAn?$AAi?$AAs?$AAh?$AA?9?$AAp?$AAu?$AAe?$AAr?$AAt?$AAo?$AA?5@ 00000001800681a8     libucrt:get_qualified_locale.obj
 0002:0000a1d0       ??_C@_1CA@NKJBCAGP@?$AAs?$AAp?$AAa?$AAn?$AAi?$AAs?$AAh?$AA?9?$AAu?$AAr?$AAu?$AAg?$AAu?$AAa?$AAy@ 00000001800681d0     libucrt:get_qualified_locale.obj
 0002:0000a1f0       ??_C@_1CE@ODILCONM@?$AAs?$AAp?$AAa?$AAn?$AAi?$AAs?$AAh?$AA?9?$AAv?$AAe?$AAn?$AAe?$AAz?$AAu?$AAe@ 00000001800681f0     libucrt:get_qualified_locale.obj
 0002:0000a218       ??_C@_1CA@OBNMCGFO@?$AAs?$AAw?$AAe?$AAd?$AAi?$AAs?$AAh?$AA?9?$AAf?$AAi?$AAn?$AAl?$AAa?$AAn?$AAd@ 0000000180068218     libucrt:get_qualified_locale.obj
 0002:0000a238       ??_C@_1M@PIPDDPPI@?$AAs?$AAw?$AAi?$AAs?$AAs@ 0000000180068238     libucrt:get_qualified_locale.obj
 0002:0000a244       ??_C@_15PJPFLCCM@?$AAu?$AAk@ 0000000180068244     libucrt:get_qualified_locale.obj
 0002:0000a24c       ??_C@_15GMFIMNFM@?$AAu?$AAs@ 000000018006824c     libucrt:get_qualified_locale.obj
 0002:0000a258       ??_C@_17HAEBFAGL@?$AAu?$AAs?$AAa@ 0000000180068258     libucrt:get_qualified_locale.obj
 0002:0000a260       ??_C@_1BA@DPFJEPHB@?$AAa?$AAm?$AAe?$AAr?$AAi?$AAc?$AAa@ 0000000180068260     libucrt:get_qualified_locale.obj
 0002:0000a270       ??_C@_1BA@ELOGGFK@?$AAb?$AAr?$AAi?$AAt?$AAa?$AAi?$AAn@ 0000000180068270     libucrt:get_qualified_locale.obj
 0002:0000a280       ??_C@_1M@GHBGIGDA@?$AAc?$AAh?$AAi?$AAn?$AAa@ 0000000180068280     libucrt:get_qualified_locale.obj
 0002:0000a290       ??_C@_1M@NCHEJOPO@?$AAc?$AAz?$AAe?$AAc?$AAh@ 0000000180068290     libucrt:get_qualified_locale.obj
 0002:0000a2a0       ??_C@_1BA@BKPAPBLA@?$AAe?$AAn?$AAg?$AAl?$AAa?$AAn?$AAd@ 00000001800682a0     libucrt:get_qualified_locale.obj
 0002:0000a2b0       ??_C@_1BM@HKBCKIPC@?$AAg?$AAr?$AAe?$AAa?$AAt?$AA?5?$AAb?$AAr?$AAi?$AAt?$AAa?$AAi?$AAn@ 00000001800682b0     libucrt:get_qualified_locale.obj
 0002:0000a2d0       ??_C@_1BA@PPCHPGJB@?$AAh?$AAo?$AAl?$AAl?$AAa?$AAn?$AAd@ 00000001800682d0     libucrt:get_qualified_locale.obj
 0002:0000a2e0       ??_C@_1BE@JBMPEGDG@?$AAh?$AAo?$AAn?$AAg?$AA?9?$AAk?$AAo?$AAn?$AAg@ 00000001800682e0     libucrt:get_qualified_locale.obj
 0002:0000a2f8       ??_C@_1BI@KOELBBPJ@?$AAn?$AAe?$AAw?$AA?9?$AAz?$AAe?$AAa?$AAl?$AAa?$AAn?$AAd@ 00000001800682f8     libucrt:get_qualified_locale.obj
 0002:0000a310       ??_C@_15HIEBHAIO@?$AAn?$AAz@ 0000000180068310     libucrt:get_qualified_locale.obj
 0002:0000a318       ??_C@_1BC@CHBCPFPI@?$AAp?$AAr?$AA?5?$AAc?$AAh?$AAi?$AAn?$AAa@ 0000000180068318     libucrt:get_qualified_locale.obj
 0002:0000a330       ??_C@_1BC@JAOIIFKD@?$AAp?$AAr?$AA?9?$AAc?$AAh?$AAi?$AAn?$AAa@ 0000000180068330     libucrt:get_qualified_locale.obj
 0002:0000a348       ??_C@_1BI@BEHPPHKC@?$AAp?$AAu?$AAe?$AAr?$AAt?$AAo?$AA?9?$AAr?$AAi?$AAc?$AAo@ 0000000180068348     libucrt:get_qualified_locale.obj
 0002:0000a360       ??_C@_1O@PAEOFKDI@?$AAs?$AAl?$AAo?$AAv?$AAa?$AAk@ 0000000180068360     libucrt:get_qualified_locale.obj
 0002:0000a370       ??_C@_1BK@FIHMCKAM@?$AAs?$AAo?$AAu?$AAt?$AAh?$AA?5?$AAa?$AAf?$AAr?$AAi?$AAc?$AAa@ 0000000180068370     libucrt:get_qualified_locale.obj
 0002:0000a390       ??_C@_1BI@NAEOODKB@?$AAs?$AAo?$AAu?$AAt?$AAh?$AA?5?$AAk?$AAo?$AAr?$AAe?$AAa@ 0000000180068390     libucrt:get_qualified_locale.obj
 0002:0000a3a8       ??_C@_1BK@FBDGGIFF@?$AAs?$AAo?$AAu?$AAt?$AAh?$AA?9?$AAa?$AAf?$AAr?$AAi?$AAc?$AAa@ 00000001800683a8     libucrt:get_qualified_locale.obj
 0002:0000a3c8       ??_C@_1BI@GHLEJDPK@?$AAs?$AAo?$AAu?$AAt?$AAh?$AA?9?$AAk?$AAo?$AAr?$AAe?$AAa@ 00000001800683c8     libucrt:get_qualified_locale.obj
 0002:0000a3e0       ??_C@_1CE@PLHLOMJF@?$AAt?$AAr?$AAi?$AAn?$AAi?$AAd?$AAa?$AAd?$AA?5?$AA?$CG?$AA?5?$AAt?$AAo?$AAb?$AAa@ 00000001800683e0     libucrt:get_qualified_locale.obj
 0002:0000a408       ??_C@_1BO@MODIMHHI@?$AAu?$AAn?$AAi?$AAt?$AAe?$AAd?$AA?9?$AAk?$AAi?$AAn?$AAg?$AAd?$AAo?$AAm@ 0000000180068408     libucrt:get_qualified_locale.obj
 0002:0000a428       ??_C@_1BM@FFHJONBJ@?$AAu?$AAn?$AAi?$AAt?$AAe?$AAd?$AA?9?$AAs?$AAt?$AAa?$AAt?$AAe?$AAs@ 0000000180068428     libucrt:get_qualified_locale.obj
 0002:0000a448       ??_C@_19MPDNHKDG@?$AAu?$AAt?$AAf?$AA8@ 0000000180068448     libucrt:get_qualified_locale.obj
 0002:0000a458       ??_C@_17DNCLJFIF@?$AAA?$AAC?$AAP@ 0000000180068458     libucrt:get_qualified_locale.obj
 0002:0000a460       ??_C@_1M@FPEIIFAM@?$AAu?$AAt?$AAf?$AA?9?$AA8@ 0000000180068460     libucrt:get_qualified_locale.obj
 0002:0000a470       ??_C@_17CIKBIHLH@?$AAO?$AAC?$AAP@ 0000000180068470     libucrt:get_qualified_locale.obj
 0002:0000a478       __rglangidNotDefault       0000000180068478     libucrt:getqloc_downlevel.obj
 0002:0000b300       ??_C@_15EMKDOKLE@?$AAa?$AAr@ 0000000180069300     libucrt:lcidtoname_downlevel.obj
 0002:0000b308       ??_C@_15KNPADPLH@?$AAb?$AAg@ 0000000180069308     libucrt:lcidtoname_downlevel.obj
 0002:0000b310       ??_C@_15EDMHLDMO@?$AAc?$AAa@ 0000000180069310     libucrt:lcidtoname_downlevel.obj
 0002:0000b318       ??_C@_1O@BPEAJADD@?$AAz?$AAh?$AA?9?$AAC?$AAH?$AAS@ 0000000180069318     libucrt:lcidtoname_downlevel.obj
 0002:0000b328       ??_C@_15LJNHCMNK@?$AAc?$AAs@ 0000000180069328     libucrt:lcidtoname_downlevel.obj
 0002:0000b330       ??_C@_15FOMCIDHG@?$AAd?$AAa@ 0000000180069330     libucrt:lcidtoname_downlevel.obj
 0002:0000b338       ??_C@_15NBKABECB@?$AAd?$AAe@ 0000000180069338     libucrt:lcidtoname_downlevel.obj
 0002:0000b340       ??_C@_15GHPEIIAO@?$AAe?$AAl@ 0000000180069340     libucrt:lcidtoname_downlevel.obj
 0002:0000b348       ??_C@_15MNPNEAIF@?$AAe?$AAn@ 0000000180069348     libucrt:lcidtoname_downlevel.obj
 0002:0000b350       ??_C@_15GPIOMPMH@?$AAe?$AAs@ 0000000180069350     libucrt:lcidtoname_downlevel.obj
 0002:0000b358       ??_C@_15NGLOAKJC@?$AAf?$AAi@ 0000000180069358     libucrt:lcidtoname_downlevel.obj
 0002:0000b360       ??_C@_15FBKGNKAM@?$AAf?$AAr@ 0000000180069360     libucrt:lcidtoname_downlevel.obj
 0002:0000b368       ??_C@_15KGGCNEFK@?$AAh?$AAe@ 0000000180069368     libucrt:lcidtoname_downlevel.obj
 0002:0000b370       ??_C@_15PGHLIDMF@?$AAh?$AAu@ 0000000180069370     libucrt:lcidtoname_downlevel.obj
 0002:0000b378       ??_C@_15BIEMAPLM@?$AAi?$AAs@ 0000000180069378     libucrt:lcidtoname_downlevel.obj
 0002:0000b380       ??_C@_15IFJLDHAF@?$AAi?$AAt@ 0000000180069380     libucrt:lcidtoname_downlevel.obj
 0002:0000b388       ??_C@_15GEMIOCAG@?$AAj?$AAa@ 0000000180069388     libucrt:lcidtoname_downlevel.obj
 0002:0000b390       ??_C@_15EPELEGJA@?$AAk?$AAo@ 0000000180069390     libucrt:lcidtoname_downlevel.obj
 0002:0000b398       ??_C@_15NDDHIMN@?$AAn?$AAl@ 0000000180069398     libucrt:lcidtoname_downlevel.obj
 0002:0000b3a0       ??_C@_15BPIGNHCD@?$AAn?$AAo@ 00000001800693a0     libucrt:lcidtoname_downlevel.obj
 0002:0000b3a8       ??_C@_15DEOPBLCG@?$AAp?$AAl@ 00000001800693a8     libucrt:lcidtoname_downlevel.obj
 0002:0000b3b0       ??_C@_15KBECGEFG@?$AAp?$AAt@ 00000001800693b0     libucrt:lcidtoname_downlevel.obj
 0002:0000b3b8       ??_C@_15GLJCBFMD@?$AAr?$AAo@ 00000001800693b8     libucrt:lcidtoname_downlevel.obj
 0002:0000b3c0       ??_C@_15FEDGKCDI@?$AAr?$AAu@ 00000001800693c0     libucrt:lcidtoname_downlevel.obj
 0002:0000b3c8       ??_C@_15GLKMLLHM@?$AAh?$AAr@ 00000001800693c8     libucrt:lcidtoname_downlevel.obj
 0002:0000b3d0       ??_C@_15CPKMFBDB@?$AAs?$AAk@ 00000001800693d0     libucrt:lcidtoname_downlevel.obj
 0002:0000b3d8       ??_C@_15BAAIOGMK@?$AAs?$AAq@ 00000001800693d8     libucrt:lcidtoname_downlevel.obj
 0002:0000b3e0       ??_C@_15INNPNOHD@?$AAs?$AAv@ 00000001800693e0     libucrt:lcidtoname_downlevel.obj
 0002:0000b3e8       ??_C@_15CABMMOGH@?$AAt?$AAh@ 00000001800693e8     libucrt:lcidtoname_downlevel.obj
 0002:0000b3f0       ??_C@_15BPLIHJJM@?$AAt?$AAr@ 00000001800693f0     libucrt:lcidtoname_downlevel.obj
 0002:0000b3f8       ??_C@_15NEOEKKDJ@?$AAu?$AAr@ 00000001800693f8     libucrt:lcidtoname_downlevel.obj
 0002:0000b400       ??_C@_15NFICGAJK@?$AAi?$AAd@ 0000000180069400     libucrt:lcidtoname_downlevel.obj
 0002:0000b408       ??_C@_15HPJPHDM@?$AAb?$AAe@ 0000000180069408     libucrt:lcidtoname_downlevel.obj
 0002:0000b410       ??_C@_15LCHLGJII@?$AAs?$AAl@ 0000000180069410     libucrt:lcidtoname_downlevel.obj
 0002:0000b418       ??_C@_15PCFJPHHO@?$AAe?$AAt@ 0000000180069418     libucrt:lcidtoname_downlevel.obj
 0002:0000b420       ??_C@_15HPFPGODN@?$AAl?$AAv@ 0000000180069420     libucrt:lcidtoname_downlevel.obj
 0002:0000b428       ??_C@_15NFFGKGLG@?$AAl?$AAt@ 0000000180069428     libucrt:lcidtoname_downlevel.obj
 0002:0000b430       ??_C@_15BDAKCCHN@?$AAf?$AAa@ 0000000180069430     libucrt:lcidtoname_downlevel.obj
 0002:0000b438       ??_C@_15NFGIAIAJ@?$AAv?$AAi@ 0000000180069438     libucrt:lcidtoname_downlevel.obj
 0002:0000b440       ??_C@_15LMKNDMHN@?$AAh?$AAy@ 0000000180069440     libucrt:lcidtoname_downlevel.obj
 0002:0000b448       ??_C@_15IJBHMCFL@?$AAa?$AAz@ 0000000180069448     libucrt:lcidtoname_downlevel.obj
 0002:0000b450       ??_C@_15EKOFJABL@?$AAe?$AAu@ 0000000180069450     libucrt:lcidtoname_downlevel.obj
 0002:0000b458       ??_C@_15BGHADCNK@?$AAm?$AAk@ 0000000180069458     libucrt:lcidtoname_downlevel.obj
 0002:0000b460       ??_C@_15JDNICKHM@?$AAa?$AAf@ 0000000180069460     libucrt:lcidtoname_downlevel.obj
 0002:0000b468       ??_C@_15KPJEDBKD@?$AAk?$AAa@ 0000000180069468     libucrt:lcidtoname_downlevel.obj
 0002:0000b470       ??_C@_15PDNFFFEO@?$AAf?$AAo@ 0000000180069470     libucrt:lcidtoname_downlevel.obj
 0002:0000b478       ??_C@_15OMLEGLOC@?$AAh?$AAi@ 0000000180069478     libucrt:lcidtoname_downlevel.obj
 0002:0000b480       ??_C@_15IDNNENKK@?$AAm?$AAs@ 0000000180069480     libucrt:lcidtoname_downlevel.obj
 0002:0000b488       ??_C@_15MACJNBMH@?$AAk?$AAk@ 0000000180069488     libucrt:lcidtoname_downlevel.obj
 0002:0000b490       ??_C@_15DKDJEOND@?$AAk?$AAy@ 0000000180069490     libucrt:lcidtoname_downlevel.obj
 0002:0000b498       ??_C@_15DFGDLJBG@?$AAs?$AAw@ 0000000180069498     libucrt:lcidtoname_downlevel.obj
 0002:0000b4a0       ??_C@_15BBFAICNG@?$AAu?$AAz@ 00000001800694a0     libucrt:lcidtoname_downlevel.obj
 0002:0000b4a8       ??_C@_15DKNDCGEA@?$AAt?$AAt@ 00000001800694a8     libucrt:lcidtoname_downlevel.obj
 0002:0000b4b0       ??_C@_15MGIFMDPL@?$AAp?$AAa@ 00000001800694b0     libucrt:lcidtoname_downlevel.obj
 0002:0000b4b8       ??_C@_15HCNDBBA@?$AAg?$AAu@ 00000001800694b8     libucrt:lcidtoname_downlevel.obj
 0002:0000b4c0       ??_C@_15FNBEIBON@?$AAt?$AAa@ 00000001800694c0     libucrt:lcidtoname_downlevel.obj
 0002:0000b4c8       ??_C@_15NCHGBGLK@?$AAt?$AAe@ 00000001800694c8     libucrt:lcidtoname_downlevel.obj
 0002:0000b4d0       ??_C@_15PHPHCBPF@?$AAk?$AAn@ 00000001800694d0     libucrt:lcidtoname_downlevel.obj
 0002:0000b4d8       ??_C@_15DLGBCKMP@?$AAm?$AAr@ 00000001800694d8     libucrt:lcidtoname_downlevel.obj
 0002:0000b4e0       ??_C@_15EABBLBFF@?$AAs?$AAa@ 00000001800694e0     libucrt:lcidtoname_downlevel.obj
 0002:0000b4e8       ??_C@_15CBKOMCOI@?$AAm?$AAn@ 00000001800694e8     libucrt:lcidtoname_downlevel.obj
 0002:0000b4f0       ??_C@_15CKDMCJAF@?$AAg?$AAl@ 00000001800694f0     libucrt:lcidtoname_downlevel.obj
 0002:0000b4f8       ??_C@_17CNJFBPG@?$AAk?$AAo?$AAk@ 00000001800694f8     libucrt:lcidtoname_downlevel.obj
 0002:0000b500       ??_C@_17FFBJICPL@?$AAs?$AAy?$AAr@ 0000000180069500     libucrt:lcidtoname_downlevel.obj
 0002:0000b508       ??_C@_17KPNDCPAF@?$AAd?$AAi?$AAv@ 0000000180069508     libucrt:lcidtoname_downlevel.obj
 0002:0000b510       ??_C@_1M@OKAHONE@?$AAa?$AAr?$AA?9?$AAS?$AAA@ 0000000180069510     libucrt:lcidtoname_downlevel.obj
 0002:0000b520       ??_C@_1M@FFFIGIGK@?$AAb?$AAg?$AA?9?$AAB?$AAG@ 0000000180069520     libucrt:lcidtoname_downlevel.obj
 0002:0000b530       ??_C@_1M@BJNKEDC@?$AAc?$AAa?$AA?9?$AAE?$AAS@ 0000000180069530     libucrt:lcidtoname_downlevel.obj
 0002:0000b540       ??_C@_1M@IJJHFJHA@?$AAc?$AAs?$AA?9?$AAC?$AAZ@ 0000000180069540     libucrt:lcidtoname_downlevel.obj
 0002:0000b550       ??_C@_1M@CLPEOBGI@?$AAd?$AAa?$AA?9?$AAD?$AAK@ 0000000180069550     libucrt:lcidtoname_downlevel.obj
 0002:0000b560       ??_C@_1M@MCMADGCB@?$AAd?$AAe?$AA?9?$AAD?$AAE@ 0000000180069560     libucrt:lcidtoname_downlevel.obj
 0002:0000b570       ??_C@_1M@OOCKEMAM@?$AAe?$AAl?$AA?9?$AAG?$AAR@ 0000000180069570     libucrt:lcidtoname_downlevel.obj
 0002:0000b580       ??_C@_1M@DDNJFGID@?$AAf?$AAi?$AA?9?$AAF?$AAI@ 0000000180069580     libucrt:lcidtoname_downlevel.obj
 0002:0000b590       ??_C@_1M@GLIPPMAC@?$AAf?$AAr?$AA?9?$AAF?$AAR@ 0000000180069590     libucrt:lcidtoname_downlevel.obj
 0002:0000b5a0       ??_C@_1M@GFMCHPE@?$AAh?$AAe?$AA?9?$AAI?$AAL@ 00000001800695a0     libucrt:lcidtoname_downlevel.obj
 0002:0000b5b0       ??_C@_1M@MHLPGNKM@?$AAh?$AAu?$AA?9?$AAH?$AAU@ 00000001800695b0     libucrt:lcidtoname_downlevel.obj
 0002:0000b5c0       ??_C@_1M@LPDDNNPN@?$AAi?$AAs?$AA?9?$AAI?$AAS@ 00000001800695c0     libucrt:lcidtoname_downlevel.obj
 0002:0000b5d0       ??_C@_1M@MADIPODN@?$AAi?$AAt?$AA?9?$AAI?$AAT@ 00000001800695d0     libucrt:lcidtoname_downlevel.obj
 0002:0000b5e0       ??_C@_1M@IHBJJGG@?$AAn?$AAl?$AA?9?$AAN?$AAL@ 00000001800695e0     libucrt:lcidtoname_downlevel.obj
 0002:0000b5f0       ??_C@_1M@EANAGDL@?$AAn?$AAb?$AA?9?$AAN?$AAO@ 00000001800695f0     libucrt:lcidtoname_downlevel.obj
 0002:0000b600       ??_C@_1M@NEIEMEGP@?$AAp?$AAl?$AA?9?$AAP?$AAL@ 0000000180069600     libucrt:lcidtoname_downlevel.obj
 0002:0000b610       ??_C@_1M@BOCFIGEP@?$AAp?$AAt?$AA?9?$AAB?$AAR@ 0000000180069610     libucrt:lcidtoname_downlevel.obj
 0002:0000b620       ??_C@_1M@IMPFOPBG@?$AAr?$AAo?$AA?9?$AAR?$AAO@ 0000000180069620     libucrt:lcidtoname_downlevel.obj
 0002:0000b630       ??_C@_1M@IDNNEJMM@?$AAr?$AAu?$AA?9?$AAR?$AAU@ 0000000180069630     libucrt:lcidtoname_downlevel.obj
 0002:0000b640       ??_C@_1M@LILEEOGM@?$AAh?$AAr?$AA?9?$AAH?$AAR@ 0000000180069640     libucrt:lcidtoname_downlevel.obj
 0002:0000b650       ??_C@_1M@FKIFEHPB@?$AAs?$AAk?$AA?9?$AAS?$AAK@ 0000000180069650     libucrt:lcidtoname_downlevel.obj
 0002:0000b660       ??_C@_1M@LJMAMNPJ@?$AAs?$AAq?$AA?9?$AAA?$AAL@ 0000000180069660     libucrt:lcidtoname_downlevel.obj
 0002:0000b670       ??_C@_1M@GIAKDKJK@?$AAs?$AAv?$AA?9?$AAS?$AAE@ 0000000180069670     libucrt:lcidtoname_downlevel.obj
 0002:0000b680       ??_C@_1M@MKJKIKCL@?$AAt?$AAh?$AA?9?$AAT?$AAH@ 0000000180069680     libucrt:lcidtoname_downlevel.obj
 0002:0000b690       ??_C@_1M@MFLCCMPB@?$AAt?$AAr?$AA?9?$AAT?$AAR@ 0000000180069690     libucrt:lcidtoname_downlevel.obj
 0002:0000b6a0       ??_C@_1M@OIJHDKJN@?$AAu?$AAr?$AA?9?$AAP?$AAK@ 00000001800696a0     libucrt:lcidtoname_downlevel.obj
 0002:0000b6b0       ??_C@_1M@LHIPCIEK@?$AAi?$AAd?$AA?9?$AAI?$AAD@ 00000001800696b0     libucrt:lcidtoname_downlevel.obj
 0002:0000b6c0       ??_C@_1M@MFMOBGI@?$AAu?$AAk?$AA?9?$AAU?$AAA@ 00000001800696c0     libucrt:lcidtoname_downlevel.obj
 0002:0000b6d0       ??_C@_1M@OBGLJIPL@?$AAb?$AAe?$AA?9?$AAB?$AAY@ 00000001800696d0     libucrt:lcidtoname_downlevel.obj
 0002:0000b6e0       ??_C@_1M@BCFAJEAD@?$AAs?$AAl?$AA?9?$AAS?$AAI@ 00000001800696e0     libucrt:lcidtoname_downlevel.obj
 0002:0000b6f0       ??_C@_1M@FKFFEDDN@?$AAe?$AAt?$AA?9?$AAE?$AAE@ 00000001800696f0     libucrt:lcidtoname_downlevel.obj
 0002:0000b700       ??_C@_1M@KGKKAACI@?$AAl?$AAv?$AA?9?$AAL?$AAV@ 0000000180069700     libucrt:lcidtoname_downlevel.obj
 0002:0000b710       ??_C@_1M@IFGBIJO@?$AAl?$AAt?$AA?9?$AAL?$AAT@ 0000000180069710     libucrt:lcidtoname_downlevel.obj
 0002:0000b720       ??_C@_1M@FGEAHEDM@?$AAf?$AAa?$AA?9?$AAI?$AAR@ 0000000180069720     libucrt:lcidtoname_downlevel.obj
 0002:0000b730       ??_C@_1M@KBMAIBFN@?$AAv?$AAi?$AA?9?$AAV?$AAN@ 0000000180069730     libucrt:lcidtoname_downlevel.obj
 0002:0000b740       ??_C@_1M@GPCBKDJK@?$AAh?$AAy?$AA?9?$AAA?$AAM@ 0000000180069740     libucrt:lcidtoname_downlevel.obj
 0002:0000b750       ??_C@_1BG@BECMDDJB@?$AAa?$AAz?$AA?9?$AAA?$AAZ?$AA?9?$AAL?$AAa?$AAt?$AAn@ 0000000180069750     libucrt:lcidtoname_downlevel.obj
 0002:0000b768       ??_C@_1M@MAOFCAEA@?$AAe?$AAu?$AA?9?$AAE?$AAS@ 0000000180069768     libucrt:lcidtoname_downlevel.obj
 0002:0000b778       ??_C@_1M@IGHABKPI@?$AAm?$AAk?$AA?9?$AAM?$AAK@ 0000000180069778     libucrt:lcidtoname_downlevel.obj
 0002:0000b788       ??_C@_1M@IAIGNEJG@?$AAt?$AAn?$AA?9?$AAZ?$AAA@ 0000000180069788     libucrt:lcidtoname_downlevel.obj
 0002:0000b798       ??_C@_1M@IIJCOJFA@?$AAx?$AAh?$AA?9?$AAZ?$AAA@ 0000000180069798     libucrt:lcidtoname_downlevel.obj
 0002:0000b7a8       ??_C@_1M@LGPJHNJH@?$AAz?$AAu?$AA?9?$AAZ?$AAA@ 00000001800697a8     libucrt:lcidtoname_downlevel.obj
 0002:0000b7b8       ??_C@_1M@HOKAOIO@?$AAa?$AAf?$AA?9?$AAZ?$AAA@ 00000001800697b8     libucrt:lcidtoname_downlevel.obj
 0002:0000b7c8       ??_C@_1M@DPCLHLIE@?$AAk?$AAa?$AA?9?$AAG?$AAE@ 00000001800697c8     libucrt:lcidtoname_downlevel.obj
 0002:0000b7d8       ??_C@_1M@BLKMHJBI@?$AAf?$AAo?$AA?9?$AAF?$AAO@ 00000001800697d8     libucrt:lcidtoname_downlevel.obj
 0002:0000b7e8       ??_C@_1M@LGGJAPPB@?$AAh?$AAi?$AA?9?$AAI?$AAN@ 00000001800697e8     libucrt:lcidtoname_downlevel.obj
 0002:0000b7f8       ??_C@_1M@FIKPIHFE@?$AAm?$AAt?$AA?9?$AAM?$AAT@ 00000001800697f8     libucrt:lcidtoname_downlevel.obj
 0002:0000b808       ??_C@_1M@HEGGPBFA@?$AAs?$AAe?$AA?9?$AAN?$AAO@ 0000000180069808     libucrt:lcidtoname_downlevel.obj
 0002:0000b818       ??_C@_1M@EIBJEEPA@?$AAm?$AAs?$AA?9?$AAM?$AAY@ 0000000180069818     libucrt:lcidtoname_downlevel.obj
 0002:0000b828       ??_C@_1M@FHLBGMPP@?$AAk?$AAk?$AA?9?$AAK?$AAZ@ 0000000180069828     libucrt:lcidtoname_downlevel.obj
 0002:0000b838       ??_C@_1M@NGJJLCGI@?$AAk?$AAy?$AA?9?$AAK?$AAG@ 0000000180069838     libucrt:lcidtoname_downlevel.obj
 0002:0000b848       ??_C@_1M@GIENNBFC@?$AAs?$AAw?$AA?9?$AAK?$AAE@ 0000000180069848     libucrt:lcidtoname_downlevel.obj
 0002:0000b858       ??_C@_1BG@NDGMJIMJ@?$AAu?$AAz?$AA?9?$AAU?$AAZ?$AA?9?$AAL?$AAa?$AAt?$AAn@ 0000000180069858     libucrt:lcidtoname_downlevel.obj
 0002:0000b870       ??_C@_1M@IDCCIHBC@?$AAt?$AAt?$AA?9?$AAR?$AAU@ 0000000180069870     libucrt:lcidtoname_downlevel.obj
 0002:0000b880       ??_C@_1M@LOICPMOJ@?$AAb?$AAn?$AA?9?$AAI?$AAN@ 0000000180069880     libucrt:lcidtoname_downlevel.obj
 0002:0000b890       ??_C@_1M@KPKKNEAH@?$AAp?$AAa?$AA?9?$AAI?$AAN@ 0000000180069890     libucrt:lcidtoname_downlevel.obj
 0002:0000b8a0       ??_C@_1M@PJGPPBOG@?$AAg?$AAu?$AA?9?$AAI?$AAN@ 00000001800698a0     libucrt:lcidtoname_downlevel.obj
 0002:0000b8b0       ??_C@_1M@KMKMOPHI@?$AAt?$AAa?$AA?9?$AAI?$AAN@ 00000001800698b0     libucrt:lcidtoname_downlevel.obj
 0002:0000b8c0       ??_C@_1M@KFEHEPAC@?$AAt?$AAe?$AA?9?$AAI?$AAN@ 00000001800698c0     libucrt:lcidtoname_downlevel.obj
 0002:0000b8d0       ??_C@_1M@CDCLMGHI@?$AAk?$AAn?$AA?9?$AAI?$AAN@ 00000001800698d0     libucrt:lcidtoname_downlevel.obj
 0002:0000b8e0       ??_C@_1M@MIODLDKF@?$AAm?$AAl?$AA?9?$AAI?$AAN@ 00000001800698e0     libucrt:lcidtoname_downlevel.obj
 0002:0000b8f0       ??_C@_1M@PBIEACPO@?$AAm?$AAr?$AA?9?$AAI?$AAN@ 00000001800698f0     libucrt:lcidtoname_downlevel.obj
 0002:0000b900       ??_C@_1M@NIDEAGPH@?$AAs?$AAa?$AA?9?$AAI?$AAN@ 0000000180069900     libucrt:lcidtoname_downlevel.obj
 0002:0000b910       ??_C@_1M@FHIHCBIO@?$AAm?$AAn?$AA?9?$AAM?$AAN@ 0000000180069910     libucrt:lcidtoname_downlevel.obj
 0002:0000b920       ??_C@_1M@JAIJPENP@?$AAc?$AAy?$AA?9?$AAG?$AAB@ 0000000180069920     libucrt:lcidtoname_downlevel.obj
 0002:0000b930       ??_C@_1M@PHGFBEPN@?$AAg?$AAl?$AA?9?$AAE?$AAS@ 0000000180069930     libucrt:lcidtoname_downlevel.obj
 0002:0000b940       ??_C@_1O@KPIPDNCP@?$AAk?$AAo?$AAk?$AA?9?$AAI?$AAN@ 0000000180069940     libucrt:lcidtoname_downlevel.obj
 0002:0000b950       ??_C@_1O@KNHJLDJA@?$AAs?$AAy?$AAr?$AA?9?$AAS?$AAY@ 0000000180069950     libucrt:lcidtoname_downlevel.obj
 0002:0000b960       ??_C@_1O@MKEKBLAH@?$AAd?$AAi?$AAv?$AA?9?$AAM?$AAV@ 0000000180069960     libucrt:lcidtoname_downlevel.obj
 0002:0000b970       ??_C@_1O@OHDCKDDF@?$AAq?$AAu?$AAz?$AA?9?$AAB?$AAO@ 0000000180069970     libucrt:lcidtoname_downlevel.obj
 0002:0000b980       ??_C@_1M@LEPJNLFD@?$AAn?$AAs?$AA?9?$AAZ?$AAA@ 0000000180069980     libucrt:lcidtoname_downlevel.obj
 0002:0000b990       ??_C@_1M@OMLEIIJB@?$AAm?$AAi?$AA?9?$AAN?$AAZ@ 0000000180069990     libucrt:lcidtoname_downlevel.obj
 0002:0000b9a0       ??_C@_1M@PMPEAILG@?$AAa?$AAr?$AA?9?$AAI?$AAQ@ 00000001800699a0     libucrt:lcidtoname_downlevel.obj
 0002:0000b9b0       ??_C@_1M@CNKPNOEE@?$AAd?$AAe?$AA?9?$AAC?$AAH@ 00000001800699b0     libucrt:lcidtoname_downlevel.obj
 0002:0000b9c0       ??_C@_1M@LKMGMLKO@?$AAe?$AAn?$AA?9?$AAG?$AAB@ 00000001800699c0     libucrt:lcidtoname_downlevel.obj
 0002:0000b9d0       ??_C@_1M@PGKJFFGL@?$AAe?$AAs?$AA?9?$AAM?$AAX@ 00000001800699d0     libucrt:lcidtoname_downlevel.obj
 0002:0000b9e0       ??_C@_1M@DNNANBDC@?$AAf?$AAr?$AA?9?$AAB?$AAE@ 00000001800699e0     libucrt:lcidtoname_downlevel.obj
 0002:0000b9f0       ??_C@_1M@HLGMDFHM@?$AAi?$AAt?$AA?9?$AAC?$AAH@ 00000001800699f0     libucrt:lcidtoname_downlevel.obj
 0002:0000ba00       ??_C@_1M@CLLBGJH@?$AAn?$AAl?$AA?9?$AAB?$AAE@ 0000000180069a00     libucrt:lcidtoname_downlevel.obj
 0002:0000ba10       ??_C@_1M@BODBOGLF@?$AAn?$AAn?$AA?9?$AAN?$AAO@ 0000000180069a10     libucrt:lcidtoname_downlevel.obj
 0002:0000ba20       ??_C@_1M@HFFAHKAD@?$AAp?$AAt?$AA?9?$AAP?$AAT@ 0000000180069a20     libucrt:lcidtoname_downlevel.obj
 0002:0000ba30       ??_C@_1BG@LNOAKHIE@?$AAs?$AAr?$AA?9?$AAS?$AAP?$AA?9?$AAL?$AAa?$AAt?$AAn@ 0000000180069a30     libucrt:lcidtoname_downlevel.obj
 0002:0000ba48       ??_C@_1M@HBMHBGAK@?$AAs?$AAv?$AA?9?$AAF?$AAI@ 0000000180069a48     libucrt:lcidtoname_downlevel.obj
 0002:0000ba58       ??_C@_1BG@DGCJGJBE@?$AAa?$AAz?$AA?9?$AAA?$AAZ?$AA?9?$AAC?$AAy?$AAr?$AAl@ 0000000180069a58     libucrt:lcidtoname_downlevel.obj
 0002:0000ba70       ??_C@_1M@KEJDAAHB@?$AAs?$AAe?$AA?9?$AAS?$AAE@ 0000000180069a70     libucrt:lcidtoname_downlevel.obj
 0002:0000ba80       ??_C@_1M@HEIBJJAD@?$AAm?$AAs?$AA?9?$AAB?$AAN@ 0000000180069a80     libucrt:lcidtoname_downlevel.obj
 0002:0000ba90       ??_C@_1BG@PBGJMCEM@?$AAu?$AAz?$AA?9?$AAU?$AAZ?$AA?9?$AAC?$AAy?$AAr?$AAl@ 0000000180069a90     libucrt:lcidtoname_downlevel.obj
 0002:0000baa8       ??_C@_1O@LAOBCMDF@?$AAq?$AAu?$AAz?$AA?9?$AAE?$AAC@ 0000000180069aa8     libucrt:lcidtoname_downlevel.obj
 0002:0000bab8       ??_C@_1M@POEEMAIO@?$AAa?$AAr?$AA?9?$AAE?$AAG@ 0000000180069ab8     libucrt:lcidtoname_downlevel.obj
 0002:0000bac8       ??_C@_1M@EFAKDEDL@?$AAz?$AAh?$AA?9?$AAH?$AAK@ 0000000180069ac8     libucrt:lcidtoname_downlevel.obj
 0002:0000bad8       ??_C@_1M@HKKIJHGI@?$AAd?$AAe?$AA?9?$AAA?$AAT@ 0000000180069ad8     libucrt:lcidtoname_downlevel.obj
 0002:0000bae8       ??_C@_1M@KBFBEHJF@?$AAe?$AAn?$AA?9?$AAA?$AAU@ 0000000180069ae8     libucrt:lcidtoname_downlevel.obj
 0002:0000baf8       ??_C@_1M@MNPLFAAH@?$AAe?$AAs?$AA?9?$AAE?$AAS@ 0000000180069af8     libucrt:lcidtoname_downlevel.obj
 0002:0000bb08       ??_C@_1M@HJOOJFMA@?$AAf?$AAr?$AA?9?$AAC?$AAA@ 0000000180069b08     libucrt:lcidtoname_downlevel.obj
 0002:0000bb18       ??_C@_1BG@JPOFPNAB@?$AAs?$AAr?$AA?9?$AAS?$AAP?$AA?9?$AAC?$AAy?$AAr?$AAl@ 0000000180069b18     libucrt:lcidtoname_downlevel.obj
 0002:0000bb30       ??_C@_1M@LNFOCMOB@?$AAs?$AAe?$AA?9?$AAF?$AAI@ 0000000180069b30     libucrt:lcidtoname_downlevel.obj
 0002:0000bb40       ??_C@_1O@MGJBOAMB@?$AAq?$AAu?$AAz?$AA?9?$AAP?$AAE@ 0000000180069b40     libucrt:lcidtoname_downlevel.obj
 0002:0000bb50       ??_C@_1M@GJINLBOK@?$AAa?$AAr?$AA?9?$AAL?$AAY@ 0000000180069b50     libucrt:lcidtoname_downlevel.obj
 0002:0000bb60       ??_C@_1M@GGMNHJNL@?$AAz?$AAh?$AA?9?$AAS?$AAG@ 0000000180069b60     libucrt:lcidtoname_downlevel.obj
 0002:0000bb70       ??_C@_1M@HOIKODND@?$AAd?$AAe?$AA?9?$AAL?$AAU@ 0000000180069b70     libucrt:lcidtoname_downlevel.obj
 0002:0000bb80       ??_C@_1M@DDOCCGFG@?$AAe?$AAn?$AA?9?$AAC?$AAA@ 0000000180069b80     libucrt:lcidtoname_downlevel.obj
 0002:0000bb90       ??_C@_1M@BNOEMJLF@?$AAe?$AAs?$AA?9?$AAG?$AAT@ 0000000180069b90     libucrt:lcidtoname_downlevel.obj
 0002:0000bba0       ??_C@_1M@EOGNKEK@?$AAf?$AAr?$AA?9?$AAC?$AAH@ 0000000180069ba0     libucrt:lcidtoname_downlevel.obj
 0002:0000bbb0       ??_C@_1M@FLIDJFHL@?$AAh?$AAr?$AA?9?$AAB?$AAA@ 0000000180069bb0     libucrt:lcidtoname_downlevel.obj
 0002:0000bbc0       ??_C@_1O@FMCELNAJ@?$AAs?$AAm?$AAj?$AA?9?$AAN?$AAO@ 0000000180069bc0     libucrt:lcidtoname_downlevel.obj
 0002:0000bbd0       ??_C@_1M@JHGLJMGJ@?$AAa?$AAr?$AA?9?$AAD?$AAZ@ 0000000180069bd0     libucrt:lcidtoname_downlevel.obj
 0002:0000bbe0       ??_C@_1M@JKKFDCNP@?$AAz?$AAh?$AA?9?$AAM?$AAO@ 0000000180069be0     libucrt:lcidtoname_downlevel.obj
 0002:0000bbf0       ??_C@_1M@GEEFALPE@?$AAd?$AAe?$AA?9?$AAL?$AAI@ 0000000180069bf0     libucrt:lcidtoname_downlevel.obj
 0002:0000bc00       ??_C@_1M@IGEOFBG@?$AAe?$AAn?$AA?9?$AAN?$AAZ@ 0000000180069c00     libucrt:lcidtoname_downlevel.obj
 0002:0000bc10       ??_C@_1M@KDBONEHP@?$AAe?$AAs?$AA?9?$AAC?$AAR@ 0000000180069c10     libucrt:lcidtoname_downlevel.obj
 0002:0000bc20       ??_C@_1M@FHMDOHNN@?$AAf?$AAr?$AA?9?$AAL?$AAU@ 0000000180069c20     libucrt:lcidtoname_downlevel.obj
 0002:0000bc30       ??_C@_1BG@NFKKMAFG@?$AAb?$AAs?$AA?9?$AAB?$AAA?$AA?9?$AAL?$AAa?$AAt?$AAn@ 0000000180069c30     libucrt:lcidtoname_downlevel.obj
 0002:0000bc48       ??_C@_1O@IMNBEMCI@?$AAs?$AAm?$AAj?$AA?9?$AAS?$AAE@ 0000000180069c48     libucrt:lcidtoname_downlevel.obj
 0002:0000bc58       ??_C@_1M@DHHMBNDP@?$AAa?$AAr?$AA?9?$AAM?$AAA@ 0000000180069c58     libucrt:lcidtoname_downlevel.obj
 0002:0000bc68       ??_C@_1M@BNBLJCGH@?$AAe?$AAn?$AA?9?$AAI?$AAE@ 0000000180069c68     libucrt:lcidtoname_downlevel.obj
 0002:0000bc78       ??_C@_1M@GEPAFMDL@?$AAe?$AAs?$AA?9?$AAP?$AAA@ 0000000180069c78     libucrt:lcidtoname_downlevel.obj
 0002:0000bc88       ??_C@_1M@OJONDMDL@?$AAf?$AAr?$AA?9?$AAM?$AAC@ 0000000180069c88     libucrt:lcidtoname_downlevel.obj
 0002:0000bc98       ??_C@_1BG@OBCNFJB@?$AAs?$AAr?$AA?9?$AAB?$AAA?$AA?9?$AAL?$AAa?$AAt?$AAn@ 0000000180069c98     libucrt:lcidtoname_downlevel.obj
 0002:0000bcb0       ??_C@_1O@KEMEEGPO@?$AAs?$AAm?$AAa?$AA?9?$AAN?$AAO@ 0000000180069cb0     libucrt:lcidtoname_downlevel.obj
 0002:0000bcc0       ??_C@_1M@ELMGFODK@?$AAa?$AAr?$AA?9?$AAT?$AAN@ 0000000180069cc0     libucrt:lcidtoname_downlevel.obj
 0002:0000bcd0       ??_C@_1M@BHDLHFAF@?$AAe?$AAn?$AA?9?$AAZ?$AAA@ 0000000180069cd0     libucrt:lcidtoname_downlevel.obj
 0002:0000bce0       ??_C@_1M@BMGIGLIF@?$AAe?$AAs?$AA?9?$AAD?$AAO@ 0000000180069ce0     libucrt:lcidtoname_downlevel.obj
 0002:0000bcf0       ??_C@_1BG@CMBHIPBE@?$AAs?$AAr?$AA?9?$AAB?$AAA?$AA?9?$AAC?$AAy?$AAr?$AAl@ 0000000180069cf0     libucrt:lcidtoname_downlevel.obj
 0002:0000bd08       ??_C@_1O@HEDBLHNP@?$AAs?$AAm?$AAa?$AA?9?$AAS?$AAE@ 0000000180069d08     libucrt:lcidtoname_downlevel.obj
 0002:0000bd18       ??_C@_1M@DAGCADIM@?$AAa?$AAr?$AA?9?$AAO?$AAM@ 0000000180069d18     libucrt:lcidtoname_downlevel.obj
 0002:0000bd28       ??_C@_1M@FODLMICG@?$AAe?$AAn?$AA?9?$AAJ?$AAM@ 0000000180069d28     libucrt:lcidtoname_downlevel.obj
 0002:0000bd38       ??_C@_1M@DNMLCIHB@?$AAe?$AAs?$AA?9?$AAV?$AAE@ 0000000180069d38     libucrt:lcidtoname_downlevel.obj
 0002:0000bd48       ??_C@_1O@EOKHMKJK@?$AAs?$AAm?$AAs?$AA?9?$AAF?$AAI@ 0000000180069d48     libucrt:lcidtoname_downlevel.obj
 0002:0000bd58       ??_C@_1M@CAFJMKOF@?$AAa?$AAr?$AA?9?$AAY?$AAE@ 0000000180069d58     libucrt:lcidtoname_downlevel.obj
 0002:0000bd68       ??_C@_1M@CBFHIJLI@?$AAe?$AAn?$AA?9?$AAC?$AAB@ 0000000180069d68     libucrt:lcidtoname_downlevel.obj
 0002:0000bd78       ??_C@_1M@BGNFLDN@?$AAe?$AAs?$AA?9?$AAC?$AAO@ 0000000180069d78     libucrt:lcidtoname_downlevel.obj
 0002:0000bd88       ??_C@_1O@JMPHMAMC@?$AAs?$AAm?$AAn?$AA?9?$AAF?$AAI@ 0000000180069d88     libucrt:lcidtoname_downlevel.obj
 0002:0000bd98       ??_C@_1M@JLANABKE@?$AAa?$AAr?$AA?9?$AAS?$AAY@ 0000000180069d98     libucrt:lcidtoname_downlevel.obj
 0002:0000bda8       ??_C@_1M@HPKGCFGN@?$AAe?$AAn?$AA?9?$AAB?$AAZ@ 0000000180069da8     libucrt:lcidtoname_downlevel.obj
 0002:0000bdb8       ??_C@_1M@OLJCMLGM@?$AAe?$AAs?$AA?9?$AAP?$AAE@ 0000000180069db8     libucrt:lcidtoname_downlevel.obj
 0002:0000bdc8       ??_C@_1M@MKKGFKLE@?$AAa?$AAr?$AA?9?$AAJ?$AAO@ 0000000180069dc8     libucrt:lcidtoname_downlevel.obj
 0002:0000bdd8       ??_C@_1M@EKPGLDNI@?$AAe?$AAn?$AA?9?$AAT?$AAT@ 0000000180069dd8     libucrt:lcidtoname_downlevel.obj
 0002:0000bde8       ??_C@_1M@OONGHFHE@?$AAe?$AAs?$AA?9?$AAA?$AAR@ 0000000180069de8     libucrt:lcidtoname_downlevel.obj
 0002:0000bdf8       ??_C@_1M@OOJFGBHE@?$AAa?$AAr?$AA?9?$AAL?$AAB@ 0000000180069df8     libucrt:lcidtoname_downlevel.obj
 0002:0000be08       ??_C@_1M@GCEJHNEG@?$AAe?$AAn?$AA?9?$AAZ?$AAW@ 0000000180069e08     libucrt:lcidtoname_downlevel.obj
 0002:0000be18       ??_C@_1M@JNOCAHJI@?$AAe?$AAs?$AA?9?$AAE?$AAC@ 0000000180069e18     libucrt:lcidtoname_downlevel.obj
 0002:0000be28       ??_C@_1M@JEFHPGGB@?$AAa?$AAr?$AA?9?$AAK?$AAW@ 0000000180069e28     libucrt:lcidtoname_downlevel.obj
 0002:0000be38       ??_C@_1M@MLKIBJOJ@?$AAe?$AAn?$AA?9?$AAP?$AAH@ 0000000180069e38     libucrt:lcidtoname_downlevel.obj
 0002:0000be48       ??_C@_1M@BDNIPEND@?$AAe?$AAs?$AA?9?$AAC?$AAL@ 0000000180069e48     libucrt:lcidtoname_downlevel.obj
 0002:0000be58       ??_C@_1M@MPNMEKBD@?$AAa?$AAr?$AA?9?$AAA?$AAE@ 0000000180069e58     libucrt:lcidtoname_downlevel.obj
 0002:0000be68       ??_C@_1M@KBJALCPI@?$AAe?$AAs?$AA?9?$AAU?$AAY@ 0000000180069e68     libucrt:lcidtoname_downlevel.obj
 0002:0000be78       ??_C@_1M@LLCCOAGA@?$AAa?$AAr?$AA?9?$AAB?$AAH@ 0000000180069e78     libucrt:lcidtoname_downlevel.obj
 0002:0000be88       ??_C@_1M@PBFNCDEL@?$AAe?$AAs?$AA?9?$AAP?$AAY@ 0000000180069e88     libucrt:lcidtoname_downlevel.obj
 0002:0000be98       ??_C@_1M@EDGINPNP@?$AAa?$AAr?$AA?9?$AAQ?$AAA@ 0000000180069e98     libucrt:lcidtoname_downlevel.obj
 0002:0000bea8       ??_C@_1M@MKDBIIJI@?$AAe?$AAs?$AA?9?$AAB?$AAO@ 0000000180069ea8     libucrt:lcidtoname_downlevel.obj
 0002:0000beb8       ??_C@_1M@CPKKEBLD@?$AAe?$AAs?$AA?9?$AAS?$AAV@ 0000000180069eb8     libucrt:lcidtoname_downlevel.obj
 0002:0000bec8       ??_C@_1M@NDBGMMJL@?$AAe?$AAs?$AA?9?$AAH?$AAN@ 0000000180069ec8     libucrt:lcidtoname_downlevel.obj
 0002:0000bed8       ??_C@_1M@JIJIBHDP@?$AAe?$AAs?$AA?9?$AAN?$AAI@ 0000000180069ed8     libucrt:lcidtoname_downlevel.obj
 0002:0000bee8       ??_C@_1M@CGFMKEEK@?$AAe?$AAs?$AA?9?$AAP?$AAR@ 0000000180069ee8     libucrt:lcidtoname_downlevel.obj
 0002:0000bef8       ??_C@_1O@ICJHKIIK@?$AAz?$AAh?$AA?9?$AAC?$AAH?$AAT@ 0000000180069ef8     libucrt:lcidtoname_downlevel.obj
 0002:0000bf08       ??_C@_15CLNEJCE@?$AAs?$AAr@ 0000000180069f08     libucrt:lcidtoname_downlevel.obj
 0002:0000cd50       ??_C@_1M@KAHEKEIG@?$AAa?$AAf?$AA?9?$AAz?$AAa@ 000000018006ad50     libucrt:lcidtoname_downlevel.obj
 0002:0000cd60       ??_C@_1M@GIECOABL@?$AAa?$AAr?$AA?9?$AAa?$AAe@ 000000018006ad60     libucrt:lcidtoname_downlevel.obj
 0002:0000cd70       ??_C@_1M@BMLMEKGI@?$AAa?$AAr?$AA?9?$AAb?$AAh@ 000000018006ad70     libucrt:lcidtoname_downlevel.obj
 0002:0000cd80       ??_C@_1M@DAPFDGGB@?$AAa?$AAr?$AA?9?$AAd?$AAz@ 000000018006ad80     libucrt:lcidtoname_downlevel.obj
 0002:0000cd90       ??_C@_1M@FJNKGKIG@?$AAa?$AAr?$AA?9?$AAe?$AAg@ 000000018006ad90     libucrt:lcidtoname_downlevel.obj
 0002:0000cda0       ??_C@_1M@FLGKKCLO@?$AAa?$AAr?$AA?9?$AAi?$AAq@ 000000018006ada0     libucrt:lcidtoname_downlevel.obj
 0002:0000cdb0       ??_C@_1M@GNDIPALM@?$AAa?$AAr?$AA?9?$AAj?$AAo@ 000000018006adb0     libucrt:lcidtoname_downlevel.obj
 0002:0000cdc0       ??_C@_1M@DDMJFMGJ@?$AAa?$AAr?$AA?9?$AAk?$AAw@ 000000018006adc0     libucrt:lcidtoname_downlevel.obj
 0002:0000cdd0       ??_C@_1M@EJALMLHM@?$AAa?$AAr?$AA?9?$AAl?$AAb@ 000000018006add0     libucrt:lcidtoname_downlevel.obj
 0002:0000cde0       ??_C@_1M@MOBDBLOC@?$AAa?$AAr?$AA?9?$AAl?$AAy@ 000000018006ade0     libucrt:lcidtoname_downlevel.obj
 0002:0000cdf0       ??_C@_1M@JAOCLHDH@?$AAa?$AAr?$AA?9?$AAm?$AAa@ 000000018006adf0     libucrt:lcidtoname_downlevel.obj
 0002:0000ce00       ??_C@_1M@JHPMKJIE@?$AAa?$AAr?$AA?9?$AAo?$AAm@ 000000018006ae00     libucrt:lcidtoname_downlevel.obj
 0002:0000ce10       ??_C@_1M@OEPGHFNH@?$AAa?$AAr?$AA?9?$AAq?$AAa@ 000000018006ae10     libucrt:lcidtoname_downlevel.obj
 0002:0000ce20       ??_C@_1M@KJDONENM@?$AAa?$AAr?$AA?9?$AAs?$AAa@ 000000018006ae20     libucrt:lcidtoname_downlevel.obj
 0002:0000ce30       ??_C@_1M@DMJDKLKM@?$AAa?$AAr?$AA?9?$AAs?$AAy@ 000000018006ae30     libucrt:lcidtoname_downlevel.obj
 0002:0000ce40       ??_C@_1M@OMFIPEDC@?$AAa?$AAr?$AA?9?$AAt?$AAn@ 000000018006ae40     libucrt:lcidtoname_downlevel.obj
 0002:0000ce50       ??_C@_1M@IHMHGAON@?$AAa?$AAr?$AA?9?$AAy?$AAe@ 000000018006ae50     libucrt:lcidtoname_downlevel.obj
 0002:0000ce60       ??_C@_1BG@KDCPGJGB@?$AAa?$AAz?$AA?9?$AAa?$AAz?$AA?9?$AAc?$AAy?$AAr?$AAl@ 000000018006ae60     libucrt:lcidtoname_downlevel.obj
 0002:0000ce78       ??_C@_1BG@IBCKDDOE@?$AAa?$AAz?$AA?9?$AAa?$AAz?$AA?9?$AAl?$AAa?$AAt?$AAn@ 000000018006ae78     libucrt:lcidtoname_downlevel.obj
 0002:0000ce90       ??_C@_1M@EGPFDCPD@?$AAb?$AAe?$AA?9?$AAb?$AAy@ 000000018006ae90     libucrt:lcidtoname_downlevel.obj
 0002:0000cea0       ??_C@_1M@PCMGMCGC@?$AAb?$AAg?$AA?9?$AAb?$AAg@ 000000018006aea0     libucrt:lcidtoname_downlevel.obj
 0002:0000ceb0       ??_C@_1M@BJBMFGOB@?$AAb?$AAn?$AA?9?$AAi?$AAn@ 000000018006aeb0     libucrt:lcidtoname_downlevel.obj
 0002:0000cec0       ??_C@_1BG@EAKMMACD@?$AAb?$AAs?$AA?9?$AAb?$AAa?$AA?9?$AAl?$AAa?$AAt?$AAn@ 000000018006aec0     libucrt:lcidtoname_downlevel.obj
 0002:0000ced8       ??_C@_1M@KGADAODK@?$AAc?$AAa?$AA?9?$AAe?$AAs@ 000000018006aed8     libucrt:lcidtoname_downlevel.obj
 0002:0000cee8       ??_C@_1M@COAJPDHI@?$AAc?$AAs?$AA?9?$AAc?$AAz@ 000000018006aee8     libucrt:lcidtoname_downlevel.obj
 0002:0000cef8       ??_C@_1M@DHBHFONH@?$AAc?$AAy?$AA?9?$AAg?$AAb@ 000000018006aef8     libucrt:lcidtoname_downlevel.obj
 0002:0000cf08       ??_C@_1M@IMGKELGA@?$AAd?$AAa?$AA?9?$AAd?$AAk@ 000000018006af08     libucrt:lcidtoname_downlevel.obj
 0002:0000cf18       ??_C@_1M@NNDGDNGA@?$AAd?$AAe?$AA?9?$AAa?$AAt@ 000000018006af18     libucrt:lcidtoname_downlevel.obj
 0002:0000cf28       ??_C@_1M@IKDBHEEM@?$AAd?$AAe?$AA?9?$AAc?$AAh@ 000000018006af28     libucrt:lcidtoname_downlevel.obj
 0002:0000cf38       ??_C@_1M@GFFOJMCJ@?$AAd?$AAe?$AA?9?$AAd?$AAe@ 000000018006af38     libucrt:lcidtoname_downlevel.obj
 0002:0000cf48       ??_C@_1M@MDNLKBPM@?$AAd?$AAe?$AA?9?$AAl?$AAi@ 000000018006af48     libucrt:lcidtoname_downlevel.obj
 0002:0000cf58       ??_C@_1M@NJBEEJNL@?$AAd?$AAe?$AA?9?$AAl?$AAu@ 000000018006af58     libucrt:lcidtoname_downlevel.obj
 0002:0000cf68       ??_C@_1O@GNNELBAP@?$AAd?$AAi?$AAv?$AA?9?$AAm?$AAv@ 000000018006af68     libucrt:lcidtoname_downlevel.obj
 0002:0000cf78       ??_C@_1M@EJLEOGAE@?$AAe?$AAl?$AA?9?$AAg?$AAr@ 000000018006af78     libucrt:lcidtoname_downlevel.obj
 0002:0000cf88       ??_C@_1M@GMPONJN@?$AAe?$AAn?$AA?9?$AAa?$AAu@ 000000018006af88     libucrt:lcidtoname_downlevel.obj
 0002:0000cf98       ??_C@_1M@NIDIIPGF@?$AAe?$AAn?$AA?9?$AAb?$AAz@ 000000018006af98     libucrt:lcidtoname_downlevel.obj
 0002:0000cfa8       ??_C@_1M@JEHMIMFO@?$AAe?$AAn?$AA?9?$AAc?$AAa@ 000000018006afa8     libucrt:lcidtoname_downlevel.obj
 0002:0000cfb8       ??_C@_1M@IGMJCDLA@?$AAe?$AAn?$AA?9?$AAc?$AAb@ 000000018006afb8     libucrt:lcidtoname_downlevel.obj
 0002:0000cfc8       ??_C@_1M@BNFIGBKG@?$AAe?$AAn?$AA?9?$AAg?$AAb@ 000000018006afc8     libucrt:lcidtoname_downlevel.obj
 0002:0000cfd8       ??_C@_1M@LKIFDIGP@?$AAe?$AAn?$AA?9?$AAi?$AAe@ 000000018006afd8     libucrt:lcidtoname_downlevel.obj
 0002:0000cfe8       ??_C@_1M@PJKFGCCO@?$AAe?$AAn?$AA?9?$AAj?$AAm@ 000000018006afe8     libucrt:lcidtoname_downlevel.obj
 0002:0000cff8       ??_C@_1M@KPPKEPBO@?$AAe?$AAn?$AA?9?$AAn?$AAz@ 000000018006aff8     libucrt:lcidtoname_downlevel.obj
 0002:0000d008       ??_C@_1M@GMDGLDOB@?$AAe?$AAn?$AA?9?$AAp?$AAh@ 000000018006b008     libucrt:lcidtoname_downlevel.obj
 0002:0000d018       ??_C@_1M@ONGIBJNA@?$AAe?$AAn?$AA?9?$AAt?$AAt@ 000000018006b018     libucrt:lcidtoname_downlevel.obj
 0002:0000d028       ??_C@_1M@LLODPCMM@?$AAe?$AAn?$AA?9?$AAu?$AAs@ 000000018006b028     libucrt:lcidtoname_downlevel.obj
 0002:0000d038       ??_C@_1M@LAKFNPAN@?$AAe?$AAn?$AA?9?$AAz?$AAa@ 000000018006b038     libucrt:lcidtoname_downlevel.obj
 0002:0000d048       ??_C@_1M@MFNHNHEO@?$AAe?$AAn?$AA?9?$AAz?$AAw@ 000000018006b048     libucrt:lcidtoname_downlevel.obj
 0002:0000d058       ??_C@_1M@EJEINPHM@?$AAe?$AAs?$AA?9?$AAa?$AAr@ 000000018006b058     libucrt:lcidtoname_downlevel.obj
 0002:0000d068       ??_C@_1M@GNKPCCJA@?$AAe?$AAs?$AA?9?$AAb?$AAo@ 000000018006b068     libucrt:lcidtoname_downlevel.obj
 0002:0000d078       ??_C@_1M@LEEGFONL@?$AAe?$AAs?$AA?9?$AAc?$AAl@ 000000018006b078     libucrt:lcidtoname_downlevel.obj
 0002:0000d088       ??_C@_1M@KGPDPBDF@?$AAe?$AAs?$AA?9?$AAc?$AAo@ 000000018006b088     libucrt:lcidtoname_downlevel.obj
 0002:0000d098       ??_C@_1M@EIAHOHH@?$AAe?$AAs?$AA?9?$AAc?$AAr@ 000000018006b098     libucrt:lcidtoname_downlevel.obj
 0002:0000d0a8       ??_C@_1M@LLPGMBIN@?$AAe?$AAs?$AA?9?$AAd?$AAo@ 000000018006b0a8     libucrt:lcidtoname_downlevel.obj
 0002:0000d0b8       ??_C@_1M@DKHMKNJA@?$AAe?$AAs?$AA?9?$AAe?$AAc@ 000000018006b0b8     libucrt:lcidtoname_downlevel.obj
 0002:0000d0c8       ??_C@_1M@GKGFPKAP@?$AAe?$AAs?$AA?9?$AAe?$AAs@ 000000018006b0c8     libucrt:lcidtoname_downlevel.obj
 0002:0000d0d8       ??_C@_1M@LKHKGDLN@?$AAe?$AAs?$AA?9?$AAg?$AAt@ 000000018006b0d8     libucrt:lcidtoname_downlevel.obj
 0002:0000d0e8       ??_C@_1M@HEIIGGJD@?$AAe?$AAs?$AA?9?$AAh?$AAn@ 000000018006b0e8     libucrt:lcidtoname_downlevel.obj
 0002:0000d0f8       ??_C@_1M@FBDHPPGD@?$AAe?$AAs?$AA?9?$AAm?$AAx@ 000000018006b0f8     libucrt:lcidtoname_downlevel.obj
 0002:0000d108       ??_C@_1M@DPAGLNDH@?$AAe?$AAs?$AA?9?$AAn?$AAi@ 000000018006b108     libucrt:lcidtoname_downlevel.obj
 0002:0000d118       ??_C@_1M@MDGOPGDD@?$AAe?$AAs?$AA?9?$AAp?$AAa@ 000000018006b118     libucrt:lcidtoname_downlevel.obj
 0002:0000d128       ??_C@_1M@EMAMGBGE@?$AAe?$AAs?$AA?9?$AAp?$AAe@ 000000018006b128     libucrt:lcidtoname_downlevel.obj
 0002:0000d138       ??_C@_1M@IBMCAOEC@?$AAe?$AAs?$AA?9?$AAp?$AAr@ 000000018006b138     libucrt:lcidtoname_downlevel.obj
 0002:0000d148       ??_C@_1M@FGMDIJED@?$AAe?$AAs?$AA?9?$AAp?$AAy@ 000000018006b148     libucrt:lcidtoname_downlevel.obj
 0002:0000d158       ??_C@_1M@IIDEOLLL@?$AAe?$AAs?$AA?9?$AAs?$AAv@ 000000018006b158     libucrt:lcidtoname_downlevel.obj
 0002:0000d168       ??_C@_1M@GAOBIPA@?$AAe?$AAs?$AA?9?$AAu?$AAy@ 000000018006b168     libucrt:lcidtoname_downlevel.obj
 0002:0000d178       ??_C@_1M@JKFFICHJ@?$AAe?$AAs?$AA?9?$AAv?$AAe@ 000000018006b178     libucrt:lcidtoname_downlevel.obj
 0002:0000d188       ??_C@_1M@PNMLOJDF@?$AAe?$AAt?$AA?9?$AAe?$AAe@ 000000018006b188     libucrt:lcidtoname_downlevel.obj
 0002:0000d198       ??_C@_1M@GHHLIKEI@?$AAe?$AAu?$AA?9?$AAe?$AAs@ 000000018006b198     libucrt:lcidtoname_downlevel.obj
 0002:0000d1a8       ??_C@_1M@PBNONODE@?$AAf?$AAa?$AA?9?$AAi?$AAr@ 000000018006b1a8     libucrt:lcidtoname_downlevel.obj
 0002:0000d1b8       ??_C@_1M@JEEHPMIL@?$AAf?$AAi?$AA?9?$AAf?$AAi@ 000000018006b1b8     libucrt:lcidtoname_downlevel.obj
 0002:0000d1c8       ??_C@_1M@LMDCNDBA@?$AAf?$AAo?$AA?9?$AAf?$AAo@ 000000018006b1c8     libucrt:lcidtoname_downlevel.obj
 0002:0000d1d8       ??_C@_1M@JKEOHLDK@?$AAf?$AAr?$AA?9?$AAb?$AAe@ 000000018006b1d8     libucrt:lcidtoname_downlevel.obj
 0002:0000d1e8       ??_C@_1M@NOHADPMI@?$AAf?$AAr?$AA?9?$AAc?$AAa@ 000000018006b1e8     libucrt:lcidtoname_downlevel.obj
 0002:0000d1f8       ??_C@_1M@KDHIHAEC@?$AAf?$AAr?$AA?9?$AAc?$AAh@ 000000018006b1f8     libucrt:lcidtoname_downlevel.obj
 0002:0000d208       ??_C@_1M@MMBBFGAK@?$AAf?$AAr?$AA?9?$AAf?$AAr@ 000000018006b208     libucrt:lcidtoname_downlevel.obj
 0002:0000d218       ??_C@_1M@PAFNENNF@?$AAf?$AAr?$AA?9?$AAl?$AAu@ 000000018006b218     libucrt:lcidtoname_downlevel.obj
 0002:0000d228       ??_C@_1M@EOHDJGDD@?$AAf?$AAr?$AA?9?$AAm?$AAc@ 000000018006b228     libucrt:lcidtoname_downlevel.obj
 0002:0000d238       ??_C@_1M@FAPLLOPF@?$AAg?$AAl?$AA?9?$AAe?$AAs@ 000000018006b238     libucrt:lcidtoname_downlevel.obj
 0002:0000d248       ??_C@_1M@FOPBFLOO@?$AAg?$AAu?$AA?9?$AAi?$AAn@ 000000018006b248     libucrt:lcidtoname_downlevel.obj
 0002:0000d258       ??_C@_1M@KBMCINPM@?$AAh?$AAe?$AA?9?$AAi?$AAl@ 000000018006b258     libucrt:lcidtoname_downlevel.obj
 0002:0000d268       ??_C@_1M@BBPHKFPJ@?$AAh?$AAi?$AA?9?$AAi?$AAn@ 000000018006b268     libucrt:lcidtoname_downlevel.obj
 0002:0000d278       ??_C@_1M@PMBNDPHD@?$AAh?$AAr?$AA?9?$AAb?$AAa@ 000000018006b278     libucrt:lcidtoname_downlevel.obj
 0002:0000d288       ??_C@_1M@BPCKOEGE@?$AAh?$AAr?$AA?9?$AAh?$AAr@ 000000018006b288     libucrt:lcidtoname_downlevel.obj
 0002:0000d298       ??_C@_1M@GACBMHKE@?$AAh?$AAu?$AA?9?$AAh?$AAu@ 000000018006b298     libucrt:lcidtoname_downlevel.obj
 0002:0000d2a8       ??_C@_1M@MILPAJJC@?$AAh?$AAy?$AA?9?$AAa?$AAm@ 000000018006b2a8     libucrt:lcidtoname_downlevel.obj
 0002:0000d2b8       ??_C@_1M@BABBICEC@?$AAi?$AAd?$AA?9?$AAi?$AAd@ 000000018006b2b8     libucrt:lcidtoname_downlevel.obj
 0002:0000d2c8       ??_C@_1M@BIKNHHPF@?$AAi?$AAs?$AA?9?$AAi?$AAs@ 000000018006b2c8     libucrt:lcidtoname_downlevel.obj
 0002:0000d2d8       ??_C@_1M@NMPCJPHE@?$AAi?$AAt?$AA?9?$AAc?$AAh@ 000000018006b2d8     libucrt:lcidtoname_downlevel.obj
 0002:0000d2e8       ??_C@_1M@GHKGFEDF@?$AAi?$AAt?$AA?9?$AAi?$AAt@ 000000018006b2e8     libucrt:lcidtoname_downlevel.obj
 0002:0000d2f8       ??_C@_1M@NIEJCJJA@?$AAj?$AAa?$AA?9?$AAj?$AAp@ 000000018006b2f8     libucrt:lcidtoname_downlevel.obj
 0002:0000d308       ??_C@_1M@JILFNBIM@?$AAk?$AAa?$AA?9?$AAg?$AAe@ 000000018006b308     libucrt:lcidtoname_downlevel.obj
 0002:0000d318       ??_C@_1M@PACPMGPH@?$AAk?$AAk?$AA?9?$AAk?$AAz@ 000000018006b318     libucrt:lcidtoname_downlevel.obj
 0002:0000d328       ??_C@_1M@IELFGMHA@?$AAk?$AAn?$AA?9?$AAi?$AAn@ 000000018006b328     libucrt:lcidtoname_downlevel.obj
 0002:0000d338       ??_C@_1O@IBBJHCH@?$AAk?$AAo?$AAk?$AA?9?$AAi?$AAn@ 000000018006b338     libucrt:lcidtoname_downlevel.obj
 0002:0000d348       ??_C@_1M@DMHAEOGC@?$AAk?$AAo?$AA?9?$AAk?$AAr@ 000000018006b348     libucrt:lcidtoname_downlevel.obj
 0002:0000d358       ??_C@_1M@HBAHBIGA@?$AAk?$AAy?$AA?9?$AAk?$AAg@ 000000018006b358     libucrt:lcidtoname_downlevel.obj
 0002:0000d368       ??_C@_1M@KPMILCJG@?$AAl?$AAt?$AA?9?$AAl?$AAt@ 000000018006b368     libucrt:lcidtoname_downlevel.obj
 0002:0000d378       ??_C@_1M@BDEKKCA@?$AAl?$AAv?$AA?9?$AAl?$AAv@ 000000018006b378     libucrt:lcidtoname_downlevel.obj
 0002:0000d388       ??_C@_1M@ELCKCCJJ@?$AAm?$AAi?$AA?9?$AAn?$AAz@ 000000018006b388     libucrt:lcidtoname_downlevel.obj
 0002:0000d398       ??_C@_1M@CBOOLAPA@?$AAm?$AAk?$AA?9?$AAm?$AAk@ 000000018006b398     libucrt:lcidtoname_downlevel.obj
 0002:0000d3a8       ??_C@_1M@GPHNBJKN@?$AAm?$AAl?$AA?9?$AAi?$AAn@ 000000018006b3a8     libucrt:lcidtoname_downlevel.obj
 0002:0000d3b8       ??_C@_1M@PABJILIG@?$AAm?$AAn?$AA?9?$AAm?$AAn@ 000000018006b3b8     libucrt:lcidtoname_downlevel.obj
 0002:0000d3c8       ??_C@_1M@FGBKKIPG@?$AAm?$AAr?$AA?9?$AAi?$AAn@ 000000018006b3c8     libucrt:lcidtoname_downlevel.obj
 0002:0000d3d8       ??_C@_1M@NDBPDDAL@?$AAm?$AAs?$AA?9?$AAb?$AAn@ 000000018006b3d8     libucrt:lcidtoname_downlevel.obj
 0002:0000d3e8       ??_C@_1M@OPIHOOPI@?$AAm?$AAs?$AA?9?$AAm?$AAy@ 000000018006b3e8     libucrt:lcidtoname_downlevel.obj
 0002:0000d3f8       ??_C@_1M@PPDBCNFM@?$AAm?$AAt?$AA?9?$AAm?$AAt@ 000000018006b3f8     libucrt:lcidtoname_downlevel.obj
 0002:0000d408       ??_C@_1M@KDJDKMDD@?$AAn?$AAb?$AA?9?$AAn?$AAo@ 000000018006b408     libucrt:lcidtoname_downlevel.obj
 0002:0000d418       ??_C@_1M@KFCFLMJP@?$AAn?$AAl?$AA?9?$AAb?$AAe@ 000000018006b418     libucrt:lcidtoname_downlevel.obj
 0002:0000d428       ??_C@_1M@KPOPDDGO@?$AAn?$AAl?$AA?9?$AAn?$AAl@ 000000018006b428     libucrt:lcidtoname_downlevel.obj
 0002:0000d438       ??_C@_1M@LJKPEMLN@?$AAn?$AAn?$AA?9?$AAn?$AAo@ 000000018006b438     libucrt:lcidtoname_downlevel.obj
 0002:0000d448       ??_C@_1M@BDGHHBFL@?$AAn?$AAs?$AA?9?$AAz?$AAa@ 000000018006b448     libucrt:lcidtoname_downlevel.obj
 0002:0000d458       ??_C@_1M@IDEHOAP@?$AAp?$AAa?$AA?9?$AAi?$AAn@ 000000018006b458     libucrt:lcidtoname_downlevel.obj
 0002:0000d468       ??_C@_1M@HDBKGOGH@?$AAp?$AAl?$AA?9?$AAp?$AAl@ 000000018006b468     libucrt:lcidtoname_downlevel.obj
 0002:0000d478       ??_C@_1M@LJLLCMEH@?$AAp?$AAt?$AA?9?$AAb?$AAr@ 000000018006b478     libucrt:lcidtoname_downlevel.obj
 0002:0000d488       ??_C@_1M@NCMONAAL@?$AAp?$AAt?$AA?9?$AAp?$AAt@ 000000018006b488     libucrt:lcidtoname_downlevel.obj
 0002:0000d498       ??_C@_1O@EAKMAJDN@?$AAq?$AAu?$AAz?$AA?9?$AAb?$AAo@ 000000018006b498     libucrt:lcidtoname_downlevel.obj
 0002:0000d4a8       ??_C@_1O@BHHPIGDN@?$AAq?$AAu?$AAz?$AA?9?$AAe?$AAc@ 000000018006b4a8     libucrt:lcidtoname_downlevel.obj
 0002:0000d4b8       ??_C@_1O@GBAPEKMJ@?$AAq?$AAu?$AAz?$AA?9?$AAp?$AAe@ 000000018006b4b8     libucrt:lcidtoname_downlevel.obj
 0002:0000d4c8       ??_C@_1M@CLGLEFBO@?$AAr?$AAo?$AA?9?$AAr?$AAo@ 000000018006b4c8     libucrt:lcidtoname_downlevel.obj
 0002:0000d4d8       ??_C@_1M@CEEDODME@?$AAr?$AAu?$AA?9?$AAr?$AAu@ 000000018006b4d8     libucrt:lcidtoname_downlevel.obj
 0002:0000d4e8       ??_C@_1M@HPKKKMPP@?$AAs?$AAa?$AA?9?$AAi?$AAn@ 000000018006b4e8     libucrt:lcidtoname_downlevel.obj
 0002:0000d4f8       ??_C@_1M@BKMAIGOJ@?$AAs?$AAe?$AA?9?$AAf?$AAi@ 000000018006b4f8     libucrt:lcidtoname_downlevel.obj
 0002:0000d508       ??_C@_1M@NDPIFLFI@?$AAs?$AAe?$AA?9?$AAn?$AAo@ 000000018006b508     libucrt:lcidtoname_downlevel.obj
 0002:0000d518       ??_C@_1M@DANKKHJ@?$AAs?$AAe?$AA?9?$AAs?$AAe@ 000000018006b518     libucrt:lcidtoname_downlevel.obj
 0002:0000d528       ??_C@_1M@PNBLONPJ@?$AAs?$AAk?$AA?9?$AAs?$AAk@ 000000018006b528     libucrt:lcidtoname_downlevel.obj
 0002:0000d538       ??_C@_1M@LFMODOAL@?$AAs?$AAl?$AA?9?$AAs?$AAi@ 000000018006b538     libucrt:lcidtoname_downlevel.obj
 0002:0000d548       ??_C@_1O@DFKOMPG@?$AAs?$AAm?$AAa?$AA?9?$AAn?$AAo@ 000000018006b548     libucrt:lcidtoname_downlevel.obj
 0002:0000d558       ??_C@_1O@NDKPBNNH@?$AAs?$AAm?$AAa?$AA?9?$AAs?$AAe@ 000000018006b558     libucrt:lcidtoname_downlevel.obj
 0002:0000d568       ??_C@_1O@PLLKBHAB@?$AAs?$AAm?$AAj?$AA?9?$AAn?$AAo@ 000000018006b568     libucrt:lcidtoname_downlevel.obj
 0002:0000d578       ??_C@_1O@CLEPOGCA@?$AAs?$AAm?$AAj?$AA?9?$AAs?$AAe@ 000000018006b578     libucrt:lcidtoname_downlevel.obj
 0002:0000d588       ??_C@_1O@DLGJGKMK@?$AAs?$AAm?$AAn?$AA?9?$AAf?$AAi@ 000000018006b588     libucrt:lcidtoname_downlevel.obj
 0002:0000d598       ??_C@_1O@OJDJGAJC@?$AAs?$AAm?$AAs?$AA?9?$AAf?$AAi@ 000000018006b598     libucrt:lcidtoname_downlevel.obj
 0002:0000d5a8       ??_C@_1M@BOFOGHPB@?$AAs?$AAq?$AA?9?$AAa?$AAl@ 000000018006b5a8     libucrt:lcidtoname_downlevel.obj
 0002:0000d5b8       ??_C@_1BG@LJBBIPGB@?$AAs?$AAr?$AA?9?$AAb?$AAa?$AA?9?$AAc?$AAy?$AAr?$AAl@ 000000018006b5b8     libucrt:lcidtoname_downlevel.obj
 0002:0000d5d0       ??_C@_1BG@JLBENFOE@?$AAs?$AAr?$AA?9?$AAb?$AAa?$AA?9?$AAl?$AAa?$AAt?$AAn@ 000000018006b5d0     libucrt:lcidtoname_downlevel.obj
 0002:0000d5e8       ??_C@_1BG@KODPNHE@?$AAs?$AAr?$AA?9?$AAs?$AAp?$AA?9?$AAc?$AAy?$AAr?$AAl@ 000000018006b5e8     libucrt:lcidtoname_downlevel.obj
 0002:0000d600       ??_C@_1BG@CIOGKHPB@?$AAs?$AAr?$AA?9?$AAs?$AAp?$AA?9?$AAl?$AAa?$AAt?$AAn@ 000000018006b600     libucrt:lcidtoname_downlevel.obj
 0002:0000d618       ??_C@_1M@NGFJLMAC@?$AAs?$AAv?$AA?9?$AAf?$AAi@ 000000018006b618     libucrt:lcidtoname_downlevel.obj
 0002:0000d628       ??_C@_1M@MPJEJAJC@?$AAs?$AAv?$AA?9?$AAs?$AAe@ 000000018006b628     libucrt:lcidtoname_downlevel.obj
 0002:0000d638       ??_C@_1M@MPNDHLFK@?$AAs?$AAw?$AA?9?$AAk?$AAe@ 000000018006b638     libucrt:lcidtoname_downlevel.obj
 0002:0000d648       ??_C@_1O@KOHBJJI@?$AAs?$AAy?$AAr?$AA?9?$AAs?$AAy@ 000000018006b648     libucrt:lcidtoname_downlevel.obj
 0002:0000d658       ??_C@_1M@LDCEFHA@?$AAt?$AAa?$AA?9?$AAi?$AAn@ 000000018006b658     libucrt:lcidtoname_downlevel.obj
 0002:0000d668       ??_C@_1M@CNJOFAK@?$AAt?$AAe?$AA?9?$AAi?$AAn@ 000000018006b668     libucrt:lcidtoname_downlevel.obj
 0002:0000d678       ??_C@_1M@GNAECACD@?$AAt?$AAh?$AA?9?$AAt?$AAh@ 000000018006b678     libucrt:lcidtoname_downlevel.obj
 0002:0000d688       ??_C@_1M@CHBIHOJO@?$AAt?$AAn?$AA?9?$AAz?$AAa@ 000000018006b688     libucrt:lcidtoname_downlevel.obj
 0002:0000d698       ??_C@_1M@GCCMIGPJ@?$AAt?$AAr?$AA?9?$AAt?$AAr@ 000000018006b698     libucrt:lcidtoname_downlevel.obj
 0002:0000d6a8       ??_C@_1M@CELMCNBK@?$AAt?$AAt?$AA?9?$AAr?$AAu@ 000000018006b6a8     libucrt:lcidtoname_downlevel.obj
 0002:0000d6b8       ??_C@_1M@KLMCELGA@?$AAu?$AAk?$AA?9?$AAu?$AAa@ 000000018006b6b8     libucrt:lcidtoname_downlevel.obj
 0002:0000d6c8       ??_C@_1M@EPAJJAJF@?$AAu?$AAr?$AA?9?$AAp?$AAk@ 000000018006b6c8     libucrt:lcidtoname_downlevel.obj
 0002:0000d6d8       ??_C@_1BG@GEGPMCDJ@?$AAu?$AAz?$AA?9?$AAu?$AAz?$AA?9?$AAc?$AAy?$AAr?$AAl@ 000000018006b6d8     libucrt:lcidtoname_downlevel.obj
 0002:0000d6f0       ??_C@_1BG@EGGKJILM@?$AAu?$AAz?$AA?9?$AAu?$AAz?$AA?9?$AAl?$AAa?$AAt?$AAn@ 000000018006b6f0     libucrt:lcidtoname_downlevel.obj
 0002:0000d708       ??_C@_1M@GFOCLFF@?$AAv?$AAi?$AA?9?$AAv?$AAn@ 000000018006b708     libucrt:lcidtoname_downlevel.obj
 0002:0000d718       ??_C@_1M@CPAMEDFI@?$AAx?$AAh?$AA?9?$AAz?$AAa@ 000000018006b718     libucrt:lcidtoname_downlevel.obj
 0002:0000d728       ??_C@_1O@EBKIFIGN@?$AAz?$AAh?$AA?9?$AAc?$AAh?$AAs@ 000000018006b728     libucrt:lcidtoname_downlevel.obj
 0002:0000d738       ??_C@_1O@NMHPGANE@?$AAz?$AAh?$AA?9?$AAc?$AAh?$AAt@ 000000018006b738     libucrt:lcidtoname_downlevel.obj
 0002:0000d748       ??_C@_1M@LPINJOMC@?$AAz?$AAh?$AA?9?$AAc?$AAn@ 000000018006b748     libucrt:lcidtoname_downlevel.obj
 0002:0000d758       ??_C@_1M@OCJEJODD@?$AAz?$AAh?$AA?9?$AAh?$AAk@ 000000018006b758     libucrt:lcidtoname_downlevel.obj
 0002:0000d768       ??_C@_1M@DNDLJINH@?$AAz?$AAh?$AA?9?$AAm?$AAo@ 000000018006b768     libucrt:lcidtoname_downlevel.obj
 0002:0000d778       ??_C@_1M@MBFDNDND@?$AAz?$AAh?$AA?9?$AAs?$AAg@ 000000018006b778     libucrt:lcidtoname_downlevel.obj
 0002:0000d788       ??_C@_1M@IMEPLEPE@?$AAz?$AAh?$AA?9?$AAt?$AAw@ 000000018006b788     libucrt:lcidtoname_downlevel.obj
 0002:0000d798       ??_C@_1M@BBGHNHJP@?$AAz?$AAu?$AA?9?$AAz?$AAa@ 000000018006b798     libucrt:lcidtoname_downlevel.obj
 0002:0000d7a4       ??_C@_01GBGANLPD@0@        000000018006b7a4     libucrt:cfout.obj
 0002:0000d7a8       ??_C@_05DNEBIAHO@1?$CDINF@ 000000018006b7a8     libucrt:cfout.obj
 0002:0000d7b0       ??_C@_06IMKFLFPG@1?$CDQNAN@ 000000018006b7b0     libucrt:cfout.obj
 0002:0000d7b8       ??_C@_06PGGFOGJG@1?$CDSNAN@ 000000018006b7b8     libucrt:cfout.obj
 0002:0000d7c0       ??_C@_05PHHOCPM@1?$CDIND@  000000018006b7c0     libucrt:cfout.obj
 0002:0000da30       ??_C@_1BA@BALFACEM@?$AAC?$AAO?$AAN?$AAO?$AAU?$AAT?$AA$@ 000000018006ba30     libucrt:initcon.obj
 0002:0000da40       __log10_256_lead           000000018006ba40     libucrt:log10_256_lead_tail_table.obj
 0002:0000e250       __log10_256_tail           000000018006c250     libucrt:log10_256_lead_tail_table.obj
 0002:0000ea58       ??_C@_1BK@DBDEIDLH@?$AAK?$AAE?$AAR?$AAN?$AAE?$AAL?$AA3?$AA2?$AA?4?$AAD?$AAL?$AAL@ 000000018006ca58     DelayImp:delayhlp.obj
 0002:0000ea78       ??_C@_0BI@OMNLIJDB@AcquireSRWLockExclusive@ 000000018006ca78     DelayImp:delayhlp.obj
 0002:0000ea90       ??_C@_0BI@HMIEPCNJ@ReleaseSRWLockExclusive@ 000000018006ca90     DelayImp:delayhlp.obj
 0002:0000eaa8       __pfnDliFailureHook2       000000018006caa8     DelayImp:delayhk1.obj
 0002:0000eab0       _load_config_used          000000018006cab0     LIBCMT:loadcfg.obj
 0002:0000ebe8       ??_C@_08JDDNMFDB@node?4exe@ 000000018006cbe8     win_delay_load_hook.obj
 0002:0000ebf8       __pfnDliNotifyHook2        000000018006cbf8     win_delay_load_hook.obj
 0002:0000ec10       ??_C@_0BC@BDKFLDHL@unknown?5exception@ 000000018006cc10     Backend.obj
 0002:0000ec28       ??_C@_0BF@KINCDENJ@bad?5array?5new?5length@ 000000018006cc28     Backend.obj
 0002:0000ec40       ??_C@_07CIFAGBMG@unknown@  000000018006cc40     Backend.obj
 0002:0000ec48       ??_C@_0BA@JFNIOLAK@string?5too?5long@ 000000018006cc48     Backend.obj
 0002:0000ec58       ??_C@_1CO@EGNPJLKI@?$AAp?$AAe?$AAr?$AAs?$AAi?$AAs?$AAt?$AAe?$AAn?$AAt?$AA?$CI?$AA?$CJ?$AA?4?$AAI?$AAs@ 000000018006cc58     Backend.obj
 0002:0000ec88       ??_C@_1DA@FBGAEOIO@?$AA?$CB?$AAp?$AAe?$AAr?$AAs?$AAi?$AAs?$AAt?$AAe?$AAn?$AAt?$AA?$CI?$AA?$CJ?$AA?4?$AAI@ 000000018006cc88     Backend.obj
 0002:0000ecb8       ??_C@_1CO@JCKLEFMA@?$AA?$CB?$AAp?$AAe?$AAr?$AAs?$AAi?$AAs?$AAt?$AAe?$AAn?$AAt?$AA?$CI?$AA?$CJ?$AA?4?$AAI@ 000000018006ccb8     Backend.obj
 0002:0000ece8       ??_C@_1BE@GMLLOIPJ@?$AAr?$AAe?$AAf?$AAs?$AA_?$AA?5?$AA?$DO?$AA?5?$AA0@ 000000018006cce8     Backend.obj
 0002:0000ed00       ??_C@_1CC@GBFLAAPF@?$AAw?$AAr?$AAa?$AAp?$AA?9?$AA?$DO?$AAr?$AAe?$AAf?$AAs?$AA_?$AA?5?$AA?$DN?$AA?$DN?$AA?5@ 000000018006cd00     Backend.obj
 0002:0000ed30       ??_C@_1IA@CCIFDHFH@?$AAD?$AA?3?$AA?2?$AAa?$AA?2?$AAn?$AAo?$AAd?$AAe?$AA?9?$AAc?$AAa?$AAn?$AAv?$AAa@ 000000018006cd30     Backend.obj
 0002:0000edb0       ??_C@_1EC@MGGLMBLC@?$AAo?$AAb?$AAj?$AAe?$AAc?$AAt?$AA?9?$AA?$DO?$AAI?$AAn?$AAt?$AAe?$AAr?$AAn?$AAa@ 000000018006cdb0     Backend.obj
 0002:0000edf8       ??_7Backend@@6B@           000000018006cdf8     Backend.obj
 0002:0000ee40       ??_7exception@stdext@@6B@  000000018006ce40     Backend.obj
 0002:0000ee58       ??_7ObjectWrap@Nan@@6B@    000000018006ce58     Backend.obj
 0002:0000ee70       ??_7bad_array_new_length@stdext@@6B@ 000000018006ce70     Backend.obj
 0002:0000ee88       ??_C@_05NGOMGBBD@image@    000000018006ce88     ImageBackend.obj
 0002:0000ee90       ??_C@_1HC@GFEOMEAF@?$AAD?$AA?3?$AA?2?$AAa?$AA?2?$AAn?$AAo?$AAd?$AAe?$AA?9?$AAc?$AAa?$AAn?$AAv?$AAa@ 000000018006ce90     ImageBackend.obj
 0002:0000ef08       ??_C@_1BC@DIMDFFBM@?$AA?$CB?$AAs?$AAu?$AAr?$AAf?$AAa?$AAc?$AAe@ 000000018006cf08     ImageBackend.obj
 0002:0000ef20       ??_C@_1BA@BHHNPNF@?$AAs?$AAu?$AAr?$AAf?$AAa?$AAc?$AAe@ 000000018006cf20     ImageBackend.obj
 0002:0000ef30       ??_C@_0N@KBCACLBD@ImageBackend@ 000000018006cf30     ImageBackend.obj
 0002:0000ef40       ??_7ImageBackend@@6B@      000000018006cf40     ImageBackend.obj
 0002:0000ef88       ??_C@_03MJPNCPKC@pdf@      000000018006cf88     PdfBackend.obj
 0002:0000ef90       ??_C@_0L@HCGIDJMC@PdfBackend@ 000000018006cf90     PdfBackend.obj
 0002:0000efa0       ??_C@_0BA@FOIKENOD@vector?5too?5long@ 000000018006cfa0     PdfBackend.obj
 0002:0000efb0       ??_7PdfBackend@@6B@        000000018006cfb0     PdfBackend.obj
 0002:0000eff8       ??_C@_03NNPBMGBD@svg@      000000018006cff8     SvgBackend.obj
 0002:0000f000       ??_C@_1GO@EKGNLMIA@?$AAD?$AA?3?$AA?2?$AAa?$AA?2?$AAn?$AAo?$AAd?$AAe?$AA?9?$AAc?$AAa?$AAn?$AAv?$AAa@ 000000018006d000     SvgBackend.obj
 0002:0000f070       ??_C@_1BE@LCFLFJLD@?$AA?$CB?$AA_?$AAc?$AAl?$AAo?$AAs?$AAu?$AAr?$AAe@ 000000018006d070     SvgBackend.obj
 0002:0000f088       ??_C@_0L@NPKKBKFF@SvgBackend@ 000000018006d088     SvgBackend.obj
 0002:0000f098       ??_7SvgBackend@@6B@        000000018006d098     SvgBackend.obj
 0002:0000f0e0       ??_C@_1GE@FJOIPOPI@?$AAD?$AA?3?$AA?2?$AAa?$AA?2?$AAn?$AAo?$AAd?$AAe?$AA?9?$AAc?$AAa?$AAn?$AAv?$AAa@ 000000018006d0e0     BMPParser.obj
 0002:0000f148       ??_C@_1DA@GJKBCAIL@?$AAs?$AAt?$AAa?$AAt?$AAu?$AAs?$AA?5?$AA?$DN?$AA?$DN?$AA?5?$AAS?$AAt?$AAa?$AAt?$AAu@ 000000018006d148     BMPParser.obj
 0002:0000f178       ??_C@_0M@OPOGKKPL@file?5header@ 000000018006d178     BMPParser.obj
 0002:0000f188       ??_C@_0BG@JPBAHECP@file?5header?5signature@ 000000018006d188     BMPParser.obj
 0002:0000f1a0       ??_C@_02JKMCABAH@BA@       000000018006d1a0     BMPParser.obj
 0002:0000f1a4       ??_C@_05BFGHBGGP@?5?$CCBA?$CC@ 000000018006d1a4     BMPParser.obj
 0002:0000f1ac       ??_C@_02FDNJOBDI@CI@       000000018006d1ac     BMPParser.obj
 0002:0000f1b0       ??_C@_05KDMICALC@?5?$CCCI?$CC@ 000000018006d1b0     BMPParser.obj
 0002:0000f1b8       ??_C@_02MINJEICA@CP@       000000018006d1b8     BMPParser.obj
 0002:0000f1bc       ??_C@_05LADPLIEN@?5?$CCCP?$CC@ 000000018006d1bc     BMPParser.obj
 0002:0000f1c4       ??_C@_02KEKBIMGE@IC@       000000018006d1c4     BMPParser.obj
 0002:0000f1c8       ??_C@_05MBOCEFAA@?5?$CCIC?$CC@ 000000018006d1c8     BMPParser.obj
 0002:0000f1d0       ??_C@_02LCNFJAAN@PT@       000000018006d1d0     BMPParser.obj
 0002:0000f1d4       ??_C@_05PFJKOIOA@?5?$CCPT?$CC@ 000000018006d1d4     BMPParser.obj
 0002:0000f1dc       ??_C@_02DGHHEOAL@BM@       000000018006d1dc     BMPParser.obj
 0002:0000f1e0       ??_C@_0BH@PGODKMKI@inconsistent?5file?5size@ 000000018006d1e0     BMPParser.obj
 0002:0000f1f8       ??_C@_0L@DKDHPBLO@DIB?5header@ 000000018006d1f8     BMPParser.obj
 0002:0000f208       ??_C@_0BF@JGAMBPJ@?5?$CCOS22XBITMAPHEADER?$CC@ 000000018006d208     BMPParser.obj
 0002:0000f220       ??_C@_0BB@GLFIFBPJ@image?5width?5is?50@ 000000018006d220     BMPParser.obj
 0002:0000f238       ??_C@_0BF@PICPCPNH@negative?5image?5width@ 000000018006d238     BMPParser.obj
 0002:0000f250       ??_C@_0BG@DIENJMKE@too?5large?5image?5width@ 000000018006d250     BMPParser.obj
 0002:0000f268       ??_C@_0BC@BPGKCLEL@image?5height?5is?50@ 000000018006d268     BMPParser.obj
 0002:0000f280       ??_C@_0BH@MGLIIGAD@too?5large?5image?5height@ 000000018006d280     BMPParser.obj
 0002:0000f298       ??_C@_0CB@EHNMIHLN@number?5of?5color?5planes?5must?5be?5@ 000000018006d298     BMPParser.obj
 0002:0000f2c0       ??_C@_0M@CGFHNEKC@color?5depth@ 000000018006d2c0     BMPParser.obj
 0002:0000f2d0       ??_C@_0BB@JGEMFNKM@compression?5type@ 000000018006d2d0     BMPParser.obj
 0002:0000f2e8       ??_C@_0L@LHCCDPID@?5?$CCBI_RLE8?$CC@ 000000018006d2e8     BMPParser.obj
 0002:0000f2f8       ??_C@_0L@LODIMGOH@?5?$CCBI_RLE4?$CC@ 000000018006d2f8     BMPParser.obj
 0002:0000f308       ??_C@_0L@KCBKOKJL@?5?$CCBI_JPEG?$CC@ 000000018006d308     BMPParser.obj
 0002:0000f318       ??_C@_09CJGDEMME@?5?$CCBI_PNG?$CC@ 000000018006d318     BMPParser.obj
 0002:0000f328       ??_C@_0BF@IIABODNP@?5?$CCBI_ALPHABITFIELDS?$CC@ 000000018006d328     BMPParser.obj
 0002:0000f340       ??_C@_0L@OLAPJCD@?5?$CCBI_CMYK?$CC@ 000000018006d340     BMPParser.obj
 0002:0000f350       ??_C@_0P@LMMOCJLO@?5?$CCBI_CMYKRLE8?$CC@ 000000018006d350     BMPParser.obj
 0002:0000f360       ??_C@_0P@LFNENANK@?5?$CCBI_CMYKRLE4?$CC@ 000000018006d360     BMPParser.obj
 0002:0000f370       ??_C@_0EN@COPDNOCO@compression?5BI_BITFIELDS?5can?5be@ 000000018006d370     BMPParser.obj
 0002:0000f3c0       ??_C@_0CI@DAENBHLK@color?5palette?5and?5bit?5depth?5com@ 000000018006d3c0     BMPParser.obj
 0002:0000f3e8       ??_C@_04CCANGBDI@Win?5@    000000018006d3e8     BMPParser.obj
 0002:0000f3f0       ??_C@_04FBDBODBG@sRGB@     000000018006d3f0     BMPParser.obj
 0002:0000f3f8       ??_C@_01BJJEKLCA@?$CC@     000000018006d3f8     BMPParser.obj
 0002:0000f400       ??_C@_0O@CJMICHBL@color?5space?5?$CC@ 000000018006d400     BMPParser.obj
 0002:0000f410       ??_C@_0CL@BAIMHKPA@image?5data?5overlaps?5with?5anothe@ 000000018006d410     BMPParser.obj
 0002:0000f440       ??_C@_0L@BENKOINO@image?5data@ 000000018006d440     BMPParser.obj
 0002:0000f450       ??_C@_0BI@IFJLKLBA@missing?5image?5data?5size@ 000000018006d450     BMPParser.obj
 0002:0000f468       ??_C@_0BI@PFLPMPIG@invalid?5image?5data?5size@ 000000018006d468     BMPParser.obj
 0002:0000f480       ??_C@_0BG@MANBHLLD@not?5enough?5image?5data@ 000000018006d480     BMPParser.obj
 0002:0000f498       ??_C@_0BK@KGDODFCD@unable?5to?5allocate?5memory@ 000000018006d498     BMPParser.obj
 0002:0000f4b4       ??_C@_03NLJIHOMM@?5?9?5@   000000018006d4b4     BMPParser.obj
 0002:0000f4b8       ??_C@_0BI@MNHGEGHJ@Error?5while?5processing?5@ 000000018006d4b8     BMPParser.obj
 0002:0000f4d0       ??_C@_0BH@CFIIDOJD@unexpected?5end?5of?5file@ 000000018006d4d0     BMPParser.obj
 0002:0000f4e7       ??_C@_00CNPNBAHC@@         000000018006d4e7     BMPParser.obj
 0002:0000f4e8       ??_C@_0BD@NNNHJFDD@invalid?5color?5mask@ 000000018006d4e8     BMPParser.obj
 0002:0000f500       ??_C@_0N@FMIEHHDB@unsupported?5@ 000000018006d500     BMPParser.obj
 0002:0000f510       ??_C@_08OHKLBDEG@unknown?5@ 000000018006d510     BMPParser.obj
 0002:0000f520       ??_C@_08OMFJPINA@Backends@ 000000018006d520     Backends.obj
 0002:0000f530       ??_C@_1JE@JJMAAKOP@?$AAD?$AA?3?$AA?2?$AAa?$AA?2?$AAn?$AAo?$AAd?$AAe?$AA?9?$AAc?$AAa?$AAn?$AAv?$AAa@ 000000018006d530     Canvas.obj
 0002:0000f5d0       ??_C@_1FK@CBGIJHDF@?$AAv?$AAa?$AAl?$AAu?$AAe?$AA?4?$AAs?$AAi?$AAz?$AAe?$AA?$CI?$AA?$CJ?$AA?5?$AA?$DM?$AA?$DN@ 000000018006d5d0     Canvas.obj
 0002:0000f630       ??_C@_1GI@NMFKHHFO@?$AAD?$AA?3?$AA?2?$AAa?$AA?2?$AAn?$AAo?$AAd?$AAe?$AA?9?$AAc?$AAa?$AAn?$AAv?$AAa@ 000000018006d630     Canvas.obj
 0002:0000f6a0       ??_C@_1GA@PFOOBIAG@?$AAl?$AAe?$AAn?$AAg?$AAt?$AAh?$AA?5?$AA?$DM?$AA?$DN?$AA?5?$AAi?$AAm?$AAp?$AA?3?$AA?3@ 000000018006d6a0     Canvas.obj
 0002:0000f700       ??_C@_1FM@LOELJOFK@?$AAs?$AAi?$AAz?$AAe?$AA?5?$AA?$DM?$AA?$DN?$AA?5?$AAi?$AAm?$AAp?$AA?3?$AA?3?$AAk?$AAM@ 000000018006d700     Canvas.obj
 0002:0000f760       ??_C@_1BO@OPFMAOCA@?$AAl?$AAe?$AAn?$AA?5?$AA?$DM?$AA?$DN?$AA?5?$AAI?$AAN?$AAT?$AA_?$AAM?$AAA?$AAX@ 000000018006d760     Canvas.obj
 0002:0000f780       ??_C@_1BE@CKDJNAPC@?$AAs?$AAt?$AAr?$AA_?$AA?5?$AA?$CB?$AA?$DN?$AA?5?$AA0@ 000000018006d780     Canvas.obj
 0002:0000f794       ??_C@_06BHAEKJHJ@1?46?439@ 000000018006d794     Canvas.obj
 0002:0000f79c       ??_C@_02LMMGGCAJ@?3?5@     000000018006d79c     Canvas.obj
 0002:0000f7a0       ??_C@_08LLGCOLLL@iostream@ 000000018006d7a0     Canvas.obj
 0002:0000f7b0       ??_C@_0BA@ELKIONDK@bad?5locale?5name@ 000000018006d7b0     Canvas.obj
 0002:0000f7c0       ??_C@_0BF@PHHKMMFD@ios_base?3?3badbit?5set@ 000000018006d7c0     Canvas.obj
 0002:0000f7d8       ??_C@_0BG@FMKFHCIL@ios_base?3?3failbit?5set@ 000000018006d7d8     Canvas.obj
 0002:0000f7f0       ??_C@_0BF@OOHOMBOF@ios_base?3?3eofbit?5set@ 000000018006d7f0     Canvas.obj
 0002:0000f808       ??_C@_0CD@BOHAHBFM@canvas?3empty_closure_output_buf@ 000000018006d808     Canvas.obj
 0002:0000f830       ??_C@_0CA@PKBJJIPN@canvas?3term_closure_destination@ 000000018006d830     Canvas.obj
 0002:0000f850       ??_C@_06PBIJCONE@Canvas@   000000018006d850     Canvas.obj
 0002:0000f858       ??_C@_08GOCDALDA@toBuffer@ 000000018006d858     Canvas.obj
 0002:0000f868       ??_C@_0O@IOKOGJGN@streamPNGSync@ 000000018006d868     Canvas.obj
 0002:0000f878       ??_C@_0O@OBICOFIG@streamPDFSync@ 000000018006d878     Canvas.obj
 0002:0000f888       ??_C@_0P@GMDNPKGK@streamJPEGSync@ 000000018006d888     Canvas.obj
 0002:0000f898       ??_C@_04GPMDFGEJ@type@     000000018006d898     Canvas.obj
 0002:0000f8a0       ??_C@_06LNMIFCNI@stride@   000000018006d8a0     Canvas.obj
 0002:0000f8a8       ??_C@_05IGKADHGO@width@    000000018006d8a8     Canvas.obj
 0002:0000f8b0       ??_C@_06LNLHEAAG@height@   000000018006d8b0     Canvas.obj
 0002:0000f8b8       ??_C@_0P@DNOOAMCM@PNG_NO_FILTERS@ 000000018006d8b8     Canvas.obj
 0002:0000f8c8       ??_C@_0BA@NECJFJGB@PNG_FILTER_NONE@ 000000018006d8c8     Canvas.obj
 0002:0000f8d8       ??_C@_0P@ILKINAJE@PNG_FILTER_SUB@ 000000018006d8d8     Canvas.obj
 0002:0000f8e8       ??_C@_0O@PHEANGBB@PNG_FILTER_UP@ 000000018006d8e8     Canvas.obj
 0002:0000f8f8       ??_C@_0P@OIJAFJM@PNG_FILTER_AVG@ 000000018006d8f8     Canvas.obj
 0002:0000f908       ??_C@_0BB@EOMICOFG@PNG_FILTER_PAETH@ 000000018006d908     Canvas.obj
 0002:0000f920       ??_C@_0BA@HBOOLNBH@PNG_ALL_FILTERS@ 000000018006d920     Canvas.obj
 0002:0000f930       ??_C@_0O@KCCDDIBD@_registerFont@ 000000018006d930     Canvas.obj
 0002:0000f940       ??_C@_0BE@GPPMDHOH@_deregisterAllFonts@ 000000018006d940     Canvas.obj
 0002:0000f958       ??_C@_0DD@NOKGMICM@Class?5constructors?5cannot?5be?5in@ 000000018006d958     Canvas.obj
 0002:0000f990       ??_C@_0BC@PALKPJEA@Invalid?5arguments@ 000000018006d990     Canvas.obj
 0002:0000f9a8       ??_C@_0DG@OKDLMMJN@Method?5Canvas?4GetType?5called?5on@ 000000018006d9a8     Canvas.obj
 0002:0000f9e0       ??_C@_0DI@MKHKOLNE@Method?5Canvas?4GetStride?5called?5@ 000000018006d9e0     Canvas.obj
 0002:0000fa18       ??_C@_0DH@NHIADAKO@Method?5Canvas?4GetWidth?5called?5o@ 000000018006da18     Canvas.obj
 0002:0000fa50       ??_C@_0DH@JLMNEGLA@Method?5Canvas?4SetWidth?5called?5o@ 000000018006da50     Canvas.obj
 0002:0000fa88       ??_C@_0DI@BFMGDDHO@Method?5Canvas?4GetHeight?5called?5@ 000000018006da88     Canvas.obj
 0002:0000fac0       ??_C@_0DI@OPIFEDGL@Method?5Canvas?4SetHeight?5called?5@ 000000018006dac0     Canvas.obj
 0002:0000faf8       ??_C@_0BK@LEHHNKDG@canvas?3ToBufferAsyncAfter@ 000000018006daf8     Canvas.obj
 0002:0000fb18       ??_C@_0BB@CHLGOGDL@compressionLevel@ 000000018006db18     Canvas.obj
 0002:0000fb30       ??_C@_0L@CAGNKJED@resolution@ 000000018006db30     Canvas.obj
 0002:0000fb40       ??_C@_07LOIMJIII@filters@  000000018006db40     Canvas.obj
 0002:0000fb48       ??_C@_07JKIHKJOO@palette@  000000018006db48     Canvas.obj
 0002:0000fb50       ??_C@_0CI@BHLKFIE@Palette?5length?5must?5be?5a?5multip@ 000000018006db50     Canvas.obj
 0002:0000fb78       ??_C@_0BA@IGMJCIAO@backgroundIndex@ 000000018006db78     Canvas.obj
 0002:0000fb88       ??_C@_07DADGLCBN@quality@  000000018006db88     Canvas.obj
 0002:0000fb90       ??_C@_0BC@PBNJDFOD@chromaSubsampling@ 000000018006db90     Canvas.obj
 0002:0000fba8       ??_C@_0M@BECHMDJA@progressive@ 000000018006dba8     Canvas.obj
 0002:0000fbb4       ??_C@_06FHIJNKHO@?$CFFT?$CFTZ@ 000000018006dbb4     Canvas.obj
 0002:0000fbbc       ??_C@_05PHLGJONK@title@    000000018006dbbc     Canvas.obj
 0002:0000fbc4       ??_C@_06LIPPPFCI@author@   000000018006dbc4     Canvas.obj
 0002:0000fbd0       ??_C@_07JNNGEGGO@subject@  000000018006dbd0     Canvas.obj
 0002:0000fbd8       ??_C@_08KBIEDDDE@keywords@ 000000018006dbd8     Canvas.obj
 0002:0000fbe8       ??_C@_07PJPKCGHK@creator@  000000018006dbe8     Canvas.obj
 0002:0000fbf0       ??_C@_0N@NMBFAPFM@creationDate@ 000000018006dbf0     Canvas.obj
 0002:0000fc00       ??_C@_07FKDDNFDN@modDate@  000000018006dc00     Canvas.obj
 0002:0000fc08       ??_C@_03DGOGAGNC@raw@      000000018006dc08     Canvas.obj
 0002:0000fc10       ??_C@_0CE@IOCECGHO@Data?5exceeds?5maximum?5buffer?5len@ 000000018006dc10     Canvas.obj
 0002:0000fc38       ??_C@_09NGJJJBGE@image?1png@ 000000018006dc38     Canvas.obj
 0002:0000fc48       ??_C@_0L@PJKHLKFB@image?1jpeg@ 000000018006dc48     Canvas.obj
 0002:0000fc58       ??_C@_0BB@BCHOLLGI@canvas?3StreamPNG@ 000000018006dc58     Canvas.obj
 0002:0000fc70       ??_C@_0BL@NEPODJIN@callback?5function?5required@ 000000018006dc70     Canvas.obj
 0002:0000fc90       ??_C@_0BB@GPCAPPP@canvas?3StreamPDF@ 000000018006dc90     Canvas.obj
 0002:0000fca8       ??_C@_0BC@FANAGBIP@wrong?5canvas?5type@ 000000018006dca8     Canvas.obj
 0002:0000fcc0       ??_C@_0BE@BPOGMHI@Wrong?5argument?5type@ 000000018006dcc0     Canvas.obj
 0002:0000fce0       ??_C@_0KD@OFKOCKPC@The?5second?5argument?5to?5register@ 000000018006dce0     Canvas.obj
 0002:0000fd88       ??_C@_0BK@COFJPHCD@Could?5not?5parse?5font?5file@ 000000018006dd88     Canvas.obj
 0002:0000fda4       ??_C@_06NBOBHOCP@family@   000000018006dda4     Canvas.obj
 0002:0000fdac       ??_C@_06CMCBKMCB@weight@   000000018006ddac     Canvas.obj
 0002:0000fdb4       ??_C@_05IAKJCFIM@style@    000000018006ddb4     Canvas.obj
 0002:0000fdbc       ??_C@_06IKLLLDHL@normal@   000000018006ddbc     Canvas.obj
 0002:0000fdc8       ??_C@_0CO@PJJOAFFD@Could?5not?5load?5font?5to?5the?5syst@ 000000018006ddc8     Canvas.obj
 0002:0000fdf8       ??_C@_0CH@DNCCOKNG@Could?5not?5deregister?5one?5or?5mor@ 000000018006ddf8     Canvas.obj
 0002:0000fe20       ??_C@_06DAHKLION@italic@   000000018006de20     Canvas.obj
 0002:0000fe28       ??_C@_07PNBIOHPA@oblique@  000000018006de28     Canvas.obj
 0002:0000fe30       ??_C@_04PJDGFHHN@bold@     000000018006de30     Canvas.obj
 0002:0000fe38       ??_C@_03GNABGMEE@100@      000000018006de38     Canvas.obj
 0002:0000fe3c       ??_C@_03HPLEMDKK@200@      000000018006de3c     Canvas.obj
 0002:0000fe40       ??_C@_03MHAIKEMP@300@      000000018006de40     Canvas.obj
 0002:0000fe44       ??_C@_03FKNPJMHG@400@      000000018006de44     Canvas.obj
 0002:0000fe48       ??_C@_03OCGDPLBD@500@      000000018006de48     Canvas.obj
 0002:0000fe4c       ??_C@_03PANGFEPN@600@      000000018006de4c     Canvas.obj
 0002:0000fe50       ??_C@_03EIGKDDJI@700@      000000018006de50     Canvas.obj
 0002:0000fe54       ??_C@_03BAAJCDMO@800@      000000018006de54     Canvas.obj
 0002:0000fe58       ??_C@_03KILFEEKL@900@      000000018006de58     Canvas.obj
 0002:0000fe5c       ??_C@_01IHBHIGKO@?0@       000000018006de5c     Canvas.obj
 0002:0000fe60       ??_C@_07JKKCBBMM@context@  000000018006de60     Canvas.obj
 0002:0000fe70       ??_C@_1JA@PPNCFCKL@?$AAD?$AA?3?$AA?2?$AAa?$AA?2?$AAn?$AAo?$AAd?$AAe?$AA?9?$AAc?$AAa?$AAn?$AAv?$AAa@ 000000018006de70     Canvas.obj
 0002:0000ff00       ??_C@_1GK@KNJIIFLH@?$AAr?$AAe?$AAi?$AAn?$AAt?$AAe?$AAr?$AAp?$AAr?$AAe?$AAt?$AA_?$AAc?$AAa?$AAs@ 000000018006df00     Canvas.obj
 0002:0000ff70       ??_C@_1CE@LNAGEONJ@?$AA?$CB?$AAo?$AAb?$AAj?$AAe?$AAc?$AAt?$AA?4?$AAI?$AAs?$AAE?$AAm?$AAp?$AAt?$AAy@ 000000018006df70     Canvas.obj
 0002:0000ff98       ??_C@_0BL@GOIGLPKN@unordered_map?1set?5too?5long@ 000000018006df98     Canvas.obj
 0002:0000ffb8       ??_C@_0BK@OGNNAFAB@invalid?5hash?5bucket?5count@ 000000018006dfb8     Canvas.obj
 0002:0000ffd8       ??_7?$basic_streambuf@DU?$char_traits@D@std@@@std@@6B@ 000000018006dfd8     Canvas.obj
 0002:00010050       ??_7ios_base@std@@6B@      000000018006e050     Canvas.obj
 0002:00010058       ??_7?$basic_ios@DU?$char_traits@D@std@@@std@@6B@ 000000018006e058     Canvas.obj
 0002:00010060       ??_7?$basic_stringbuf@DU?$char_traits@D@std@@V?$allocator@D@2@@std@@6B@ 000000018006e060     Canvas.obj
 0002:000100d8       ??_7_Iostream_error_category2@std@@6B@ 000000018006e0d8     Canvas.obj
 0002:00010108       ??_7_System_error@std@@6B@ 000000018006e108     Canvas.obj
 0002:00010108       ??_7system_error@std@@6B@  000000018006e108     Canvas.obj
 0002:00010108       ??_7failure@ios_base@std@@6B@ 000000018006e108     Canvas.obj
 0002:00010120       ??_7?$basic_istream@DU?$char_traits@D@std@@@std@@6B@ 000000018006e120     Canvas.obj
 0002:00010128       ??_7Canvas@@6B@            000000018006e128     Canvas.obj
 0002:00010140       ?_Iostream_error@?4??message@_Iostream_error_category2@std@@UEBA?AV?$basic_string@DU?$char_traits@D@std@@V?$allocator@D@2@@3@H@Z@4QBDB 000000018006e140     Canvas.obj
 0002:00010158       ??_8?$basic_istringstream@DU?$char_traits@D@std@@V?$allocator@D@2@@std@@7B@ 000000018006e158     Canvas.obj
 0002:00010160       ??_7?$basic_istringstream@DU?$char_traits@D@std@@V?$allocator@D@2@@std@@6B@ 000000018006e160     Canvas.obj
 0002:00010168       ??_C@_0P@CKNMLMDB@CanvasGradient@ 000000018006e168     CanvasGradient.obj
 0002:00010178       ??_C@_0N@FFOKKILE@addColorStop@ 000000018006e178     CanvasGradient.obj
 0002:00010188       ??_C@_0BC@KNPMEBHA@invalid?5arguments@ 000000018006e188     CanvasGradient.obj
 0002:000101a0       ??_C@_0BA@ELGKPKEI@offset?5required@ 000000018006e1a0     CanvasGradient.obj
 0002:000101b0       ??_C@_0BG@HHHCEBEM@color?5string?5required@ 000000018006e1b0     CanvasGradient.obj
 0002:000101c8       ??_C@_0BD@JKDEPLNJ@parse?5color?5failed@ 000000018006e1c8     CanvasGradient.obj
 0002:000101e0       ??_7Gradient@@6B@          000000018006e1e0     CanvasGradient.obj
 0002:000101f8       ??_C@_0O@KEPDKAFI@CanvasPattern@ 000000018006e1f8     CanvasPattern.obj
 0002:00010208       ??_C@_0N@NPHKHKKB@setTransform@ 000000018006e208     CanvasPattern.obj
 0002:00010218       ??_C@_0BC@LLKEFJPH@CanvasPatternInit@ 000000018006e218     CanvasPattern.obj
 0002:00010230       ??_C@_0CG@CKGIHBBA@Image?5given?5has?5not?5completed?5l@ 000000018006e230     CanvasPattern.obj
 0002:00010258       ??_C@_0BJ@NBALILEB@Image?5or?5Canvas?5expected@ 000000018006e258     CanvasPattern.obj
 0002:00010278       ??_C@_09OGFADPEI@no?9repeat@ 000000018006e278     CanvasPattern.obj
 0002:00010288       ??_C@_08HMIFKPGE@repeat?9x@ 000000018006e288     CanvasPattern.obj
 0002:00010298       ??_C@_08GFJOJOCF@repeat?9y@ 000000018006e298     CanvasPattern.obj
 0002:000102a8       ??_C@_0BD@BOGGAILC@Expected?5DOMMatrix@ 000000018006e2a8     CanvasPattern.obj
 0002:000102bc       ??_C@_01INIBCBCB@f@        000000018006e2bc     CanvasPattern.obj
 0002:000102c0       ??_C@_01KGKMHCOC@e@        000000018006e2c0     CanvasPattern.obj
 0002:000102c4       ??_C@_01LPLHEDKD@d@        000000018006e2c4     CanvasPattern.obj
 0002:000102c8       ??_C@_01PAPGNFGE@c@        000000018006e2c8     CanvasPattern.obj
 0002:000102cc       ??_C@_01OJONOECF@b@        000000018006e2cc     CanvasPattern.obj
 0002:000102d0       ??_C@_01MCMALHOG@a@        000000018006e2d0     CanvasPattern.obj
 0002:000102d8       ??_7Pattern@@6B@           000000018006e2d8     CanvasPattern.obj
 0002:000102f0       ??_C@_03JBJLGPFL@end@      000000018006e2f0     CanvasRenderingContext2d.obj
 0002:000102f4       ??_C@_04ECGOMOIE@sans@     000000018006e2f4     CanvasRenderingContext2d.obj
 0002:00010300       ??_C@_0BB@GCADKGJO@map?1set?5too?5long@ 000000018006e300     CanvasRenderingContext2d.obj
 0002:00010318       ??_C@_0BJ@HOMNLOJF@CanvasRenderingContext2D@ 000000018006e318     CanvasRenderingContext2d.obj
 0002:00010338       ??_C@_09LANPKMCJ@drawImage@ 000000018006e338     CanvasRenderingContext2d.obj
 0002:00010348       ??_C@_0N@HMHAOANH@putImageData@ 000000018006e348     CanvasRenderingContext2d.obj
 0002:00010358       ??_C@_0N@LJBMKNKJ@getImageData@ 000000018006e358     CanvasRenderingContext2d.obj
 0002:00010368       ??_C@_0BA@LENOHGDH@createImageData@ 000000018006e368     CanvasRenderingContext2d.obj
 0002:00010378       ??_C@_07IEJLLIOD@addPage@  000000018006e378     CanvasRenderingContext2d.obj
 0002:00010380       ??_C@_04EMMDIJJL@save@     000000018006e380     CanvasRenderingContext2d.obj
 0002:00010388       ??_C@_07HICINA@restore@    000000018006e388     CanvasRenderingContext2d.obj
 0002:00010390       ??_C@_06CEHMNFAL@rotate@   000000018006e390     CanvasRenderingContext2d.obj
 0002:00010398       ??_C@_09ODNGOEIO@translate@ 000000018006e398     CanvasRenderingContext2d.obj
 0002:000103a8       ??_C@_09IFONHNKG@transform@ 000000018006e3a8     CanvasRenderingContext2d.obj
 0002:000103b8       ??_C@_0N@KLMELGON@getTransform@ 000000018006e3b8     CanvasRenderingContext2d.obj
 0002:000103c8       ??_C@_0P@KBHJLFLN@resetTransform@ 000000018006e3c8     CanvasRenderingContext2d.obj
 0002:000103d8       ??_C@_0O@MDNHBEAB@isPointInPath@ 000000018006e3d8     CanvasRenderingContext2d.obj
 0002:000103e8       ??_C@_05MHMEBBGO@scale@    000000018006e3e8     CanvasRenderingContext2d.obj
 0002:000103f0       ??_C@_04POIGMEJN@clip@     000000018006e3f0     CanvasRenderingContext2d.obj
 0002:000103f8       ??_C@_04OBAECEGJ@fill@     000000018006e3f8     CanvasRenderingContext2d.obj
 0002:00010400       ??_C@_06JDPPEKDJ@stroke@   000000018006e400     CanvasRenderingContext2d.obj
 0002:00010408       ??_C@_08BKNBKKHP@fillText@ 000000018006e408     CanvasRenderingContext2d.obj
 0002:00010418       ??_C@_0L@NKNGGLJB@strokeText@ 000000018006e418     CanvasRenderingContext2d.obj
 0002:00010428       ??_C@_08IFOCBDEO@fillRect@ 000000018006e428     CanvasRenderingContext2d.obj
 0002:00010438       ??_C@_0L@EFOFNCKA@strokeRect@ 000000018006e438     CanvasRenderingContext2d.obj
 0002:00010448       ??_C@_09CADLENBP@clearRect@ 000000018006e448     CanvasRenderingContext2d.obj
 0002:00010454       ??_C@_04LHPFHFPH@rect@     000000018006e454     CanvasRenderingContext2d.obj
 0002:00010460       ??_C@_09IOKGDLEI@roundRect@ 000000018006e460     CanvasRenderingContext2d.obj
 0002:00010470       ??_C@_0M@PDPLNFGN@measureText@ 000000018006e470     CanvasRenderingContext2d.obj
 0002:0001047c       ??_C@_06ICOKFDHB@moveTo@   000000018006e47c     CanvasRenderingContext2d.obj
 0002:00010484       ??_C@_06KCFEGHJL@lineTo@   000000018006e484     CanvasRenderingContext2d.obj
 0002:00010490       ??_C@_0O@PAEGDEKM@bezierCurveTo@ 000000018006e490     CanvasRenderingContext2d.obj
 0002:000104a0       ??_C@_0BB@NNCDNEFE@quadraticCurveTo@ 000000018006e4a0     CanvasRenderingContext2d.obj
 0002:000104b8       ??_C@_09GMDIDHBP@beginPath@ 000000018006e4b8     CanvasRenderingContext2d.obj
 0002:000104c8       ??_C@_09FFNFMCIM@closePath@ 000000018006e4c8     CanvasRenderingContext2d.obj
 0002:000104d4       ??_C@_03EEIEDENP@arc@      000000018006e4d4     CanvasRenderingContext2d.obj
 0002:000104d8       ??_C@_05KOMEJIOF@arcTo@    000000018006e4d8     CanvasRenderingContext2d.obj
 0002:000104e0       ??_C@_07IANGJLLC@ellipse@  000000018006e4e0     CanvasRenderingContext2d.obj
 0002:000104e8       ??_C@_0M@KIBHMOJH@setLineDash@ 000000018006e4e8     CanvasRenderingContext2d.obj
 0002:000104f8       ??_C@_0M@KHAJBIBE@getLineDash@ 000000018006e4f8     CanvasRenderingContext2d.obj
 0002:00010508       ??_C@_0O@IIFIBGIF@createPattern@ 000000018006e508     CanvasRenderingContext2d.obj
 0002:00010518       ??_C@_0BF@FLJOOEKA@createLinearGradient@ 000000018006e518     CanvasRenderingContext2d.obj
 0002:00010530       ??_C@_0BF@MHOEOHFA@createRadialGradient@ 000000018006e530     CanvasRenderingContext2d.obj
 0002:00010548       ??_C@_0M@GJLGNIPC@pixelFormat@ 000000018006e548     CanvasRenderingContext2d.obj
 0002:00010558       ??_C@_0P@HGKACBEG@patternQuality@ 000000018006e558     CanvasRenderingContext2d.obj
 0002:00010568       ??_C@_0BG@NBHIGNIP@imageSmoothingEnabled@ 000000018006e568     CanvasRenderingContext2d.obj
 0002:00010580       ??_C@_0BJ@KOAEPHEF@globalCompositeOperation@ 000000018006e580     CanvasRenderingContext2d.obj
 0002:000105a0       ??_C@_0M@EJNLOLOE@globalAlpha@ 000000018006e5a0     CanvasRenderingContext2d.obj
 0002:000105b0       ??_C@_0M@JPJLLJDB@shadowColor@ 000000018006e5b0     CanvasRenderingContext2d.obj
 0002:000105c0       ??_C@_0L@EFNIPLDK@miterLimit@ 000000018006e5c0     CanvasRenderingContext2d.obj
 0002:000105d0       ??_C@_09PELAPJEH@lineWidth@ 000000018006e5d0     CanvasRenderingContext2d.obj
 0002:000105e0       ??_C@_07IPBACFHB@lineCap@  000000018006e5e0     CanvasRenderingContext2d.obj
 0002:000105e8       ??_C@_08CCMLJKBL@lineJoin@ 000000018006e5e8     CanvasRenderingContext2d.obj
 0002:000105f8       ??_C@_0P@NNEFDNMM@lineDashOffset@ 000000018006e5f8     CanvasRenderingContext2d.obj
 0002:00010608       ??_C@_0O@FOAIOCIO@shadowOffsetX@ 000000018006e608     CanvasRenderingContext2d.obj
 0002:00010618       ??_C@_0O@EHBDNDMP@shadowOffsetY@ 000000018006e618     CanvasRenderingContext2d.obj
 0002:00010628       ??_C@_0L@FJBIPGOL@shadowBlur@ 000000018006e628     CanvasRenderingContext2d.obj
 0002:00010638       ??_C@_09BEIGEBLF@antialias@ 000000018006e638     CanvasRenderingContext2d.obj
 0002:00010648       ??_C@_0BA@GALDJJKL@textDrawingMode@ 000000018006e648     CanvasRenderingContext2d.obj
 0002:00010658       ??_C@_0BB@FMAKGOMH@currentTransform@ 000000018006e658     CanvasRenderingContext2d.obj
 0002:00010670       ??_C@_09DCCGDJMC@fillStyle@ 000000018006e670     CanvasRenderingContext2d.obj
 0002:00010680       ??_C@_0M@HFFEPBHM@strokeStyle@ 000000018006e680     CanvasRenderingContext2d.obj
 0002:0001068c       ??_C@_04EFPADHIC@font@     000000018006e68c     CanvasRenderingContext2d.obj
 0002:00010698       ??_C@_0N@KIMHKGNF@textBaseline@ 000000018006e698     CanvasRenderingContext2d.obj
 0002:000106a8       ??_C@_09PKLPGIBN@textAlign@ 000000018006e6a8     CanvasRenderingContext2d.obj
 0002:000106b8       ??_C@_0BJ@OLEJJKDH@CanvasRenderingContext2d@ 000000018006e6b8     CanvasRenderingContext2d.obj
 0002:000106d8       ??_C@_0BN@JFEMENH@CanvasRenderingContext2dInit@ 000000018006e6d8     CanvasRenderingContext2d.obj
 0002:000106f8       ??_C@_0BJ@MMHEOABP@Unexpected?5gradient?5type@ 000000018006e6f8     CanvasRenderingContext2d.obj
 0002:00010718       ??_C@_0BN@FEKPFJFP@Failed?5to?5initialize?5context@ 000000018006e718     CanvasRenderingContext2d.obj
 0002:00010738       ??_C@_07NOFPBGJH@evenodd@  000000018006e738     CanvasRenderingContext2d.obj
 0002:00010740       ??_C@_0BA@IBFIJLCO@Canvas?5expected@ 000000018006e740     CanvasRenderingContext2d.obj
 0002:00010750       ??_C@_06OECNJAC@RGBA32@    000000018006e750     CanvasRenderingContext2d.obj
 0002:00010758       ??_C@_05EIHACBEG@RGB24@    000000018006e758     CanvasRenderingContext2d.obj
 0002:00010760       ??_C@_02GGHJHNOB@A8@       000000018006e760     CanvasRenderingContext2d.obj
 0002:00010768       ??_C@_09FDIJCLOJ@RGB16_565@ 000000018006e768     CanvasRenderingContext2d.obj
 0002:00010774       ??_C@_02LHLLMGKI@A1@       000000018006e774     CanvasRenderingContext2d.obj
 0002:00010778       ??_C@_05IAEKHIAN@alpha@    000000018006e778     CanvasRenderingContext2d.obj
 0002:00010780       ??_C@_0DL@NCONDBHI@Method?5Context2d?4GetFormat?5call@ 000000018006e780     CanvasRenderingContext2d.obj
 0002:000107c0       ??_C@_0CF@DPCLDGFG@only?5PDF?5canvases?5support?5?4addP@ 000000018006e7c0     CanvasRenderingContext2d.obj
 0002:000107e8       ??_C@_0BD@DJPHEEKJ@ImageData?5expected@ 000000018006e7e8     CanvasRenderingContext2d.obj
 0002:00010800       ??_C@_0DJ@CKCCPANE@putImageData?5for?5CANVAS_FORMAT_@ 000000018006e800     CanvasRenderingContext2d.obj
 0002:00010840       ??_C@_0CM@KDJMELNO@Invalid?5pixel?5format?5or?5not?5an?5@ 000000018006e840     CanvasRenderingContext2d.obj
 0002:00010870       ??_C@_0CH@NDMGIAMG@IndexSizeError?3?5The?5source?5widt@ 000000018006e870     CanvasRenderingContext2d.obj
 0002:00010898       ??_C@_0CI@HDADGBDO@IndexSizeError?3?5The?5source?5heig@ 000000018006e898     CanvasRenderingContext2d.obj
 0002:000108c0       ??_C@_0BC@GJDMJLID@Canvas?5width?5is?50@ 000000018006e8c0     CanvasRenderingContext2d.obj
 0002:000108d8       ??_C@_0BD@KPLINHKD@Canvas?5height?5is?50@ 000000018006e8d8     CanvasRenderingContext2d.obj
 0002:000108f0       ??_C@_0DJ@DCIKNENI@getImageData?5for?5CANVAS_FORMAT_@ 000000018006e8f0     CanvasRenderingContext2d.obj
 0002:00010930       ??_C@_0CF@NIOBFMGH@The?5first?5argument?5must?5be?5an?5o@ 000000018006e930     CanvasRenderingContext2d.obj
 0002:00010960       ??_C@_0EA@LHGFJCHP@Method?5Context2d?4GetGlobalAlpha@ 000000018006e960     CanvasRenderingContext2d.obj
 0002:000109a0       ??_C@_0EA@OINFBALP@Method?5Context2d?4SetGlobalAlpha@ 000000018006e9a0     CanvasRenderingContext2d.obj
 0002:000109e0       ??_C@_0EN@NJPCMIEN@Method?5Context2d?4GetGlobalCompo@ 000000018006e9e0     CanvasRenderingContext2d.obj
 0002:00010a30       ??_C@_0M@OABMHCHE@source?9over@ 000000018006ea30     CanvasRenderingContext2d.obj
 0002:00010a3c       ??_C@_05MEHLAELG@clear@    000000018006ea3c     CanvasRenderingContext2d.obj
 0002:00010a44       ??_C@_04COAGEIMF@copy@     000000018006ea44     CanvasRenderingContext2d.obj
 0002:00010a50       ??_C@_0M@BLMAJMLK@destination@ 000000018006ea50     CanvasRenderingContext2d.obj
 0002:00010a60       ??_C@_0BB@CIGJAIPI@destination?9over@ 000000018006ea60     CanvasRenderingContext2d.obj
 0002:00010a78       ??_C@_09CMAEPNDN@source?9in@ 000000018006ea78     CanvasRenderingContext2d.obj
 0002:00010a88       ??_C@_0P@GAHJLNBO@destination?9in@ 000000018006ea88     CanvasRenderingContext2d.obj
 0002:00010a98       ??_C@_0L@CGAPOHFD@source?9out@ 000000018006ea98     CanvasRenderingContext2d.obj
 0002:00010aa8       ??_C@_0BA@IECEOLGB@destination?9out@ 000000018006eaa8     CanvasRenderingContext2d.obj
 0002:00010ab8       ??_C@_0M@MKIEODMK@source?9atop@ 000000018006eab8     CanvasRenderingContext2d.obj
 0002:00010ac8       ??_C@_0BB@CPBJJEG@destination?9atop@ 000000018006eac8     CanvasRenderingContext2d.obj
 0002:00010adc       ??_C@_03COLCDPPJ@xor@      000000018006eadc     CanvasRenderingContext2d.obj
 0002:00010ae0       ??_C@_07IEMLKEO@lighter@   000000018006eae0     CanvasRenderingContext2d.obj
 0002:00010ae8       ??_C@_08MMOCDOEL@multiply@ 000000018006eae8     CanvasRenderingContext2d.obj
 0002:00010af4       ??_C@_06LPLGMLP@screen@    000000018006eaf4     CanvasRenderingContext2d.obj
 0002:00010b00       ??_C@_07BJNHBMF@overlay@   000000018006eb00     CanvasRenderingContext2d.obj
 0002:00010b08       ??_C@_06EJFBIMH@darken@    000000018006eb08     CanvasRenderingContext2d.obj
 0002:00010b10       ??_C@_07OODLOHBD@lighten@  000000018006eb10     CanvasRenderingContext2d.obj
 0002:00010b18       ??_C@_0M@HJIFAOGP@color?9dodge@ 000000018006eb18     CanvasRenderingContext2d.obj
 0002:00010b28       ??_C@_0L@BNODHIAO@color?9burn@ 000000018006eb28     CanvasRenderingContext2d.obj
 0002:00010b38       ??_C@_0L@CEKGHIKD@hard?9light@ 000000018006eb38     CanvasRenderingContext2d.obj
 0002:00010b48       ??_C@_0L@DKCPCJMJ@soft?9light@ 000000018006eb48     CanvasRenderingContext2d.obj
 0002:00010b58       ??_C@_0L@CHCOIIBP@difference@ 000000018006eb58     CanvasRenderingContext2d.obj
 0002:00010b68       ??_C@_09GJPEMMGJ@exclusion@ 000000018006eb68     CanvasRenderingContext2d.obj
 0002:00010b74       ??_C@_03GKJJMKFG@hue@      000000018006eb74     CanvasRenderingContext2d.obj
 0002:00010b78       ??_C@_0L@MOLEDBMN@saturation@ 000000018006eb78     CanvasRenderingContext2d.obj
 0002:00010b84       ??_C@_05PEENBMOG@color@    000000018006eb84     CanvasRenderingContext2d.obj
 0002:00010b90       ??_C@_0L@MLCMHDMB@luminosity@ 000000018006eb90     CanvasRenderingContext2d.obj
 0002:00010ba0       ??_C@_08MEKLKAIJ@saturate@ 000000018006eba0     CanvasRenderingContext2d.obj
 0002:00010bb0       ??_C@_0ED@OHNHPJNB@Method?5Context2d?4SetPatternQual@ 000000018006ebb0     CanvasRenderingContext2d.obj
 0002:00010bf4       ??_C@_04LBNBHAJC@fast@     000000018006ebf4     CanvasRenderingContext2d.obj
 0002:00010bfc       ??_C@_04DDJAGGFE@good@     000000018006ebfc     CanvasRenderingContext2d.obj
 0002:00010c04       ??_C@_04MLDDEBAF@best@     000000018006ec04     CanvasRenderingContext2d.obj
 0002:00010c10       ??_C@_07NHJEPDMH@nearest@  000000018006ec10     CanvasRenderingContext2d.obj
 0002:00010c18       ??_C@_08LJMMPFJO@bilinear@ 000000018006ec18     CanvasRenderingContext2d.obj
 0002:00010c30       ??_C@_0ED@LEKMCGIL@Method?5Context2d?4GetPatternQual@ 000000018006ec30     CanvasRenderingContext2d.obj
 0002:00010c80       ??_C@_0EK@NADKCECJ@Method?5Context2d?4SetImageSmooth@ 000000018006ec80     CanvasRenderingContext2d.obj
 0002:00010cd0       ??_C@_0EK@ODENENLI@Method?5Context2d?4GetImageSmooth@ 000000018006ecd0     CanvasRenderingContext2d.obj
 0002:00010d20       ??_C@_0EN@FPHNCOMI@Method?5Context2d?4SetGlobalCompo@ 000000018006ed20     CanvasRenderingContext2d.obj
 0002:00010d70       ??_C@_0EC@FOOBFDIL@Method?5Context2d?4GetShadowOffse@ 000000018006ed70     CanvasRenderingContext2d.obj
 0002:00010dc0       ??_C@_0EC@JGKNDJHJ@Method?5Context2d?4SetShadowOffse@ 000000018006edc0     CanvasRenderingContext2d.obj
 0002:00010e10       ??_C@_0EC@HKGDACLN@Method?5Context2d?4GetShadowOffse@ 000000018006ee10     CanvasRenderingContext2d.obj
 0002:00010e60       ??_C@_0EC@LCCPGIEP@Method?5Context2d?4SetShadowOffse@ 000000018006ee60     CanvasRenderingContext2d.obj
 0002:00010ea8       ??_C@_0DP@NNNGNPAF@Method?5Context2d?4GetShadowBlur?5@ 000000018006eea8     CanvasRenderingContext2d.obj
 0002:00010ee8       ??_C@_0DP@GINMBHDM@Method?5Context2d?4SetShadowBlur?5@ 000000018006eee8     CanvasRenderingContext2d.obj
 0002:00010f28       ??_C@_0DO@JAJHJHBL@Method?5Context2d?4GetAntiAlias?5c@ 000000018006ef28     CanvasRenderingContext2d.obj
 0002:00010f68       ??_C@_04CGFJFPFD@none@     000000018006ef68     CanvasRenderingContext2d.obj
 0002:00010f70       ??_C@_04GEBBKIAA@gray@     000000018006ef70     CanvasRenderingContext2d.obj
 0002:00010f78       ??_C@_08JOJOGLJH@subpixel@ 000000018006ef78     CanvasRenderingContext2d.obj
 0002:00010f88       ??_C@_07DLHCIBDH@default@  000000018006ef88     CanvasRenderingContext2d.obj
 0002:00010f90       ??_C@_0DO@EKJAJPKG@Method?5Context2d?4SetAntiAlias?5c@ 000000018006ef90     CanvasRenderingContext2d.obj
 0002:00010fd0       ??_C@_0EE@PFFNLLJC@Method?5Context2d?4GetTextDrawing@ 000000018006efd0     CanvasRenderingContext2d.obj
 0002:00011014       ??_C@_04LNEJFJGI@path@     000000018006f014     CanvasRenderingContext2d.obj
 0002:0001101c       ??_C@_05OIOMJNBL@glyph@    000000018006f01c     CanvasRenderingContext2d.obj
 0002:00011030       ??_C@_0EE@HOLAHIKH@Method?5Context2d?4SetTextDrawing@ 000000018006f030     CanvasRenderingContext2d.obj
 0002:00011078       ??_C@_0DM@MBOCMHPO@Method?5Context2d?4GetQuality?5cal@ 000000018006f078     CanvasRenderingContext2d.obj
 0002:000110b8       ??_C@_0DM@KMMFGAGF@Method?5Context2d?4SetQuality?5cal@ 000000018006f0b8     CanvasRenderingContext2d.obj
 0002:00011100       ??_C@_0EF@PLLNOKEN@Method?5Context2d?4GetCurrentTran@ 000000018006f100     CanvasRenderingContext2d.obj
 0002:00011150       ??_C@_0EF@KNIFMDKN@Method?5Context2d?4SetCurrentTran@ 000000018006f150     CanvasRenderingContext2d.obj
 0002:00011198       ??_C@_0DO@MMJHNKPF@Method?5Context2d?4GetFillStyle?5c@ 000000018006f198     CanvasRenderingContext2d.obj
 0002:000111d8       ??_C@_0DO@BGJANCEI@Method?5Context2d?4SetFillStyle?5c@ 000000018006f1d8     CanvasRenderingContext2d.obj
 0002:00011220       ??_C@_0EA@DCCAMICG@Method?5Context2d?4GetStrokeStyle@ 000000018006f220     CanvasRenderingContext2d.obj
 0002:00011260       ??_C@_0EA@GNJAEKOG@Method?5Context2d?4SetStrokeStyle@ 000000018006f260     CanvasRenderingContext2d.obj
 0002:000112a0       ??_C@_0DP@LKIEEFBK@Method?5Context2d?4GetMiterLimit?5@ 000000018006f2a0     CanvasRenderingContext2d.obj
 0002:000112e0       ??_C@_0DP@PIOINCD@Method?5Context2d?4SetMiterLimit?5@ 000000018006f2e0     CanvasRenderingContext2d.obj
 0002:00011320       ??_C@_0DO@HFLLPCDL@Method?5Context2d?4GetLineWidth?5c@ 000000018006f320     CanvasRenderingContext2d.obj
 0002:00011360       ??_C@_0DO@KPLMPKIG@Method?5Context2d?4SetLineWidth?5c@ 000000018006f360     CanvasRenderingContext2d.obj
 0002:000113a0       ??_C@_0DN@EMJFLPDA@Method?5Context2d?4GetLineJoin?5ca@ 000000018006f3a0     CanvasRenderingContext2d.obj
 0002:000113e0       ??_C@_05JDNDNKBA@bevel@    000000018006f3e0     CanvasRenderingContext2d.obj
 0002:000113e8       ??_C@_05MIMAKCN@round@     000000018006f3e8     CanvasRenderingContext2d.obj
 0002:000113f0       ??_C@_05NJDNHCJA@miter@    000000018006f3f0     CanvasRenderingContext2d.obj
 0002:000113f8       ??_C@_0DN@CLCFNCFL@Method?5Context2d?4SetLineJoin?5ca@ 000000018006f3f8     CanvasRenderingContext2d.obj
 0002:00011438       ??_C@_0DM@ENDIPLJO@Method?5Context2d?4GetLineCap?5cal@ 000000018006f438     CanvasRenderingContext2d.obj
 0002:00011474       ??_C@_06ICDKOIFG@square@   000000018006f474     CanvasRenderingContext2d.obj
 0002:0001147c       ??_C@_04JOGFAABP@butt@     000000018006f47c     CanvasRenderingContext2d.obj
 0002:00011488       ??_C@_0DM@CABPFMAF@Method?5Context2d?4SetLineCap?5cal@ 000000018006f488     CanvasRenderingContext2d.obj
 0002:000114d0       ??_C@_0EA@ICGACBOG@Method?5Context2d?4SetShadowColor@ 000000018006f4d0     CanvasRenderingContext2d.obj
 0002:00011510       ??_C@_0EA@NNNAKDCG@Method?5Context2d?4GetShadowColor@ 000000018006f510     CanvasRenderingContext2d.obj
 0002:00011550       ??_C@_06LGDBIFHB@repeat@   000000018006f550     CanvasRenderingContext2d.obj
 0002:00011558       ??_C@_0DJ@CKDJNHBH@Method?5Context2d?4GetFont?5called@ 000000018006f558     CanvasRenderingContext2d.obj
 0002:00011598       ??_C@_0BA@LKDIBKDD@10px?5sans?9serif@ 000000018006f598     CanvasRenderingContext2d.obj
 0002:000115a8       ??_C@_0DJ@OFPJHDG@Method?5Context2d?4SetFont?5called@ 000000018006f5a8     CanvasRenderingContext2d.obj
 0002:000115e4       ??_C@_04IAGNFIBA@size@     000000018006f5e4     CanvasRenderingContext2d.obj
 0002:000115ec       ??_C@_04NPEDKLDA@unit@     000000018006f5ec     CanvasRenderingContext2d.obj
 0002:000115f8       ??_C@_0L@LMHKFCHN@sans?9serif@ 000000018006f5f8     CanvasRenderingContext2d.obj
 0002:00011610       ??_C@_0EB@OLFFGIGB@Method?5Context2d?4GetTextBaselin@ 000000018006f610     CanvasRenderingContext2d.obj
 0002:00011658       ??_C@_0L@OJPAHFPD@alphabetic@ 000000018006f658     CanvasRenderingContext2d.obj
 0002:00011664       ??_C@_03FGFCOCMD@top@      000000018006f664     CanvasRenderingContext2d.obj
 0002:00011668       ??_C@_06PMMPCIPB@bottom@   000000018006f668     CanvasRenderingContext2d.obj
 0002:00011670       ??_C@_06CGLIEPEJ@middle@   000000018006f670     CanvasRenderingContext2d.obj
 0002:00011678       ??_C@_0M@JCPEIEF@ideographic@ 000000018006f678     CanvasRenderingContext2d.obj
 0002:00011688       ??_C@_07IDCFLKHN@hanging@  000000018006f688     CanvasRenderingContext2d.obj
 0002:00011690       ??_C@_0EB@HAGOBKFD@Method?5Context2d?4SetTextBaselin@ 000000018006f690     CanvasRenderingContext2d.obj
 0002:000116d8       ??_C@_0DO@IKBGKIHA@Method?5Context2d?4GetTextAlign?5c@ 000000018006f6d8     CanvasRenderingContext2d.obj
 0002:00011718       ??_C@_04GOOOJOPP@left@     000000018006f718     CanvasRenderingContext2d.obj
 0002:00011720       ??_C@_05FAGFPHJG@start@    000000018006f720     CanvasRenderingContext2d.obj
 0002:00011728       ??_C@_06BBLOAEEI@center@   000000018006f728     CanvasRenderingContext2d.obj
 0002:00011730       ??_C@_05DHJDAOHK@right@    000000018006f730     CanvasRenderingContext2d.obj
 0002:00011738       ??_C@_0DO@FABBKAMN@Method?5Context2d?4SetTextAlign?5c@ 000000018006f738     CanvasRenderingContext2d.obj
 0002:00011778       ??_C@_0BG@IGICBKHO@actualBoundingBoxLeft@ 000000018006f778     CanvasRenderingContext2d.obj
 0002:00011790       ??_C@_0BH@KNMENBEI@actualBoundingBoxRight@ 000000018006f790     CanvasRenderingContext2d.obj
 0002:000117a8       ??_C@_0BI@NBNJEOJE@actualBoundingBoxAscent@ 000000018006f7a8     CanvasRenderingContext2d.obj
 0002:000117c0       ??_C@_0BJ@LKCIMDON@actualBoundingBoxDescent@ 000000018006f7c0     CanvasRenderingContext2d.obj
 0002:000117e0       ??_C@_0P@FGHEPLGI@emHeightAscent@ 000000018006f7e0     CanvasRenderingContext2d.obj
 0002:000117f0       ??_C@_0BA@OKENAGP@emHeightDescent@ 000000018006f7f0     CanvasRenderingContext2d.obj
 0002:00011800       ??_C@_0BD@NGFBNEGE@alphabeticBaseline@ 000000018006f800     CanvasRenderingContext2d.obj
 0002:00011820       ??_C@_0ED@EBDMBNNI@Method?5Context2d?4SetLineDashOff@ 000000018006f820     CanvasRenderingContext2d.obj
 0002:00011870       ??_C@_0ED@BCEHMCIC@Method?5Context2d?4GetLineDashOff@ 000000018006f870     CanvasRenderingContext2d.obj
 0002:000118b4       ??_C@_01FJMABOPO@x@        000000018006f8b4     CanvasRenderingContext2d.obj
 0002:000118b8       ??_C@_01EANLCPLP@y@        000000018006f8b8     CanvasRenderingContext2d.obj
 0002:000118c0       ??_C@_0BI@KFJLDJOA@radii?5must?5be?5positive?4@ 000000018006f8c0     CanvasRenderingContext2d.obj
 0002:000118d8       ??_C@_0DH@KAODBHOC@radii?5must?5be?5a?5list?5of?5one?0?5tw@ 000000018006f8d8     CanvasRenderingContext2d.obj
 0002:00011910       ??_C@_0CB@FPKIEPGG@The?5radius?5provided?5is?5negative@ 000000018006f910     CanvasRenderingContext2d.obj
 0002:00011938       ??_C@_0BC@KBDMBKEH@deque?$DMT?$DO?5too?5long@ 000000018006f938     CanvasRenderingContext2d.obj
 0002:00011950       ??_7Context2d@@6B@         000000018006f950     CanvasRenderingContext2d.obj
 0002:00011968       ??_C@_0M@CEEDCJLA@transparent@ 000000018006f968     color.obj
 0002:00011978       ??_C@_09GNHGKALJ@aliceblue@ 000000018006f978     color.obj
 0002:00011988       ??_C@_0N@OJFLMGEJ@antiquewhite@ 000000018006f988     color.obj
 0002:00011998       ??_C@_04GANAGBLL@aqua@     000000018006f998     color.obj
 0002:000119a0       ??_C@_0L@MOKEMMG@aquamarine@ 000000018006f9a0     color.obj
 0002:000119ac       ??_C@_05CNOJAJLP@azure@    000000018006f9ac     color.obj
 0002:000119b4       ??_C@_05EJOPPCPO@beige@    000000018006f9b4     color.obj
 0002:000119bc       ??_C@_06HGAAELGA@bisque@   000000018006f9bc     color.obj
 0002:000119c4       ??_C@_05BIMBDNDC@black@    000000018006f9c4     color.obj
 0002:000119d0       ??_C@_0P@CMCBOAOE@blanchedalmond@ 000000018006f9d0     color.obj
 0002:000119e0       ??_C@_04OBGPFBCN@blue@     000000018006f9e0     color.obj
 0002:000119e8       ??_C@_0L@LKLKALMM@blueviolet@ 000000018006f9e8     color.obj
 0002:000119f4       ??_C@_05EBJGJMAL@brown@    000000018006f9f4     color.obj
 0002:00011a00       ??_C@_09JHLANABP@burlywood@ 000000018006fa00     color.obj
 0002:00011a10       ??_C@_09KIJDGGAG@cadetblue@ 000000018006fa10     color.obj
 0002:00011a20       ??_C@_0L@CHNAEACO@chartreuse@ 000000018006fa20     color.obj
 0002:00011a30       ??_C@_09BPADAHOC@chocolate@ 000000018006fa30     color.obj
 0002:00011a3c       ??_C@_05JKFECOJP@coral@    000000018006fa3c     color.obj
 0002:00011a48       ??_C@_0P@KLMOGGLK@cornflowerblue@ 000000018006fa48     color.obj
 0002:00011a58       ??_C@_08DECOJLB@cornsilk@  000000018006fa58     color.obj
 0002:00011a68       ??_C@_07DAGIGOOE@crimson@  000000018006fa68     color.obj
 0002:00011a70       ??_C@_04EDBDANFH@cyan@     000000018006fa70     color.obj
 0002:00011a78       ??_C@_08MFEOPMII@darkblue@ 000000018006fa78     color.obj
 0002:00011a88       ??_C@_08GHDCKAPC@darkcyan@ 000000018006fa88     color.obj
 0002:00011a98       ??_C@_0O@GGJPBKNE@darkgoldenrod@ 000000018006fa98     color.obj
 0002:00011aa8       ??_C@_08EADAAFKF@darkgray@ 000000018006faa8     color.obj
 0002:00011ab8       ??_C@_09MHNMOMAI@darkgreen@ 000000018006fab8     color.obj
 0002:00011ac8       ??_C@_08EHDJKNHJ@darkgrey@ 000000018006fac8     color.obj
 0002:00011ad8       ??_C@_09FAPDIPMK@darkkhaki@ 000000018006fad8     color.obj
 0002:00011ae8       ??_C@_0M@MEEFECHN@darkmagenta@ 000000018006fae8     color.obj
 0002:00011af8       ??_C@_0P@BGCLDNDK@darkolivegreen@ 000000018006faf8     color.obj
 0002:00011b08       ??_C@_0L@ICJJPBF@darkorange@ 000000018006fb08     color.obj
 0002:00011b18       ??_C@_0L@EEAHIPOC@darkorchid@ 000000018006fb18     color.obj
 0002:00011b28       ??_C@_07MFAOOMGP@darkred@  000000018006fb28     color.obj
 0002:00011b30       ??_C@_0L@CKNHPKLG@darksalmon@ 000000018006fb30     color.obj
 0002:00011b40       ??_C@_0N@FBOCOPGH@darkseagreen@ 000000018006fb40     color.obj
 0002:00011b50       ??_C@_0O@PABAFENG@darkslateblue@ 000000018006fb50     color.obj
 0002:00011b60       ??_C@_0O@HFGOKNPL@darkslategray@ 000000018006fb60     color.obj
 0002:00011b70       ??_C@_0O@HCGHAFCH@darkslategrey@ 000000018006fb70     color.obj
 0002:00011b80       ??_C@_0O@HKLGOIEA@darkturquoise@ 000000018006fb80     color.obj
 0002:00011b90       ??_C@_0L@NGBKDFME@darkviolet@ 000000018006fb90     color.obj
 0002:00011ba0       ??_C@_08CJGCPHKF@deeppink@ 000000018006fba0     color.obj
 0002:00011bb0       ??_C@_0M@BGGBNDNG@deepskyblue@ 000000018006fbb0     color.obj
 0002:00011bc0       ??_C@_07DJPEDLIH@dimgray@  000000018006fbc0     color.obj
 0002:00011bc8       ??_C@_07DOPNJDFL@dimgrey@  000000018006fbc8     color.obj
 0002:00011bd0       ??_C@_0L@MIOOBLBJ@dodgerblue@ 000000018006fbd0     color.obj
 0002:00011be0       ??_C@_09ELCPEDIM@firebrick@ 000000018006fbe0     color.obj
 0002:00011bf0       ??_C@_0M@FFMCAIP@floralwhite@ 000000018006fbf0     color.obj
 0002:00011c00       ??_C@_0M@HBKAKFBN@forestgreen@ 000000018006fc00     color.obj
 0002:00011c10       ??_C@_07FHEBJCGF@fuchsia@  000000018006fc10     color.obj
 0002:00011c18       ??_C@_09MIGKOGAO@gainsboro@ 000000018006fc18     color.obj
 0002:00011c28       ??_C@_0L@CELMEDAA@ghostwhite@ 000000018006fc28     color.obj
 0002:00011c34       ??_C@_04DBNGNIAN@gold@     000000018006fc34     color.obj
 0002:00011c40       ??_C@_09KJDOAGJL@goldenrod@ 000000018006fc40     color.obj
 0002:00011c4c       ??_C@_05GBEEJKMC@green@    000000018006fc4c     color.obj
 0002:00011c58       ??_C@_0M@LFPLFELJ@greenyellow@ 000000018006fc58     color.obj
 0002:00011c64       ??_C@_04GDBIAANM@grey@     000000018006fc64     color.obj
 0002:00011c70       ??_C@_08BKNCNHLL@honeydew@ 000000018006fc70     color.obj
 0002:00011c80       ??_C@_07PCCOEED@hotpink@   000000018006fc80     color.obj
 0002:00011c88       ??_C@_09IELIJPNO@indianred@ 000000018006fc88     color.obj
 0002:00011c94       ??_C@_06MLCCIEFE@indigo@   000000018006fc94     color.obj
 0002:00011c9c       ??_C@_05NNJJIMHF@ivory@    000000018006fc9c     color.obj
 0002:00011ca4       ??_C@_05PGGLPJAA@khaki@    000000018006fca4     color.obj
 0002:00011cb0       ??_C@_08KJDCPJPL@lavender@ 000000018006fcb0     color.obj
 0002:00011cc0       ??_C@_0O@CCCMFNCK@lavenderblush@ 000000018006fcc0     color.obj
 0002:00011cd0       ??_C@_09MONDINDP@lawngreen@ 000000018006fcd0     color.obj
 0002:00011ce0       ??_C@_0N@ICDCAEHK@lemonchiffon@ 000000018006fce0     color.obj
 0002:00011cf0       ??_C@_09NBIPJLA@lightblue@ 000000018006fcf0     color.obj
 0002:00011d00       ??_C@_0L@BEAGLGMO@lightcoral@ 000000018006fd00     color.obj
 0002:00011d10       ??_C@_09KPGEKFMK@lightcyan@ 000000018006fd10     color.obj
 0002:00011d20       ??_C@_0BF@PJADCIND@lightgoldenrodyellow@ 000000018006fd20     color.obj
 0002:00011d38       ??_C@_09IIGGAAJN@lightgray@ 000000018006fd38     color.obj
 0002:00011d48       ??_C@_0L@OPBGACJD@lightgreen@ 000000018006fd48     color.obj
 0002:00011d58       ??_C@_09IPGPKIEB@lightgrey@ 000000018006fd58     color.obj
 0002:00011d68       ??_C@_09KOBGKMHP@lightpink@ 000000018006fd68     color.obj
 0002:00011d78       ??_C@_0M@ENCCHKJE@lightsalmon@ 000000018006fd78     color.obj
 0002:00011d88       ??_C@_0O@BLOIENJC@lightseagreen@ 000000018006fd88     color.obj
 0002:00011d98       ??_C@_0N@JIFIFCAN@lightskyblue@ 000000018006fd98     color.obj
 0002:00011da8       ??_C@_0P@LIPDKBMK@lightslategray@ 000000018006fda8     color.obj
 0002:00011db8       ??_C@_0P@LPPKAJBG@lightslategrey@ 000000018006fdb8     color.obj
 0002:00011dc8       ??_C@_0P@EIHJHAMG@lightsteelblue@ 000000018006fdc8     color.obj
 0002:00011dd8       ??_C@_0M@FBHPKJLB@lightyellow@ 000000018006fdd8     color.obj
 0002:00011de4       ??_C@_04HLLEONLG@lime@     000000018006fde4     color.obj
 0002:00011df0       ??_C@_09JKHHFGDO@limegreen@ 000000018006fdf0     color.obj
 0002:00011dfc       ??_C@_05MLLCELJD@linen@    000000018006fdfc     color.obj
 0002:00011e08       ??_C@_07EMDGAPCI@magenta@  000000018006fe08     color.obj
 0002:00011e10       ??_C@_06BDPIEPJF@maroon@   000000018006fe10     color.obj
 0002:00011e18       ??_C@_0BB@HHCOFKIC@mediumaquamarine@ 000000018006fe18     color.obj
 0002:00011e30       ??_C@_0L@CEFFILOH@mediumblue@ 000000018006fe30     color.obj
 0002:00011e40       ??_C@_0N@GIADPNAO@mediumorchid@ 000000018006fe40     color.obj
 0002:00011e50       ??_C@_0N@DDGNBDHJ@mediumpurple@ 000000018006fe50     color.obj
 0002:00011e60       ??_C@_0P@BNCCGPJD@mediumseagreen@ 000000018006fe60     color.obj
 0002:00011e70       ??_C@_0BA@EKIMKCFD@mediumslateblue@ 000000018006fe70     color.obj
 0002:00011e80       ??_C@_0BC@POGDBPNO@mediumspringgreen@ 000000018006fe80     color.obj
 0002:00011e98       ??_C@_0BA@MACKBOMF@mediumturquoise@ 000000018006fe98     color.obj
 0002:00011ea8       ??_C@_0BA@PNNCDMHM@mediumvioletred@ 000000018006fea8     color.obj
 0002:00011eb8       ??_C@_0N@PJDKAOHK@midnightblue@ 000000018006feb8     color.obj
 0002:00011ec8       ??_C@_09INCGBEJA@mintcream@ 000000018006fec8     color.obj
 0002:00011ed8       ??_C@_09HABDAMOF@mistyrose@ 000000018006fed8     color.obj
 0002:00011ee8       ??_C@_08OIIPPDDA@moccasin@ 000000018006fee8     color.obj
 0002:00011ef8       ??_C@_0M@OKLAMJCL@navajowhite@ 000000018006fef8     color.obj
 0002:00011f04       ??_C@_04DCMEIHPF@navy@     000000018006ff04     color.obj
 0002:00011f10       ??_C@_07MBCGBJON@oldlace@  000000018006ff10     color.obj
 0002:00011f18       ??_C@_05OFIFEKBG@olive@    000000018006ff18     color.obj
 0002:00011f20       ??_C@_09CNLBGLAE@olivedrab@ 000000018006ff20     color.obj
 0002:00011f2c       ??_C@_06HDDOCMMN@orange@   000000018006ff2c     color.obj
 0002:00011f38       ??_C@_09OPJMLMBK@orangered@ 000000018006ff38     color.obj
 0002:00011f44       ??_C@_06DPBADMDK@orchid@   000000018006ff44     color.obj
 0002:00011f50       ??_C@_0O@KONOLMEH@palegoldenrod@ 000000018006ff50     color.obj
 0002:00011f60       ??_C@_09NAJHJFNO@palegreen@ 000000018006ff60     color.obj
 0002:00011f70       ??_C@_0O@LCPHEOND@paleturquoise@ 000000018006ff70     color.obj
 0002:00011f80       ??_C@_0O@IPAPGMGK@palevioletred@ 000000018006ff80     color.obj
 0002:00011f90       ??_C@_0L@NPJMDDDD@papayawhip@ 000000018006ff90     color.obj
 0002:00011fa0       ??_C@_09GELOGGEC@peachpuff@ 000000018006ffa0     color.obj
 0002:00011fac       ??_C@_04MJMKNOJB@peru@     000000018006ffac     color.obj
 0002:00011fb4       ??_C@_04ECGBAEOC@pink@     000000018006ffb4     color.obj
 0002:00011fbc       ??_C@_04DDJGBPMH@plum@     000000018006ffbc     color.obj
 0002:00011fc8       ??_C@_0L@MNADNFAH@powderblue@ 000000018006ffc8     color.obj
 0002:00011fd4       ??_C@_06GEHONCEN@purple@   000000018006ffd4     color.obj
 0002:00011fe0       ??_C@_0O@JGOBAAIL@rebeccapurple@ 000000018006ffe0     color.obj
 0002:00011ff0       ??_C@_03FAAAOPJM@red@      000000018006fff0     color.obj
 0002:00011ff8       ??_C@_09DJJHENIF@rosybrown@ 000000018006fff8     color.obj
 0002:00012008       ??_C@_09FEEJNHFN@royalblue@ 0000000180070008     color.obj
 0002:00012018       ??_C@_0M@MOEGEDCP@saddlebrown@ 0000000180070018     color.obj
 0002:00012024       ??_C@_06FBMAEJGO@salmon@   0000000180070024     color.obj
 0002:00012030       ??_C@_0L@HLMGLGHH@sandybrown@ 0000000180070030     color.obj
 0002:00012040       ??_C@_08EKGLDJFB@seagreen@ 0000000180070040     color.obj
 0002:00012050       ??_C@_08MFJLKPPC@seashell@ 0000000180070050     color.obj
 0002:0001205c       ??_C@_06CEGMHAGE@sienna@   000000018007005c     color.obj
 0002:00012064       ??_C@_06NBGLMDBG@silver@   0000000180070064     color.obj
 0002:00012070       ??_C@_07MFCMKLDM@skyblue@  0000000180070070     color.obj
 0002:00012078       ??_C@_09DPLBEIJJ@slateblue@ 0000000180070078     color.obj
 0002:00012088       ??_C@_09LKMPLBLE@slategray@ 0000000180070088     color.obj
 0002:00012098       ??_C@_09LNMGBJGI@slategrey@ 0000000180070098     color.obj
 0002:000120a4       ??_C@_04HPKDHBOB@snow@     00000001800700a4     color.obj
 0002:000120b0       ??_C@_0M@IPKJFOEB@springgreen@ 00000001800700b0     color.obj
 0002:000120c0       ??_C@_09EKEFGALI@steelblue@ 00000001800700c0     color.obj
 0002:000120cc       ??_C@_03IIINPABG@tan@      00000001800700cc     color.obj
 0002:000120d0       ??_C@_04LJCKMMGA@teal@     00000001800700d0     color.obj
 0002:000120d8       ??_C@_07CGANODJO@thistle@  00000001800700d8     color.obj
 0002:000120e0       ??_C@_06NALDPNEI@tomato@   00000001800700e0     color.obj
 0002:000120e8       ??_C@_09LFBHPEAP@turquoise@ 00000001800700e8     color.obj
 0002:000120f4       ??_C@_06KNANIGBM@violet@   00000001800700f4     color.obj
 0002:000120fc       ??_C@_05PPOGEFHN@wheat@    00000001800700fc     color.obj
 0002:00012104       ??_C@_05PMAELIEO@white@    0000000180070104     color.obj
 0002:00012110       ??_C@_0L@FDFMBGNF@whitesmoke@ 0000000180070110     color.obj
 0002:0001211c       ??_C@_06ENJNJKEL@yellow@   000000018007011c     color.obj
 0002:00012128       ??_C@_0M@GCLLLGON@yellowgreen@ 0000000180070128     color.obj
 0002:00012138       ??_C@_0O@CAFKCKKM@?$CD?$CF?42x?$CF?42x?$CF?42x@ 0000000180070138     color.obj
 0002:00012148       ??_C@_0BH@IMKFBGII@rgba?$CI?$CFd?0?5?$CFd?0?5?$CFd?0?5?$CF?42f?$CJ@ 0000000180070148     color.obj
 0002:00012160       ??_C@_04KDAMFBD@rgb?$CI@   0000000180070160     color.obj
 0002:00012168       ??_C@_05KGKCGJPO@rgba?$CI@ 0000000180070168     color.obj
 0002:00012170       ??_C@_05HBFAAOHC@hsla?$CI@ 0000000180070170     color.obj
 0002:00012178       ??_C@_04PFIFKHPC@hsl?$CI@  0000000180070178     color.obj
 0002:00012180       ??_C@_04CLILDBFP@rgba@     0000000180070180     color.obj
 0002:00012188       ??_C@_03FNOJMHE@rgb@       0000000180070188     color.obj
 0002:0001218c       ??_C@_04NEDOFDLO@hsla@     000000018007018c     color.obj
 0002:00012194       ??_C@_03LPNGANKN@hsl@      0000000180070194     color.obj
 0002:00012198       ??_C@_05NBEAGECF@Image@    0000000180070198     Image.obj
 0002:000121a0       ??_C@_08IPNIAGNA@complete@ 00000001800701a0     Image.obj
 0002:000121b0       ??_C@_0N@KIMBCBLK@naturalWidth@ 00000001800701b0     Image.obj
 0002:000121c0       ??_C@_0O@DMCHDHNN@naturalHeight@ 00000001800701c0     Image.obj
 0002:000121d0       ??_C@_08ELMFDEKI@dataMode@ 00000001800701d0     Image.obj
 0002:000121e0       ??_C@_0L@ICMMJJAL@MODE_IMAGE@ 00000001800701e0     Image.obj
 0002:000121f0       ??_C@_09IDBFNFDI@MODE_MIME@ 00000001800701f0     Image.obj
 0002:00012200       ??_C@_09BHHNHDEH@GetSource@ 0000000180070200     Image.obj
 0002:00012210       ??_C@_09DJDIFCNF@SetSource@ 0000000180070210     Image.obj
 0002:0001221c       ??_C@_06FKJAAAAK@onload@   000000018007021c     Image.obj
 0002:00012228       ??_C@_07MAAHHAB@onerror@   0000000180070228     Image.obj
 0002:00012230       ??_C@_0DJ@KOHKEFDI@Method?5Image?4GetDataMode?5called@ 0000000180070230     Image.obj
 0002:00012270       ??_C@_0DJ@MJMKCIFD@Method?5Image?4SetDataMode?5called@ 0000000180070270     Image.obj
 0002:000122b0       ??_C@_0DN@BNCJOLAP@Method?5Image?4GetNaturalWidth?5ca@ 00000001800702b0     Image.obj
 0002:000122f0       ??_C@_0DG@MLIMNPKK@Method?5Image?4GetWidth?5called?5on@ 00000001800702f0     Image.obj
 0002:00012328       ??_C@_0DG@IHMBKJLE@Method?5Image?4SetWidth?5called?5on@ 0000000180070328     Image.obj
 0002:00012360       ??_C@_0DO@LENNAJNL@Method?5Image?4GetNaturalHeight?5c@ 0000000180070360     Image.obj
 0002:000123a0       ??_C@_0DH@BCLHPLII@Method?5Image?4GetHeight?5called?5o@ 00000001800703a0     Image.obj
 0002:000123d8       ??_C@_0DH@OIPEILJN@Method?5Image?4SetHeight?5called?5o@ 00000001800703d8     Image.obj
 0002:00012410       ??_C@_0DH@EAEKIGFG@Method?5Image?4GetSource?5called?5o@ 0000000180070410     Image.obj
 0002:00012448       ??_C@_0DH@LKAJPGED@Method?5Image?4SetSource?5called?5o@ 0000000180070448     Image.obj
 0002:00012480       ??_C@_0BH@DEJIGAIG@Unsupported?5image?5type@ 0000000180070480     Image.obj
 0002:00012498       ??_C@_02JDPG@rb@           0000000180070498     Image.obj
 0002:0001249c       ??_C@_05FFKPLNPJ@fopen@    000000018007049c     Image.obj
 0002:000124a4       ??_C@_06GLDDLHNF@malloc@   00000001800704a4     Image.obj
 0002:000124b0       ??_C@_0BK@DBBCPGCH@Unsupported?5JPEG?5encoding@ 00000001800704b0     Image.obj
 0002:00012530       ??_7Image@@6B@             0000000180070530     Image.obj
 0002:00012578       ??_C@_09NIGIGFDC@ImageData@ 0000000180070578     ImageData.obj
 0002:00012588       ??_C@_0BK@BFELGOEH@The?5source?5width?5is?5zero?4@ 0000000180070588     ImageData.obj
 0002:000125a8       ??_C@_0BL@EMOEEHOI@The?5source?5height?5is?5zero?4@ 00000001800705a8     ImageData.obj
 0002:000125c8       ??_C@_0CH@IEOMAMPI@The?5input?5data?5has?5a?5zero?5byte?5@ 00000001800705c8     ImageData.obj
 0002:000125f0       ??_C@_0GB@KDECOCKL@Expected?5?$CIUint8ClampedArray?0?5wi@ 00000001800705f0     ImageData.obj
 0002:00012654       ??_C@_04PJOLNDGD@data@     0000000180070654     ImageData.obj
 0002:00012660       ??_C@_0DK@MBDIPHCG@Method?5ImageData?4GetWidth?5calle@ 0000000180070660     ImageData.obj
 0002:000126a0       ??_C@_0DL@PGLDIAKL@Method?5ImageData?4GetHeight?5call@ 00000001800706a0     ImageData.obj
 0002:000126e0       ??_7ImageData@@6B@         00000001800706e0     ImageData.obj
 0002:000126f8       ??_C@_0N@OGDOEBIM@cairoVersion@ 00000001800706f8     init.obj
 0002:00012708       ??_C@_04PEOOHEKN@?$CFd?$CFc@ 0000000180070708     init.obj
 0002:00012710       ??_C@_02DPKJAMEF@?$CFd@    0000000180070710     init.obj
 0002:00012718       ??_C@_0M@PLCFBBDI@jpegVersion@ 0000000180070718     init.obj
 0002:00012728       ??_C@_08FOJKHHJA@?$CFd?4?$CFd?4?$CFd@ 0000000180070728     init.obj
 0002:00012738       ??_C@_0L@KDJIMHFH@gifVersion@ 0000000180070738     init.obj
 0002:00012744       ??_C@_06DKHDKDIB@2?455?41@ 0000000180070744     init.obj
 0002:00012750       ??_C@_0M@KEEKNGNA@rsvgVersion@ 0000000180070750     init.obj
 0002:00012760       ??_C@_07DBJKBMPH@1?450?412@ 0000000180070760     init.obj
 0002:00012768       ??_C@_0N@HEPNELH@pangoVersion@ 0000000180070768     init.obj
 0002:00012778       ??_C@_0BA@MCPGPJBI@freetypeVersion@ 0000000180070778     init.obj
 0002:00012788       ??_C@_0CJ@BILPCDG@D?3?2a?2node?9canvas?2node?9canvas?2sr@ 0000000180070788     init.obj
 0002:000127b4       ??_C@_06DODEBHEI@canvas@   00000001800707b4     init.obj
 0002:000127bc       ??_C@_03BNMJFLDC@MAC@      00000001800707bc     register_font.obj
 0002:000127c0       ??_C@_08NLKHJAFK@UTF?916BE@ 00000001800707c0     register_font.obj
 0002:000127cc       ??_C@_05EGJIMALK@UTF?98@   00000001800707cc     register_font.obj
 0002:000127d4       __real@00000000            00000001800707d4     color.obj
 0002:000127d8       __real@3a800000            00000001800707d8     CanvasRenderingContext2d.obj
 0002:000127dc       __real@3dcccccd            00000001800707dc     color.obj
 0002:000127e0       __real@3f000000            00000001800707e0     CanvasRenderingContext2d.obj
 0002:000127e4       __real@3f13cd36            00000001800707e4     CanvasRenderingContext2d.obj
 0002:000127e8       __real@3f50000000000000    00000001800707e8     CanvasRenderingContext2d.obj
 0002:000127f0       __real@3f800000            00000001800707f0     color.obj
 0002:000127f8       __real@3fe0000000000000    00000001800707f8     CanvasRenderingContext2d.obj
 0002:00012800       __real@3fe5555555555555    0000000180070800     CanvasRenderingContext2d.obj
 0002:00012808       __real@3ff0000000000000    0000000180070808     CanvasRenderingContext2d.obj
 0002:00012810       __real@3ff6666666666666    0000000180070810     CanvasRenderingContext2d.obj
 0002:00012818       __real@3ff8000000000000    0000000180070818     closure.obj
 0002:00012820       __real@3ff921fb54442d18    0000000180070820     CanvasRenderingContext2d.obj
 0002:00012828       __real@40000000            0000000180070828     color.obj
 0002:00012830       __real@4000000000000000    0000000180070830     CanvasRenderingContext2d.obj
 0002:00012838       __real@400921fb54442d18    0000000180070838     CanvasRenderingContext2d.obj
 0002:00012840       __real@4012d97c7f3321d2    0000000180070840     CanvasRenderingContext2d.obj
 0002:00012848       __real@401921fb54442d18    0000000180070848     CanvasRenderingContext2d.obj
 0002:00012850       __real@40400000            0000000180070850     color.obj
 0002:00012858       __real@4043af5f6fd21ff3    0000000180070858     Canvas.obj
 0002:00012860       __real@4059000000000000    0000000180070860     Canvas.obj
 0002:00012868       __real@406fe00000000000    0000000180070868     color.obj
 0002:00012870       __real@40800000            0000000180070870     color.obj
 0002:00012878       __real@408f400000000000    0000000180070878     Canvas.obj
 0002:00012880       __real@4090000000000000    0000000180070880     CanvasRenderingContext2d.obj
 0002:00012888       __real@40c00000            0000000180070888     color.obj
 0002:00012890       __real@40c4000000000000    0000000180070890     CanvasRenderingContext2d.obj
 0002:00012898       __real@41200000            0000000180070898     color.obj
 0002:0001289c       __real@42c80000            000000018007089c     color.obj
 0002:000128a0       __real@437f0000            00000001800708a0     color.obj
 0002:000128a4       __real@43b40000            00000001800708a4     color.obj
 0002:000128a8       __real@43e0000000000000    00000001800708a8     closure.obj
 0002:000128b0       __real@477fff00            00000001800708b0     CanvasRenderingContext2d.obj
 0002:000128b4       __real@5f000000            00000001800708b4     Canvas.obj
 0002:000128b8       __real@7ff0000000000000    00000001800708b8     CanvasRenderingContext2d.obj
 0002:000128c0       __real@bff0000000000000    00000001800708c0     Canvas.obj
 0002:000128c8       __real@c01921fb54442d18    00000001800708c8     CanvasRenderingContext2d.obj
 0002:000128d0       __real@c0c00000            00000001800708d0     color.obj
 0002:000128e0       __xmm@000000000000000f0000000000000000 00000001800708e0     Image.obj
 0002:000128f0       __xmm@7fffffffffffffff7fffffffffffffff 00000001800708f0     CanvasRenderingContext2d.obj
 0002:00012900       __xmm@80000000000000008000000000000000 0000000180070900     CanvasRenderingContext2d.obj
 0002:00012910       __xmm@80000000800000008000000080000000 0000000180070910     CanvasRenderingContext2d.obj
 0002:00012920       __real@3c91a62633145c07    0000000180070920     libucrt:acos.obj
 0002:00012928       __real@3f0951665d321061    0000000180070928     libucrt:acos.obj
 0002:00012930       __real@3f51e5f887a62135    0000000180070930     libucrt:acos.obj
 0002:00012938       __real@3fac28d390c29690    0000000180070938     libucrt:acos.obj
 0002:00012940       __real@3fbb1a422982ce76    0000000180070940     libucrt:acos.obj
 0002:00012948       __real@3fcd1e4180029834    0000000180070948     libucrt:acos.obj
 0002:00012950       __real@3fd1a2bec1b7ef59    0000000180070950     libucrt:acos.obj
 0002:00012958       __real@3fdc7b297e269eac    0000000180070958     libucrt:acos.obj
 0002:00012960       __real@3fee324ab418f78d    0000000180070960     libucrt:acos.obj
 0002:00012968       __real@3ff5d6b12001f228    0000000180070968     libucrt:acos.obj
 0002:00012970       __real@40062021571dccfc    0000000180070970     libucrt:acos.obj
 0002:00012978       __real@400a4646f903cdea    0000000180070978     libucrt:acos.obj
 0002:00012980       ??_C@_05FFFCHCED@acosf@    0000000180070980     libucrt:acosf.obj
 0002:00012988       __real@3b81ce6b            0000000180070988     libucrt:acosf.obj
 0002:0001298c       __real@3d678bdd            000000018007098c     libucrt:acosf.obj
 0002:00012990       __real@3e3c94dc            0000000180070990     libucrt:acosf.obj
 0002:00012994       __real@3f561f0d            0000000180070994     libucrt:acosf.obj
 0002:00012998       __real@3f8d6fa5            0000000180070998     libucrt:acosf.obj
 0002:0001299c       __real@3fc90fdb            000000018007099c     libucrt:acosf.obj
 0002:000129a0       __real@40490fdb            00000001800709a0     libucrt:acosf.obj
 0002:000129a4       __real@bc5b3fe1            00000001800709a4     libucrt:acosf.obj
 0002:000129a8       __real@bf800000            00000001800709a8     libucrt:acosf.obj
 0002:00012a30       ??_C@_05OOAOEJGP@fmodf@    0000000180070a30     libucrt:fmodf.obj
 0002:00012a38       ??_C@_05KGFAIMPG@sqrtf@    0000000180070a38     libucrt:sqrtf.obj
 0002:00012ef0       __L_2_by_pi_bits           0000000180070ef0     libucrt:l2_by_pi_bits.obj
 0002:00013000       ??_R4type_info@@6B@        0000000180071000     LIBCMT:std_type_info_static.obj
 0002:00013028       ??_R3type_info@@8          0000000180071028     LIBCMT:std_type_info_static.obj
 0002:00013040       ??_R2type_info@@8          0000000180071040     LIBCMT:std_type_info_static.obj
 0002:00013050       ??_R1A@?0A@EA@type_info@@8 0000000180071050     LIBCMT:std_type_info_static.obj
 0002:00013078       ??_R4exception@std@@6B@    0000000180071078     LIBCMT:throw_bad_alloc.obj
 0002:000130a0       ??_R3exception@std@@8      00000001800710a0     LIBCMT:throw_bad_alloc.obj
 0002:000130b8       ??_R2exception@std@@8      00000001800710b8     LIBCMT:throw_bad_alloc.obj
 0002:000130c8       ??_R1A@?0A@EA@exception@std@@8 00000001800710c8     LIBCMT:throw_bad_alloc.obj
 0002:000130f0       ??_R4bad_alloc@std@@6B@    00000001800710f0     LIBCMT:throw_bad_alloc.obj
 0002:00013118       ??_R3bad_alloc@std@@8      0000000180071118     LIBCMT:throw_bad_alloc.obj
 0002:00013130       ??_R2bad_alloc@std@@8      0000000180071130     LIBCMT:throw_bad_alloc.obj
 0002:00013148       ??_R1A@?0A@EA@bad_alloc@std@@8 0000000180071148     LIBCMT:throw_bad_alloc.obj
 0002:00013170       ??_R4bad_array_new_length@std@@6B@ 0000000180071170     LIBCMT:throw_bad_alloc.obj
 0002:00013198       ??_R3bad_array_new_length@std@@8 0000000180071198     LIBCMT:throw_bad_alloc.obj
 0002:000131b0       ??_R2bad_array_new_length@std@@8 00000001800711b0     LIBCMT:throw_bad_alloc.obj
 0002:000131d0       ??_R1A@?0A@EA@bad_array_new_length@std@@8 00000001800711d0     LIBCMT:throw_bad_alloc.obj
 0002:000131f8       ??_R4bad_function_call@std@@6B@ 00000001800711f8     libcpmt:xthrow.obj
 0002:00013220       ??_R3bad_function_call@std@@8 0000000180071220     libcpmt:xthrow.obj
 0002:00013238       ??_R2bad_function_call@std@@8 0000000180071238     libcpmt:xthrow.obj
 0002:00013250       ??_R1A@?0A@EA@bad_function_call@std@@8 0000000180071250     libcpmt:xthrow.obj
 0002:00013278       ??_R4logic_error@std@@6B@  0000000180071278     libcpmt:xthrow.obj
 0002:000132a0       ??_R3logic_error@std@@8    00000001800712a0     libcpmt:xthrow.obj
 0002:000132b8       ??_R2logic_error@std@@8    00000001800712b8     libcpmt:xthrow.obj
 0002:000132d0       ??_R1A@?0A@EA@logic_error@std@@8 00000001800712d0     libcpmt:xthrow.obj
 0002:000132f8       ??_R4length_error@std@@6B@ 00000001800712f8     libcpmt:xthrow.obj
 0002:00013320       ??_R3length_error@std@@8   0000000180071320     libcpmt:xthrow.obj
 0002:00013338       ??_R2length_error@std@@8   0000000180071338     libcpmt:xthrow.obj
 0002:00013358       ??_R1A@?0A@EA@length_error@std@@8 0000000180071358     libcpmt:xthrow.obj
 0002:00013380       ??_R4runtime_error@std@@6B@ 0000000180071380     libcpmt:xthrow.obj
 0002:000133a8       ??_R3runtime_error@std@@8  00000001800713a8     libcpmt:xthrow.obj
 0002:000133c0       ??_R2runtime_error@std@@8  00000001800713c0     libcpmt:xthrow.obj
 0002:000133d8       ??_R1A@?0A@EA@runtime_error@std@@8 00000001800713d8     libcpmt:xthrow.obj
 0002:00013400       ??_R4_Facet_base@std@@6B@  0000000180071400     libcpmt:locale0.obj
 0002:00013428       ??_R3_Facet_base@std@@8    0000000180071428     libcpmt:locale0.obj
 0002:00013440       ??_R2_Facet_base@std@@8    0000000180071440     libcpmt:locale0.obj
 0002:00013450       ??_R1A@?0A@EA@_Facet_base@std@@8 0000000180071450     libcpmt:locale0.obj
 0002:00013478       ??_R4_Locimp@locale@std@@6B@ 0000000180071478     libcpmt:locale0.obj
 0002:000134a0       ??_R3_Locimp@locale@std@@8 00000001800714a0     libcpmt:locale0.obj
 0002:000134b8       ??_R2_Locimp@locale@std@@8 00000001800714b8     libcpmt:locale0.obj
 0002:000134e0       ??_R1A@?0A@EA@_Locimp@locale@std@@8 00000001800714e0     libcpmt:locale0.obj
 0002:00013508       ??_R1A@?0A@EA@facet@locale@std@@8 0000000180071508     libcpmt:locale0.obj
 0002:00013530       ??_R3facet@locale@std@@8   0000000180071530     libcpmt:locale0.obj
 0002:00013548       ??_R2facet@locale@std@@8   0000000180071548     libcpmt:locale0.obj
 0002:00013568       ??_R17?0A@EA@_Crt_new_delete@std@@8 0000000180071568     libcpmt:locale0.obj
 0002:00013590       ??_R3_Crt_new_delete@std@@8 0000000180071590     libcpmt:locale0.obj
 0002:000135a8       ??_R2_Crt_new_delete@std@@8 00000001800715a8     libcpmt:locale0.obj
 0002:000135b8       ??_R1A@?0A@EA@_Crt_new_delete@std@@8 00000001800715b8     libcpmt:locale0.obj
 0002:000135e0       ??_R3ctype_base@std@@8     00000001800715e0     libcpmt:locale.obj
 0002:000135f8       ??_R2ctype_base@std@@8     00000001800715f8     libcpmt:locale.obj
 0002:00013620       ??_R1A@?0A@EA@ctype_base@std@@8 0000000180071620     libcpmt:locale.obj
 0002:00013648       ??_R4?$ctype@D@std@@6B@    0000000180071648     libcpmt:locale.obj
 0002:00013670       ??_R3?$ctype@D@std@@8      0000000180071670     libcpmt:locale.obj
 0002:00013688       ??_R2?$ctype@D@std@@8      0000000180071688     libcpmt:locale.obj
 0002:000136b8       ??_R1A@?0A@EA@?$ctype@D@std@@8 00000001800716b8     libcpmt:locale.obj
 0002:000136e0       ??_R4bad_exception@std@@6B@ 00000001800716e0     libvcruntime:frame.obj
 0002:00013708       ??_R3bad_exception@std@@8  0000000180071708     libvcruntime:frame.obj
 0002:00013720       ??_R2bad_exception@std@@8  0000000180071720     libvcruntime:frame.obj
 0002:00013738       ??_R1A@?0A@EA@bad_exception@std@@8 0000000180071738     libvcruntime:frame.obj
 0002:0001375c       __volatile_metadata        000000018007175c     <linker-defined>
 0002:00013bd8       __rtc_iaa                  0000000180071bd8     LIBCMT:initsect.obj
 0002:00013be0       __rtc_izz                  0000000180071be0     LIBCMT:initsect.obj
 0002:00013be8       __rtc_taa                  0000000180071be8     LIBCMT:initsect.obj
 0002:00013bf0       __rtc_tzz                  0000000180071bf0     LIBCMT:initsect.obj
 0002:00019d00       _TI2?AVbad_alloc@std@@     0000000180077d00     LIBCMT:throw_bad_alloc.obj
 0002:00019d20       _CTA2?AVbad_alloc@std@@    0000000180077d20     LIBCMT:throw_bad_alloc.obj
 0002:00019d38       _CT??_R0?AVbad_alloc@std@@@8??0bad_alloc@std@@QEAA@AEBV01@@Z24 0000000180077d38     LIBCMT:throw_bad_alloc.obj
 0002:00019d60       _CT??_R0?AVexception@std@@@8??0exception@std@@QEAA@AEBV01@@Z24 0000000180077d60     LIBCMT:throw_bad_alloc.obj
 0002:00019d88       _TI3?AVbad_array_new_length@std@@ 0000000180077d88     LIBCMT:throw_bad_alloc.obj
 0002:00019da8       _CTA3?AVbad_array_new_length@std@@ 0000000180077da8     LIBCMT:throw_bad_alloc.obj
 0002:00019dc8       _CT??_R0?AVbad_array_new_length@std@@@8??0bad_array_new_length@std@@QEAA@AEBV01@@Z24 0000000180077dc8     LIBCMT:throw_bad_alloc.obj
 0002:00019df0       _CT??_R0?AVruntime_error@std@@@8??0runtime_error@std@@QEAA@AEBV01@@Z24 0000000180077df0     libcpmt:xthrow.obj
 0002:00019e18       _CT??_R0?AVlogic_error@std@@@8??0logic_error@std@@QEAA@AEBV01@@Z24 0000000180077e18     libcpmt:xthrow.obj
 0002:00019e40       _TI3?AVlength_error@std@@  0000000180077e40     libcpmt:xthrow.obj
 0002:00019e60       _CTA3?AVlength_error@std@@ 0000000180077e60     libcpmt:xthrow.obj
 0002:00019e80       _CT??_R0?AVlength_error@std@@@8??0length_error@std@@QEAA@AEBV01@@Z24 0000000180077e80     libcpmt:xthrow.obj
 0002:00019ea8       _TI2?AVruntime_error@std@@ 0000000180077ea8     libcpmt:xthrow.obj
 0002:00019ec8       _CTA2?AVruntime_error@std@@ 0000000180077ec8     libcpmt:xthrow.obj
 0002:00019ee0       _TI2?AVbad_function_call@std@@ 0000000180077ee0     libcpmt:xthrow.obj
 0002:00019f00       _CTA2?AVbad_function_call@std@@ 0000000180077f00     libcpmt:xthrow.obj
 0002:00019f18       _CT??_R0?AVbad_function_call@std@@@8??0bad_function_call@std@@QEAA@AEBV01@@Z24 0000000180077f18     libcpmt:xthrow.obj
 0002:00019f40       _TI2?AVbad_exception@std@@ 0000000180077f40     libvcruntime:frame.obj
 0002:00019f60       _CTA2?AVbad_exception@std@@ 0000000180077f60     libvcruntime:frame.obj
 0002:00019f78       _CT??_R0?AVbad_exception@std@@@8??0bad_exception@std@@QEAA@AEBV01@@Z24 0000000180077f78     libvcruntime:frame.obj
 0002:00019fa0       _CT??_R0?AW4_cairo_status@@@84 0000000180077fa0     Canvas.obj
 0002:00019fc8       _CTA2PEAD                  0000000180077fc8     Canvas.obj
 0002:00019fe0       _CT??_R0PEAD@88            0000000180077fe0     Canvas.obj
 0002:0001a008       _TI2PEAD                   0000000180078008     Canvas.obj
 0002:0001a028       _CT??_R0PEAX@88            0000000180078028     Canvas.obj
 0002:0001a050       _CTA1?AW4_cairo_status@@   0000000180078050     Canvas.obj
 0002:0001a060       _TI1?AW4_cairo_status@@    0000000180078060     Canvas.obj
 0002:0001a07c       __DELAY_IMPORT_DESCRIPTOR_node_exe 000000018007807c     node:node.exe
 0002:0001a09c       __NULL_DELAY_IMPORT_DESCRIPTOR 000000018007809c     node:node.exe
 0002:0001a400       \177node_NULL_THUNK_DATA_DLN 0000000180078400     node:node.exe
 0002:0001c078       \177node_NULL_THUNK_DATA_DLB 000000018007a078     node:node.exe
 0002:0001c610       __IMPORT_DESCRIPTOR_KERNEL32 000000018007a610     kernel32:KERNEL32.dll
 0002:0001c624       __IMPORT_DESCRIPTOR_GDI32  000000018007a624     gdi32:GDI32.dll
 0002:0001c638       _head_D__a__temp_msys64_mingw64_lib_libcairo_2_lib 000000018007a638     libcairo-2:D__a__temp_msys64_mingw64_lib_libcairo_2_lib_h.o
 0002:0001c64c       _head_D__a__temp_msys64_mingw64_lib_libpng16_16_lib 000000018007a64c     libpng16-16:D__a__temp_msys64_mingw64_lib_libpng16_16_lib_h.o
 0002:0001c660       _head_D__a__temp_msys64_mingw64_lib_libjpeg_8_lib 000000018007a660     libjpeg-8:D__a__temp_msys64_mingw64_lib_libjpeg_8_lib_h.o
 0002:0001c674       _head_D__a__temp_msys64_mingw64_lib_libpango_1_0_0_lib 000000018007a674     libpango-1.0-0:D__a__temp_msys64_mingw64_lib_libpango_1_0_0_lib_h.o
 0002:0001c688       _head_D__a__temp_msys64_mingw64_lib_libpangocairo_1_0_0_lib 000000018007a688     libpangocairo-1.0-0:D__a__temp_msys64_mingw64_lib_libpangocairo_1_0_0_lib_h.o
 0002:0001c69c       _head_D__a__temp_msys64_mingw64_lib_libgobject_2_0_0_lib 000000018007a69c     libgobject-2.0-0:D__a__temp_msys64_mingw64_lib_libgobject_2_0_0_lib_h.o
 0002:0001c6b0       _head_D__a__temp_msys64_mingw64_lib_libglib_2_0_0_lib 000000018007a6b0     libglib-2.0-0:D__a__temp_msys64_mingw64_lib_libglib_2_0_0_lib_h.o
 0002:0001c6c4       _head_D__a__temp_msys64_mingw64_lib_libgif_7_lib 000000018007a6c4     libgif-7:D__a__temp_msys64_mingw64_lib_libgif_7_lib_h.o
 0002:0001c6d8       _head_D__a__temp_msys64_mingw64_lib_libfreetype_6_lib 000000018007a6d8     libfreetype-6:D__a__temp_msys64_mingw64_lib_libfreetype_6_lib_h.o
 0002:0001c6ec       _head_D__a__temp_msys64_mingw64_lib_librsvg_2_2_lib 000000018007a6ec     librsvg-2-2:D__a__temp_msys64_mingw64_lib_librsvg_2_2_lib_h.o
 0002:0001c700       __NULL_IMPORT_DESCRIPTOR   000000018007a700     kernel32:KERNEL32.dll
 0002:0001ec94       __D__a__temp_msys64_mingw64_lib_libcairo_2_lib_iname 000000018007cc94     libcairo-2:D__a__temp_msys64_mingw64_lib_libcairo_2_lib_t.o
 0002:0001ed04       __D__a__temp_msys64_mingw64_lib_libpng16_16_lib_iname 000000018007cd04     libpng16-16:D__a__temp_msys64_mingw64_lib_libpng16_16_lib_t.o
 0002:0001ed5c       __D__a__temp_msys64_mingw64_lib_libjpeg_8_lib_iname 000000018007cd5c     libjpeg-8:D__a__temp_msys64_mingw64_lib_libjpeg_8_lib_t.o
 0002:0001edd4       __D__a__temp_msys64_mingw64_lib_libpango_1_0_0_lib_iname 000000018007cdd4     libpango-1.0-0:D__a__temp_msys64_mingw64_lib_libpango_1_0_0_lib_t.o
 0002:0001edfc       __D__a__temp_msys64_mingw64_lib_libpangocairo_1_0_0_lib_iname 000000018007cdfc     libpangocairo-1.0-0:D__a__temp_msys64_mingw64_lib_libpangocairo_1_0_0_lib_t.o
 0002:0001ee18       __D__a__temp_msys64_mingw64_lib_libgobject_2_0_0_lib_iname 000000018007ce18     libgobject-2.0-0:D__a__temp_msys64_mingw64_lib_libgobject_2_0_0_lib_t.o
 0002:0001ee38       __D__a__temp_msys64_mingw64_lib_libglib_2_0_0_lib_iname 000000018007ce38     libglib-2.0-0:D__a__temp_msys64_mingw64_lib_libglib_2_0_0_lib_t.o
 0002:0001ee58       __D__a__temp_msys64_mingw64_lib_libgif_7_lib_iname 000000018007ce58     libgif-7:D__a__temp_msys64_mingw64_lib_libgif_7_lib_t.o
 0002:0001ee84       __D__a__temp_msys64_mingw64_lib_libfreetype_6_lib_iname 000000018007ce84     libfreetype-6:D__a__temp_msys64_mingw64_lib_libfreetype_6_lib_t.o
 0002:0001eea4       __D__a__temp_msys64_mingw64_lib_librsvg_2_2_lib_iname 000000018007cea4     librsvg-2-2:D__a__temp_msys64_mingw64_lib_librsvg_2_2_lib_t.o
 0003:00000000       __scrt_native_dllmain_reason 000000018007d000     LIBCMT:utility.obj
 0003:00000008       __security_cookie_complement 000000018007d008     LIBCMT:gs_cookie.obj
 0003:00000010       __security_cookie          000000018007d010     LIBCMT:gs_cookie.obj
 0003:00000018       __isa_available            000000018007d018     LIBCMT:cpu_disp.obj
 0003:0000001c       __isa_enabled              000000018007d01c     LIBCMT:cpu_disp.obj
 0003:00000020       __memcpy_nt_iters          000000018007d020     LIBCMT:cpu_disp.obj
 0003:00000028       __memset_nt_iters          000000018007d028     LIBCMT:cpu_disp.obj
 0003:00000034       ?_Sync@ios_base@std@@0_NA  000000018007d034     libcpmt:ios.obj
 0003:00000050       __abort_behavior           000000018007d050     libucrt:abort.obj
 0003:00000060       _iob                       000000018007d060     libucrt:_file.obj
 0003:00000170       _pctype                    000000018007d170     libucrt:ctype.obj
 0003:00000178       _pwctype                   000000018007d178     libucrt:ctype.obj
 0003:00000180       __acrt_lconv_c             000000018007d180     libucrt:localeconv.obj
 0003:00000218       __acrt_lconv               000000018007d218     libucrt:localeconv.obj
 0003:00000220       __acrt_lconv_static_decimal 000000018007d220     libucrt:localeconv.obj
 0003:00000224       __acrt_lconv_static_W_decimal 000000018007d224     libucrt:localeconv.obj
 0003:00000240       __acrt_initial_locale_data 000000018007d240     libucrt:nlsdata.obj
 0003:00000398       __acrt_initial_locale_pointers 000000018007d398     libucrt:nlsdata.obj
 0003:000003a8       __acrt_wide_c_locale_string 000000018007d3a8     libucrt:nlsdata.obj
 0003:000003ac       __mb_cur_max               000000018007d3ac     libucrt:nlsdata.obj
 0003:000003b0       __badioinfo                000000018007d3b0     libucrt:ioinit.obj
 0003:00000400       _lookuptrailbytes          000000018007d400     libucrt:read.obj
 0003:00000500       __acrt_initial_multibyte_data 000000018007d500     libucrt:mbctype.obj
 0003:00000a40       __globallocalestatus       000000018007da40     libucrt:glstatus.obj
 0003:00000c20       _fltused                   000000018007dc20     LIBCMT:fltused.obj
 0003:00000c30       ?_Static@?1???$_Immortalize_memcpy_image@V_Iostream_error_category2@std@@@std@@YAAEBV_Iostream_error_category2@1@XZ@4U?$_Constexpr_immortalize_impl@V_Iostream_error_category2@std@@@1@A 000000018007dc30     Canvas.obj
 0003:00000c80       ??_R0?AVbad_alloc@std@@@8  000000018007dc80     LIBCMT:throw_bad_alloc.obj
 0003:00000ca8       ??_R0?AVexception@std@@@8  000000018007dca8     LIBCMT:throw_bad_alloc.obj
 0003:00000cd0       ??_R0?AVbad_array_new_length@std@@@8 000000018007dcd0     LIBCMT:throw_bad_alloc.obj
 0003:00000d00       ??_R0?AVruntime_error@std@@@8 000000018007dd00     libcpmt:xthrow.obj
 0003:00000d28       ??_R0?AVlogic_error@std@@@8 000000018007dd28     libcpmt:xthrow.obj
 0003:00000d50       ??_R0?AVlength_error@std@@@8 000000018007dd50     libcpmt:xthrow.obj
 0003:00000d78       ??_R0?AVbad_function_call@std@@@8 000000018007dd78     libcpmt:xthrow.obj
 0003:00000da8       ??_R0?AVbad_exception@std@@@8 000000018007dda8     libvcruntime:frame.obj
 0003:00000dd0       ??_R0?AVbad_alloc@stdext@@@8 000000018007ddd0     PdfBackend.obj
 0003:00000df8       ??_R0?AW4_cairo_status@@@8 000000018007ddf8     Canvas.obj
 0003:00000e20       ??_R0PEAD@8                000000018007de20     Canvas.obj
 0003:00000e38       ??_R0PEAX@8                000000018007de38     Canvas.obj
 0003:00000f10       ??_R0?AVtype_info@@@8      000000018007df10     LIBCMT:std_type_info_static.obj
 0003:00000f30       ??_R0?AV_Facet_base@std@@@8 000000018007df30     libcpmt:locale0.obj
 0003:00000f58       ??_R0?AV_Locimp@locale@std@@@8 000000018007df58     libcpmt:locale0.obj
 0003:00000f88       ??_R0?AVfacet@locale@std@@@8 000000018007df88     libcpmt:locale0.obj
 0003:00000fb0       ??_R0?AU_Crt_new_delete@std@@@8 000000018007dfb0     libcpmt:locale0.obj
 0003:00000fe0       ??_R0?AUctype_base@std@@@8 000000018007dfe0     libcpmt:locale.obj
 0003:00001008       ??_R0?AV?$ctype@D@std@@@8  000000018007e008     libcpmt:locale.obj
 0003:00001030       __imp_?GetCurrentContext@Isolate@v8@@QEAA?AV?$Local@VContext@v8@@@2@XZ 000000018007e030     node:node.exe
 0003:00001038       __imp_?GetCurrent@Isolate@v8@@SAPEAV12@XZ 000000018007e038     node:node.exe
 0003:00001040       __imp_??1HandleScope@v8@@QEAA@XZ 000000018007e040     node:node.exe
 0003:00001048       __imp_??0HandleScope@v8@@QEAA@PEAVIsolate@1@@Z 000000018007e048     node:node.exe
 0003:00001050       __imp_?ClearWeak@V8@v8@@CAPEAXPEAPEAVObject@internal@2@@Z 000000018007e050     node:node.exe
 0003:00001058       __imp_?MakeWeak@V8@v8@@CAXPEAPEAVObject@internal@2@PEAXP6AXAEBV?$WeakCallbackInfo@X@2@@ZW4WeakCallbackType@2@@Z 000000018007e058     node:node.exe
 0003:00001060       __imp_?DisposeGlobal@V8@v8@@CAXPEAPEAVObject@internal@2@@Z 000000018007e060     node:node.exe
 0003:00001068       __imp_?GlobalizeReference@V8@v8@@CAPEAPEAVObject@internal@2@PEAVIsolate@42@PEAPEAV342@@Z 000000018007e068     node:node.exe
 0003:00001070       __imp_?Uint32Value@Value@v8@@QEBA?AV?$Maybe@I@2@V?$Local@VContext@v8@@@2@@Z 000000018007e070     node:node.exe
 0003:00001078       __imp_?IsNumber@Value@v8@@QEBA_NXZ 000000018007e078     node:node.exe
 0003:00001080       __imp_?SetAlignedPointerInInternalField@Object@v8@@QEAAXHPEAX@Z 000000018007e080     node:node.exe
 0003:00001088       __imp_?InternalFieldCount@Object@v8@@QEAAHXZ 000000018007e088     node:node.exe
 0003:00001090       __imp_?Value@External@v8@@QEBAPEAXXZ 000000018007e090     node:node.exe
 0003:00001098       __imp_?New@External@v8@@SA?AV?$Local@VExternal@v8@@@2@PEAVIsolate@2@PEAX@Z 000000018007e098     node:node.exe
 0003:000010a0       __imp_?CheckMemoryPressure@Isolate@v8@@AEAAXXZ 000000018007e0a0     node:node.exe
 0003:000010a8       __imp_?ReportExternalAllocationLimitReached@Isolate@v8@@AEAAXXZ 000000018007e0a8     node:node.exe
 0003:000010b0       __imp_?CreateHandle@HandleScope@v8@@KAPEAPEAVObject@internal@2@PEAVIsolate@42@PEAV342@@Z 000000018007e0b0     node:node.exe
 0003:000010b8       __imp_?CreateHandle@HandleScope@v8@@CAPEAPEAVObject@internal@2@PEAVNeverReadOnlySpaceObject@42@PEAV342@@Z 000000018007e0b8     node:node.exe
 0003:000010c0       __imp_?SetClassName@FunctionTemplate@v8@@QEAAXV?$Local@VString@v8@@@2@@Z 000000018007e0c0     node:node.exe
 0003:000010c8       __imp_?InstanceTemplate@FunctionTemplate@v8@@QEAA?AV?$Local@VObjectTemplate@v8@@@2@XZ 000000018007e0c8     node:node.exe
 0003:000010d0       __imp_?GetFunction@FunctionTemplate@v8@@QEAA?AV?$MaybeLocal@VFunction@v8@@@2@V?$Local@VContext@v8@@@2@@Z 000000018007e0d0     node:node.exe
 0003:000010d8       __imp_?New@FunctionTemplate@v8@@SA?AV?$Local@VFunctionTemplate@v8@@@2@PEAVIsolate@2@P6AXAEBV?$FunctionCallbackInfo@VValue@v8@@@2@@ZV?$Local@VValue@v8@@@2@V?$Local@VSignature@v8@@@2@HW4ConstructorBehavior@2@W4SideEffectType@2@@Z 000000018007e0d8     node:node.exe
 0003:000010e0       __imp_?ToLocalEmpty@V8@v8@@CAXXZ 000000018007e0e0     node:node.exe
 0003:000010e8       __imp_?Escape@EscapableHandleScope@v8@@AEAAPEAPEAVObject@internal@2@PEAPEAV342@@Z 000000018007e0e8     node:node.exe
 0003:000010f0       __imp_??0EscapableHandleScope@v8@@QEAA@PEAVIsolate@1@@Z 000000018007e0f0     node:node.exe
 0003:000010f8       __imp_?NewFromUtf8@String@v8@@SA?AV?$MaybeLocal@VString@v8@@@2@PEAVIsolate@2@PEBDW4NewStringType@2@H@Z 000000018007e0f8     node:node.exe
 0003:00001100       __imp_?SlowGetInternalField@Object@v8@@AEAA?AV?$Local@VValue@v8@@@2@H@Z 000000018007e100     node:node.exe
 0003:00001108       __imp_?SetInternalField@Object@v8@@QEAAXHV?$Local@VValue@v8@@@2@@Z 000000018007e108     node:node.exe
 0003:00001110       __imp_?Set@Object@v8@@QEAA?AV?$Maybe@_N@2@V?$Local@VContext@v8@@@2@V?$Local@VValue@v8@@@2@1@Z 000000018007e110     node:node.exe
 0003:00001118       __imp_?SetInternalFieldCount@ObjectTemplate@v8@@QEAAXH@Z 000000018007e118     node:node.exe
 0003:00001120       __imp_?NewInstance@ObjectTemplate@v8@@QEAA?AV?$MaybeLocal@VObject@v8@@@2@V?$Local@VContext@v8@@@2@@Z 000000018007e120     node:node.exe
 0003:00001128       __imp_?New@ObjectTemplate@v8@@SA?AV?$Local@VObjectTemplate@v8@@@2@PEAVIsolate@2@V?$Local@VFunctionTemplate@v8@@@2@@Z 000000018007e128     node:node.exe
 0003:00001130       __imp_??1EscapableHandleScope@v8@@QEAA@XZ 000000018007e130     node:node.exe
 0003:00001138       __imp_?New@Object@v8@@SA?AV?$Local@VObject@v8@@@2@PEAVIsolate@2@@Z 000000018007e138     node:node.exe
 0003:00001140       __imp_uv_queue_work        000000018007e140     node:node.exe
 0003:00001148       __imp_?GetIsolate@Context@v8@@QEAAPEAVIsolate@2@XZ 000000018007e148     node:node.exe
 0003:00001150       __imp_?Global@Context@v8@@QEAA?AV?$Local@VObject@v8@@@2@XZ 000000018007e150     node:node.exe
 0003:00001158       __imp_?NewFromUnsigned@Integer@v8@@SA?AV?$Local@VInteger@v8@@@2@PEAVIsolate@2@I@Z 000000018007e158     node:node.exe
 0003:00001160       __imp_?New@Signature@v8@@SA?AV?$Local@VSignature@v8@@@2@PEAVIsolate@2@V?$Local@VFunctionTemplate@v8@@@2@@Z 000000018007e160     node:node.exe
 0003:00001168       __imp_?ThrowException@Isolate@v8@@QEAA?AV?$Local@VValue@v8@@@2@V32@@Z 000000018007e168     node:node.exe
 0003:00001170       __imp_?Length@TypedArray@v8@@QEAA_KXZ 000000018007e170     node:node.exe
 0003:00001178       __imp_?Set@Template@v8@@QEAAXV?$Local@VName@v8@@@2@V?$Local@VData@v8@@@2@W4PropertyAttribute@2@@Z 000000018007e178     node:node.exe
 0003:00001180       __imp_?ByteLength@ArrayBufferView@v8@@QEAA_KXZ 000000018007e180     node:node.exe
 0003:00001188       __imp_?ByteOffset@ArrayBufferView@v8@@QEAA_KXZ 000000018007e188     node:node.exe
 0003:00001190       __imp_?Buffer@ArrayBufferView@v8@@QEAA?AV?$Local@VArrayBuffer@v8@@@2@XZ 000000018007e190     node:node.exe
 0003:00001198       __imp_?Error@Exception@v8@@SA?AV?$Local@VValue@v8@@@2@V?$Local@VString@v8@@@2@@Z 000000018007e198     node:node.exe
 0003:000011a0       __imp_?TypeError@Exception@v8@@SA?AV?$Local@VValue@v8@@@2@V?$Local@VString@v8@@@2@@Z 000000018007e1a0     node:node.exe
 0003:000011a8       __imp_?ValueOf@Date@v8@@QEBANXZ 000000018007e1a8     node:node.exe
 0003:000011b0       __imp_?HasInstance@FunctionTemplate@v8@@QEAA_NV?$Local@VValue@v8@@@2@@Z 000000018007e1b0     node:node.exe
 0003:000011b8       __imp_?PrototypeTemplate@FunctionTemplate@v8@@QEAA?AV?$Local@VObjectTemplate@v8@@@2@XZ 000000018007e1b8     node:node.exe
 0003:000011c0       __imp_?GetContents@ArrayBuffer@v8@@QEAA?AVContents@12@XZ 000000018007e1c0     node:node.exe
 0003:000011c8       __imp_?StrictEquals@Value@v8@@QEBA_NV?$Local@VValue@v8@@@2@@Z 000000018007e1c8     node:node.exe
 0003:000011d0       __imp_?NumberValue@Value@v8@@QEBA?AV?$Maybe@N@2@V?$Local@VContext@v8@@@2@@Z 000000018007e1d0     node:node.exe
 0003:000011d8       __imp_?BooleanValue@Value@v8@@QEBA?AV?$Maybe@_N@2@V?$Local@VContext@v8@@@2@@Z 000000018007e1d8     node:node.exe
 0003:000011e0       __imp_?ToUint32@Value@v8@@QEBA?AV?$MaybeLocal@VUint32@v8@@@2@V?$Local@VContext@v8@@@2@@Z 000000018007e1e0     node:node.exe
 0003:000011e8       __imp_?ToObject@Value@v8@@QEBA?AV?$MaybeLocal@VObject@v8@@@2@V?$Local@VContext@v8@@@2@@Z 000000018007e1e8     node:node.exe
 0003:000011f0       __imp_?ToString@Value@v8@@QEBA?AV?$MaybeLocal@VString@v8@@@2@V?$Local@VContext@v8@@@2@@Z 000000018007e1f0     node:node.exe
 0003:000011f8       __imp_?IsUint8ClampedArray@Value@v8@@QEBA_NXZ 000000018007e1f8     node:node.exe
 0003:00001200       __imp_?IsArrayBufferView@Value@v8@@QEBA_NXZ 000000018007e200     node:node.exe
 0003:00001208       __imp_?IsDate@Value@v8@@QEBA_NXZ 000000018007e208     node:node.exe
 0003:00001210       __imp_?IsUint32@Value@v8@@QEBA_NXZ 000000018007e210     node:node.exe
 0003:00001218       __imp_?IsBoolean@Value@v8@@QEBA_NXZ 000000018007e218     node:node.exe
 0003:00001220       __imp_?IsObject@Value@v8@@QEBA_NXZ 000000018007e220     node:node.exe
 0003:00001228       __imp_?IsFunction@Value@v8@@QEBA_NXZ 000000018007e228     node:node.exe
 0003:00001230       __imp_?ReThrow@TryCatch@v8@@QEAA?AV?$Local@VValue@v8@@@2@XZ 000000018007e230     node:node.exe
 0003:00001238       __imp_?HasCaught@TryCatch@v8@@QEBA_NXZ 000000018007e238     node:node.exe
 0003:00001240       __imp_??1TryCatch@v8@@QEAA@XZ 000000018007e240     node:node.exe
 0003:00001248       __imp_??0TryCatch@v8@@QEAA@PEAVIsolate@1@@Z 000000018007e248     node:node.exe
 0003:00001250       __imp_?WriteUtf8@String@v8@@QEBAHPEAVIsolate@2@PEADHPEAHH@Z 000000018007e250     node:node.exe
 0003:00001258       __imp_?Length@String@v8@@QEBAHXZ 000000018007e258     node:node.exe
 0003:00001260       __imp_?New@Number@v8@@SA?AV?$Local@VNumber@v8@@@2@PEAVIsolate@2@N@Z 000000018007e260     node:node.exe
 0003:00001268       __imp_?SlowGetAlignedPointerFromInternalField@Object@v8@@AEAAPEAXH@Z 000000018007e268     node:node.exe
 0003:00001270       __imp_?Get@Object@v8@@QEAA?AV?$MaybeLocal@VValue@v8@@@2@V?$Local@VContext@v8@@@2@V?$Local@VValue@v8@@@2@@Z 000000018007e270     node:node.exe
 0003:00001278       __imp_?Call@Function@v8@@QEAA?AV?$MaybeLocal@VValue@v8@@@2@V?$Local@VContext@v8@@@2@V?$Local@VValue@v8@@@2@HQEAV52@@Z 000000018007e278     node:node.exe
 0003:00001280       __imp_?SetAccessor@ObjectTemplate@v8@@QEAAXV?$Local@VName@v8@@@2@P6AX0AEBV?$PropertyCallbackInfo@VValue@v8@@@2@@ZP6AX0V?$Local@VValue@v8@@@2@AEBV?$PropertyCallbackInfo@X@2@@Z3W4AccessControl@2@W4PropertyAttribute@2@V?$Local@VAccessorSignature@v8@@@2@W4SideEffectType@2@@Z 000000018007e280     node:node.exe
 0003:00001288       __imp_?EmitAsyncDestroy@node@@YAXPEAVIsolate@v8@@Uasync_context@1@@Z 000000018007e288     node:node.exe
 0003:00001290       __imp_?New@Buffer@node@@YA?AV?$MaybeLocal@VObject@v8@@@v8@@PEAVIsolate@4@PEAD_KP6AX1PEAX@Z3@Z 000000018007e290     node:node.exe
 0003:00001298       __imp_?New@Buffer@node@@YA?AV?$MaybeLocal@VObject@v8@@@v8@@PEAVIsolate@4@PEAD_K@Z 000000018007e298     node:node.exe
 0003:000012a0       __imp_?Copy@Buffer@node@@YA?AV?$MaybeLocal@VObject@v8@@@v8@@PEAVIsolate@4@PEBD_K@Z 000000018007e2a0     node:node.exe
 0003:000012a8       __imp_?MakeCallback@node@@YA?AV?$MaybeLocal@VValue@v8@@@v8@@PEAVIsolate@3@V?$Local@VObject@v8@@@3@V?$Local@VFunction@v8@@@3@HPEAV?$Local@VValue@v8@@@3@Uasync_context@1@@Z 000000018007e2a8     node:node.exe
 0003:000012b0       __imp_?EmitAsyncInit@node@@YA?AUasync_context@1@PEAVIsolate@v8@@V?$Local@VObject@v8@@@4@V?$Local@VString@v8@@@4@N@Z 000000018007e2b0     node:node.exe
 0003:000012b8       __imp_uv_default_loop      000000018007e2b8     node:node.exe
 0003:000012c0       __imp_?FromJustIsNothing@V8@v8@@CAXXZ 000000018007e2c0     node:node.exe
 0003:000012c8       __imp_?InstanceOf@Value@v8@@QEAA?AV?$Maybe@_N@2@V?$Local@VContext@v8@@@2@V?$Local@VObject@v8@@@2@@Z 000000018007e2c8     node:node.exe
 0003:000012d0       __imp_?New@Function@v8@@SA?AV?$MaybeLocal@VFunction@v8@@@2@V?$Local@VContext@v8@@@2@P6AXAEBV?$FunctionCallbackInfo@VValue@v8@@@2@@ZV?$Local@VValue@v8@@@2@HW4ConstructorBehavior@2@W4SideEffectType@2@@Z 000000018007e2d0     node:node.exe
 0003:000012d8       __imp_?New@Uint8ClampedArray@v8@@SA?AV?$Local@VUint8ClampedArray@v8@@@2@V?$Local@VArrayBuffer@v8@@@2@_K1@Z 000000018007e2d8     node:node.exe
 0003:000012e0       __imp_?New@Integer@v8@@SA?AV?$Local@VInteger@v8@@@2@PEAVIsolate@2@H@Z 000000018007e2e0     node:node.exe
 0003:000012e8       __imp_?RangeError@Exception@v8@@SA?AV?$Local@VValue@v8@@@2@V?$Local@VString@v8@@@2@@Z 000000018007e2e8     node:node.exe
 0003:000012f0       __imp_?New@Array@v8@@SA?AV?$Local@VArray@v8@@@2@PEAVIsolate@2@H@Z 000000018007e2f0     node:node.exe
 0003:000012f8       __imp_?Length@Array@v8@@QEBAIXZ 000000018007e2f8     node:node.exe
 0003:00001300       __imp_?New@ArrayBuffer@v8@@SA?AV?$Local@VArrayBuffer@v8@@@2@PEAVIsolate@2@_K@Z 000000018007e300     node:node.exe
 0003:00001308       __imp_?Int32Value@Value@v8@@QEBA?AV?$Maybe@H@2@V?$Local@VContext@v8@@@2@@Z 000000018007e308     node:node.exe
 0003:00001310       __imp_?ToInt32@Value@v8@@QEBA?AV?$MaybeLocal@VInt32@v8@@@2@V?$Local@VContext@v8@@@2@@Z 000000018007e310     node:node.exe
 0003:00001318       __imp_?IsArray@Value@v8@@QEBA_NXZ 000000018007e318     node:node.exe
 0003:00001320       __imp_?New@Float64Array@v8@@SA?AV?$Local@VFloat64Array@v8@@@2@V?$Local@VArrayBuffer@v8@@@2@_K1@Z 000000018007e320     node:node.exe
 0003:00001328       __imp_?New@Uint16Array@v8@@SA?AV?$Local@VUint16Array@v8@@@2@V?$Local@VArrayBuffer@v8@@@2@_K1@Z 000000018007e328     node:node.exe
 0003:00001330       __imp_?Get@Object@v8@@QEAA?AV?$MaybeLocal@VValue@v8@@@2@V?$Local@VContext@v8@@@2@I@Z 000000018007e330     node:node.exe
 0003:00001338       __imp_?NewInstance@Function@v8@@QEBA?AV?$MaybeLocal@VObject@v8@@@2@V?$Local@VContext@v8@@@2@HQEAV?$Local@VValue@v8@@@2@@Z 000000018007e338     node:node.exe
 0003:00001340       __imp_?HasInstance@Buffer@node@@YA_NV?$Local@VValue@v8@@@v8@@@Z 000000018007e340     node:node.exe
 0003:00001348       __imp_?Data@Buffer@node@@YAPEADV?$Local@VObject@v8@@@v8@@@Z 000000018007e348     node:node.exe
 0003:00001350       __imp_?Length@Buffer@node@@YA_KV?$Local@VObject@v8@@@v8@@@Z 000000018007e350     node:node.exe
 0003:00001358       __imp_?ErrnoException@node@@YA?AV?$Local@VValue@v8@@@v8@@PEAVIsolate@3@HPEBD11@Z 000000018007e358     node:node.exe
 0003:00001360       __imp_?IsUint16Array@Value@v8@@QEBA_NXZ 000000018007e360     node:node.exe
 0003:00001368       __imp_node_module_register 000000018007e368     node:node.exe
 0003:00001370       \177node_NULL_THUNK_DATA_DLA 000000018007e370     node:node.exe
 0003:00001380       __hmod__node_exe           000000018007e380     node:node.exe
 0003:00001390       __scrt_current_native_startup_state 000000018007e390     LIBCMT:utility.obj
 0003:00001398       __scrt_native_startup_lock 000000018007e398     LIBCMT:utility.obj
 0003:00001950       __favor                    000000018007e950     LIBCMT:cpu_disp.obj
 0003:00001954       __scrt_debugger_hook_flag  000000018007e954     LIBCMT:utility_desktop.obj
 0003:00001958       __castguard_check_failure_os_handled_fptr 000000018007e958     LIBCMT:guard_support.obj
 0003:00001960       ?__type_info_root_node@@3U__type_info_node@@A 000000018007e960     LIBCMT:tncleanup.obj
 0003:00001970       ?_OptionsStorage@?1??__local_stdio_scanf_options@@9@4_KA 000000018007e970     LIBCMT:default_local_stdio_options.obj
 0003:00001978       ?_Raise_handler@std@@3P6AXAEBVexception@stdext@@@ZEA 000000018007e978     libcpmt:raisehan.obj
 0003:00001ad0       ?_Id_cnt@id@locale@std@@0HA 000000018007ead0     libcpmt:locale0.obj
 0003:00001ad8       ?_Clocptr@_Locimp@locale@std@@0PEAV123@EA 000000018007ead8     libcpmt:locale0.obj
 0003:00001ae0       ?id@?$ctype@_W@std@@2V0locale@2@A 000000018007eae0     libcpmt:locale0.obj
 0003:00001ae8       ?id@?$ctype@D@std@@2V0locale@2@A 000000018007eae8     libcpmt:locale0.obj
 0003:00001af0       ?id@?$codecvt@GDU_Mbstatet@@@std@@2V0locale@2@A 000000018007eaf0     libcpmt:locale0.obj
 0003:00001af8       ?id@?$ctype@G@std@@2V0locale@2@A 000000018007eaf8     libcpmt:locale0.obj
 0003:00001b10       ?id@?$codecvt@_WDU_Mbstatet@@@std@@2V0locale@2@A 000000018007eb10     libcpmt:locale0.obj
 0003:00001b40       ?_Index@ios_base@std@@0HA  000000018007eb40     libcpmt:ios.obj
 0003:00001bb0       ?id@?$num_get@DV?$istreambuf_iterator@DU?$char_traits@D@std@@@std@@@std@@2V0locale@2@A 000000018007ebb0     libcpmt:locale.obj
 0003:00001bb8       ?id@?$num_put@DV?$ostreambuf_iterator@DU?$char_traits@D@std@@@std@@@std@@2V0locale@2@A 000000018007ebb8     libcpmt:locale.obj
 0003:00001bc0       ?id@?$numpunct@D@std@@2V0locale@2@A 000000018007ebc0     libcpmt:locale.obj
 0003:00001bc8       ?id@?$codecvt@DDU_Mbstatet@@@std@@2V0locale@2@A 000000018007ebc8     libcpmt:locale.obj
 0003:00001bd0       ?_Ptr_cin@std@@3PEAV?$basic_istream@DU?$char_traits@D@std@@@1@EA 000000018007ebd0     libcpmt:iosptrs.obj
 0003:00001bd8       ?_Ptr_cout@std@@3PEAV?$basic_ostream@DU?$char_traits@D@std@@@1@EA 000000018007ebd8     libcpmt:iosptrs.obj
 0003:00001be0       ?_Ptr_cerr@std@@3PEAV?$basic_ostream@DU?$char_traits@D@std@@@1@EA 000000018007ebe0     libcpmt:iosptrs.obj
 0003:00001be8       ?_Ptr_clog@std@@3PEAV?$basic_ostream@DU?$char_traits@D@std@@@1@EA 000000018007ebe8     libcpmt:iosptrs.obj
 0003:00001bf0       ?_Ptr_wcin@std@@3PEAV?$basic_istream@_WU?$char_traits@_W@std@@@1@EA 000000018007ebf0     libcpmt:iosptrs.obj
 0003:00001bf8       ?_Ptr_wcout@std@@3PEAV?$basic_ostream@_WU?$char_traits@_W@std@@@1@EA 000000018007ebf8     libcpmt:iosptrs.obj
 0003:00001c00       ?_Ptr_wcerr@std@@3PEAV?$basic_ostream@_WU?$char_traits@_W@std@@@1@EA 000000018007ec00     libcpmt:iosptrs.obj
 0003:00001c08       ?_Ptr_wclog@std@@3PEAV?$basic_ostream@_WU?$char_traits@_W@std@@@1@EA 000000018007ec08     libcpmt:iosptrs.obj
 0003:00001c70       ?id@?$time_put@_WV?$ostreambuf_iterator@_WU?$char_traits@_W@std@@@std@@@std@@2V0locale@2@A 000000018007ec70     libcpmt:wlocale.obj
 0003:00001c78       ?id@?$num_get@_WV?$istreambuf_iterator@_WU?$char_traits@_W@std@@@std@@@std@@2V0locale@2@A 000000018007ec78     libcpmt:wlocale.obj
 0003:00001c80       ?id@?$num_put@_WV?$ostreambuf_iterator@_WU?$char_traits@_W@std@@@std@@@std@@2V0locale@2@A 000000018007ec80     libcpmt:wlocale.obj
 0003:00001c88       ?id@?$numpunct@_W@std@@2V0locale@2@A 000000018007ec88     libcpmt:wlocale.obj
 0003:00001c90       ?id@?$collate@_W@std@@2V0locale@2@A 000000018007ec90     libcpmt:wlocale.obj
 0003:00001c98       ?id@?$messages@_W@std@@2V0locale@2@A 000000018007ec98     libcpmt:wlocale.obj
 0003:00001ca0       ?id@?$money_get@_WV?$istreambuf_iterator@_WU?$char_traits@_W@std@@@std@@@std@@2V0locale@2@A 000000018007eca0     libcpmt:wlocale.obj
 0003:00001ca8       ?id@?$money_put@_WV?$ostreambuf_iterator@_WU?$char_traits@_W@std@@@std@@@std@@2V0locale@2@A 000000018007eca8     libcpmt:wlocale.obj
 0003:00001cb0       ?id@?$moneypunct@_W$0A@@std@@2V0locale@2@A 000000018007ecb0     libcpmt:wlocale.obj
 0003:00001cb8       ?id@?$moneypunct@_W$00@std@@2V0locale@2@A 000000018007ecb8     libcpmt:wlocale.obj
 0003:00001cc0       ?id@?$time_get@_WV?$istreambuf_iterator@_WU?$char_traits@_W@std@@@std@@@std@@2V0locale@2@A 000000018007ecc0     libcpmt:wlocale.obj
 0003:00001cc8       ?id@?$num_get@GV?$istreambuf_iterator@GU?$char_traits@G@std@@@std@@@std@@2V0locale@2@A 000000018007ecc8     libcpmt:wlocale.obj
 0003:00001cd0       ?id@?$num_put@GV?$ostreambuf_iterator@GU?$char_traits@G@std@@@std@@@std@@2V0locale@2@A 000000018007ecd0     libcpmt:wlocale.obj
 0003:00001cd8       ?id@?$numpunct@G@std@@2V0locale@2@A 000000018007ecd8     libcpmt:wlocale.obj
 0003:00001ce0       ?id@?$collate@G@std@@2V0locale@2@A 000000018007ece0     libcpmt:wlocale.obj
 0003:00001ce8       ?id@?$messages@G@std@@2V0locale@2@A 000000018007ece8     libcpmt:wlocale.obj
 0003:00001cf0       ?id@?$money_get@GV?$istreambuf_iterator@GU?$char_traits@G@std@@@std@@@std@@2V0locale@2@A 000000018007ecf0     libcpmt:wlocale.obj
 0003:00001cf8       ?id@?$money_put@GV?$ostreambuf_iterator@GU?$char_traits@G@std@@@std@@@std@@2V0locale@2@A 000000018007ecf8     libcpmt:wlocale.obj
 0003:00001d00       ?id@?$moneypunct@G$0A@@std@@2V0locale@2@A 000000018007ed00     libcpmt:wlocale.obj
 0003:00001d08       ?id@?$moneypunct@G$00@std@@2V0locale@2@A 000000018007ed08     libcpmt:wlocale.obj
 0003:00001d10       ?id@?$time_get@GV?$istreambuf_iterator@GU?$char_traits@G@std@@@std@@@std@@2V0locale@2@A 000000018007ed10     libcpmt:wlocale.obj
 0003:00001d18       ?id@?$time_put@GV?$ostreambuf_iterator@GU?$char_traits@G@std@@@std@@@std@@2V0locale@2@A 000000018007ed18     libcpmt:wlocale.obj
 0003:00001d20       ?id@?$collate@D@std@@2V0locale@2@A 000000018007ed20     libcpmt:xlocale.obj
 0003:00001d28       ?id@?$messages@D@std@@2V0locale@2@A 000000018007ed28     libcpmt:xlocale.obj
 0003:00001d30       ?id@?$money_get@DV?$istreambuf_iterator@DU?$char_traits@D@std@@@std@@@std@@2V0locale@2@A 000000018007ed30     libcpmt:xlocale.obj
 0003:00001d38       ?id@?$money_put@DV?$ostreambuf_iterator@DU?$char_traits@D@std@@@std@@@std@@2V0locale@2@A 000000018007ed38     libcpmt:xlocale.obj
 0003:00001d40       ?id@?$moneypunct@D$0A@@std@@2V0locale@2@A 000000018007ed40     libcpmt:xlocale.obj
 0003:00001d48       ?id@?$moneypunct@D$00@std@@2V0locale@2@A 000000018007ed48     libcpmt:xlocale.obj
 0003:00001d50       ?id@?$time_get@DV?$istreambuf_iterator@DU?$char_traits@D@std@@@std@@@std@@2V0locale@2@A 000000018007ed50     libcpmt:xlocale.obj
 0003:00001d58       ?id@?$time_put@DV?$ostreambuf_iterator@DU?$char_traits@D@std@@@std@@@std@@2V0locale@2@A 000000018007ed58     libcpmt:xlocale.obj
 0003:00001d60       ?__WinRTOutOfMemoryExceptionCallback@@3P6APEAXXZEA 000000018007ed60     libvcruntime:ehhelpers.obj
 0003:00001df0       __pPurecall                000000018007edf0     libvcruntime:purevirt_data.obj
 0003:00001e28       ?pArgList@UnDecorator@@0PEAVReplicator@@EA 000000018007ee28     libvcruntime:undname.obj
 0003:00001e30       ?pZNameList@UnDecorator@@0PEAVReplicator@@EA 000000018007ee30     libvcruntime:undname.obj
 0003:00001e38       ?pTemplateArgList@UnDecorator@@0PEAVReplicator@@EA 000000018007ee38     libvcruntime:undname.obj
 0003:00001e40       ?gName@UnDecorator@@0PEBDEB 000000018007ee40     libvcruntime:undname.obj
 0003:00001e48       ?name@UnDecorator@@0PEBDEB 000000018007ee48     libvcruntime:undname.obj
 0003:00001e50       ?disableFlags@UnDecorator@@0KA 000000018007ee50     libvcruntime:undname.obj
 0003:00001e54       ?fExplicitTemplateParams@UnDecorator@@0_NA 000000018007ee54     libvcruntime:undname.obj
 0003:00001e55       ?fGetTemplateArgumentList@UnDecorator@@0_NA 000000018007ee55     libvcruntime:undname.obj
 0003:00001e58       ?m_pGetParameter@UnDecorator@@0P6APEADJ@ZEA 000000018007ee58     libvcruntime:undname.obj
 0003:00001e60       ?m_CHPENameOffset@UnDecorator@@0KA 000000018007ee60     libvcruntime:undname.obj
 0003:00001e64       ?m_recursionLevel@UnDecorator@@0KA 000000018007ee64     libvcruntime:undname.obj
 0003:00001ed8       _nstream                   000000018007eed8     libucrt:_file.obj
 0003:00001ee0       __piob                     000000018007eee0     libucrt:_file.obj
 0003:00001ee8       _cflush                    000000018007eee8     libucrt:_file.obj
 0003:00001f08       ?c_exit_complete@?1???R<lambda_6e4b09c48022b2350581041d5f6b0c4c>@@QEBA@XZ@4_NA 000000018007ef08     libucrt:exit.obj
 0003:00002018       _environ_table             000000018007f018     libucrt:environment_initialization.obj
 0003:00002020       _wenviron_table            000000018007f020     libucrt:environment_initialization.obj
 0003:00002028       __dcrt_initial_wide_environment 000000018007f028     libucrt:environment_initialization.obj
 0003:00002030       __dcrt_initial_narrow_environment 000000018007f030     libucrt:environment_initialization.obj
 0003:00002038       __acrt_atexit_table        000000018007f038     libucrt:onexit.obj
 0003:00002050       __acrt_at_quick_exit_table 000000018007f050     libucrt:onexit.obj
 0003:000022a4       __acrt_lconv_static_null   000000018007f2a4     libucrt:localeconv.obj
 0003:000022a8       __acrt_lconv_static_W_null 000000018007f2a8     libucrt:localeconv.obj
 0003:000022ac       __acrt_locale_changed_data 000000018007f2ac     libucrt:wsetlocale.obj
 0003:000022b0       __acrt_current_locale_data 000000018007f2b0     libucrt:nlsdata.obj
 0003:00002480       __pioinfo                  000000018007f480     libucrt:ioinit.obj
 0003:00002880       _nhandle                   000000018007f880     libucrt:ioinit.obj
 0003:00002898       __acrt_stdout_buffer       000000018007f898     libucrt:_sftbuf.obj
 0003:000028a0       __acrt_stderr_buffer       000000018007f8a0     libucrt:_sftbuf.obj
 0003:000028b0       _mbctype                   000000018007f8b0     libucrt:mbctype.obj
 0003:000028b8       _mbcasemap                 000000018007f8b8     libucrt:mbctype.obj
 0003:000028c0       __acrt_current_multibyte_data 000000018007f8c0     libucrt:mbctype.obj
 0003:000028d0       _pgmptr                    000000018007f8d0     libucrt:argv_data.obj
 0003:000028d8       __argc                     000000018007f8d8     libucrt:argv_data.obj
 0003:000028e0       __argv                     000000018007f8e0     libucrt:argv_data.obj
 0003:000028e8       __wargv                    000000018007f8e8     libucrt:argv_data.obj
 0003:000028f0       _acmdln                    000000018007f8f0     libucrt:argv_data.obj
 0003:000028f8       _wcmdln                    000000018007f8f8     libucrt:argv_data.obj
 0003:00002900       __acrt_heap                000000018007f900     libucrt:heap_handle.obj
 0003:00002910       __fma3_is_available        000000018007f910     libucrt:fma3_available.obj
 0003:00002914       __use_fma3_lib             000000018007f914     libucrt:fma3_available.obj
 0003:00002918       ?_timezone@@3V?$dual_state_global@J@__crt_state_management@@A 000000018007f918     libucrt:timeset.obj
 0003:0000291c       ?_daylight@@3V?$dual_state_global@H@__crt_state_management@@A 000000018007f91c     libucrt:timeset.obj
 0003:00002920       ?_dstbias@@3V?$dual_state_global@J@__crt_state_management@@A 000000018007f920     libucrt:timeset.obj
 0003:00002a00       _commode                   000000018007fa00     libucrt:ncommode.obj
 0003:00002a10       _umaskval                  000000018007fa10     libucrt:umask.obj
 0003:00002a20       _fmode                     000000018007fa20     libucrt:txtmode.obj
 0003:00002a28       ?DloadKernel32@@3PEAUHINSTANCE__@@EA 000000018007fa28     DelayImp:delayhlp.obj
 0003:00002a30       ?DloadAcquireSRWLockExclusive@@3P6AXPEA_K@ZEA 000000018007fa30     DelayImp:delayhlp.obj
 0003:00002a38       ?DloadReleaseSRWLockExclusive@@3P6AXPEA_K@ZEA 000000018007fa38     DelayImp:delayhlp.obj
 0003:00002a40       ?DloadSrwLock@@3_KA        000000018007fa40     DelayImp:delayhlp.obj
 0003:00002a48       ?DloadSectionLockCount@@3KA 000000018007fa48     DelayImp:delayhlp.obj
 0003:00002a4c       ?DloadSectionOldProtection@@3KA 000000018007fa4c     DelayImp:delayhlp.obj
 0003:00002a50       ?DloadSectionCommitPermanent@@3KA 000000018007fa50     DelayImp:delayhlp.obj
 0003:00002a58       ?_Psave@?$_Facetptr@V?$ctype@D@std@@@std@@2PEBVfacet@locale@2@EB 000000018007fa58     Canvas.obj
 0003:00002a60       ?pattern_repeat_key@@3PEBU_cairo_user_data_key@@EB 000000018007fa60     CanvasPattern.obj
 0003:00002a68       ?constructor@ImageBackend@@2V?$Persistent@VFunctionTemplate@v8@@V?$NonCopyablePersistentTraits@VFunctionTemplate@v8@@@2@@Nan@@A 000000018007fa68     ImageBackend.obj
 0003:00002a70       ?constructor@PdfBackend@@2V?$Persistent@VFunctionTemplate@v8@@V?$NonCopyablePersistentTraits@VFunctionTemplate@v8@@@2@@Nan@@A 000000018007fa70     PdfBackend.obj
 0003:00002a78       ?constructor@SvgBackend@@2V?$Persistent@VFunctionTemplate@v8@@V?$NonCopyablePersistentTraits@VFunctionTemplate@v8@@@2@@Nan@@A 000000018007fa78     SvgBackend.obj
 0003:00002a80       ?font_face_list@@3V?$vector@VFontFace@@V?$allocator@VFontFace@@@std@@@std@@A 000000018007fa80     Canvas.obj
 0003:00002a98       ?constructor@Canvas@@2V?$Persistent@VFunctionTemplate@v8@@V?$NonCopyablePersistentTraits@VFunctionTemplate@v8@@@2@@Nan@@A 000000018007fa98     Canvas.obj
 0003:00002aa0       ?constructor@Gradient@@2V?$Persistent@VFunctionTemplate@v8@@V?$NonCopyablePersistentTraits@VFunctionTemplate@v8@@@2@@Nan@@A 000000018007faa0     CanvasGradient.obj
 0003:00002aa8       ?_DOMMatrix@Pattern@@2V?$Persistent@VFunction@v8@@V?$NonCopyablePersistentTraits@VFunction@v8@@@2@@Nan@@A 000000018007faa8     CanvasPattern.obj
 0003:00002ab0       ?constructor@Pattern@@2V?$Persistent@VFunctionTemplate@v8@@V?$NonCopyablePersistentTraits@VFunctionTemplate@v8@@@2@@Nan@@A 000000018007fab0     CanvasPattern.obj
 0003:00002ab8       ?_parseFont@Context2d@@2V?$Persistent@VFunction@v8@@V?$NonCopyablePersistentTraits@VFunction@v8@@@2@@Nan@@A 000000018007fab8     CanvasRenderingContext2d.obj
 0003:00002ac0       ?_DOMMatrix@Context2d@@2V?$Persistent@VFunction@v8@@V?$NonCopyablePersistentTraits@VFunction@v8@@@2@@Nan@@A 000000018007fac0     CanvasRenderingContext2d.obj
 0003:00002ac8       ?constructor@Context2d@@2V?$Persistent@VFunctionTemplate@v8@@V?$NonCopyablePersistentTraits@VFunctionTemplate@v8@@@2@@Nan@@A 000000018007fac8     CanvasRenderingContext2d.obj
 0003:00002ae0       ?constructor@Image@@2V?$Persistent@VFunctionTemplate@v8@@V?$NonCopyablePersistentTraits@VFunctionTemplate@v8@@@2@@Nan@@A 000000018007fae0     Image.obj
 0003:00002ae8       ?constructor@ImageData@@2V?$Persistent@VFunctionTemplate@v8@@V?$NonCopyablePersistentTraits@VFunctionTemplate@v8@@@2@@Nan@@A 000000018007fae8     ImageData.obj
 0003:00002af0       ?_OptionsStorage@?1??__local_stdio_printf_options@@9@4_KA 000000018007faf0     color.obj
 0003:00002b00       __dyn_tls_init_callback    000000018007fb00     <common>
 0003:00002b08       __scrt_ucrt_dll_is_in_use  000000018007fb08     <common>

 entry point at        0001:0002c6d0

 Static symbols

 0000:fff79000       .debug$S                   0000000180000000     canvas.exp
 0000:fff79000       .debug$S                   0000000180000000     gdi32:GDI32.dll
 0000:fff79000       .debug$S                   0000000180000000     gdi32:GDI32.dll
 0000:fff79000       .debug$S                   0000000180000000     kernel32:KERNEL32.dll
 0000:fff79000       .debug$S                   0000000180000000     kernel32:KERNEL32.dll
 0000:fff79000       .debug$S                   0000000180000000     kernel32:KERNEL32.dll
 0000:fff79000       .debug$S                   0000000180000000     kernel32:KERNEL32.dll
 0000:fff79000       .debug$S                   0000000180000000     kernel32:KERNEL32.dll
 0000:fff79000       .debug$S                   0000000180000000     kernel32:KERNEL32.dll
 0000:fff79000       .debug$S                   0000000180000000     kernel32:KERNEL32.dll
 0000:fff79000       .debug$S                   0000000180000000     kernel32:KERNEL32.dll
 0000:fff79000       .debug$S                   0000000180000000     kernel32:KERNEL32.dll
 0000:fff79000       .debug$S                   0000000180000000     kernel32:KERNEL32.dll
 0000:fff79000       .debug$S                   0000000180000000     kernel32:KERNEL32.dll
 0000:fff79000       .debug$S                   0000000180000000     kernel32:KERNEL32.dll
 0000:fff79000       .debug$S                   0000000180000000     kernel32:KERNEL32.dll
 0000:fff79000       .debug$S                   0000000180000000     kernel32:KERNEL32.dll
 0000:fff79000       .debug$S                   0000000180000000     kernel32:KERNEL32.dll
 0000:fff79000       .debug$S                   0000000180000000     kernel32:KERNEL32.dll
 0000:fff79000       .debug$S                   0000000180000000     kernel32:KERNEL32.dll
 0000:fff79000       .debug$S                   0000000180000000     kernel32:KERNEL32.dll
 0000:fff79000       .debug$S                   0000000180000000     kernel32:KERNEL32.dll
 0000:fff79000       .debug$S                   0000000180000000     kernel32:KERNEL32.dll
 0000:fff79000       .debug$S                   0000000180000000     kernel32:KERNEL32.dll
 0000:fff79000       .debug$S                   0000000180000000     kernel32:KERNEL32.dll
 0000:fff79000       .debug$S                   0000000180000000     kernel32:KERNEL32.dll
 0000:fff79000       .debug$S                   0000000180000000     kernel32:KERNEL32.dll
 0000:fff79000       .debug$S                   0000000180000000     kernel32:KERNEL32.dll
 0000:fff79000       .debug$S                   0000000180000000     kernel32:KERNEL32.dll
 0000:fff79000       .debug$S                   0000000180000000     kernel32:KERNEL32.dll
 0000:fff79000       .debug$S                   0000000180000000     kernel32:KERNEL32.dll
 0000:fff79000       .debug$S                   0000000180000000     kernel32:KERNEL32.dll
 0000:fff79000       .debug$S                   0000000180000000     kernel32:KERNEL32.dll
 0000:fff79000       .debug$S                   0000000180000000     kernel32:KERNEL32.dll
 0000:fff79000       .debug$S                   0000000180000000     kernel32:KERNEL32.dll
 0000:fff79000       .debug$S                   0000000180000000     kernel32:KERNEL32.dll
 0000:fff79000       .debug$S                   0000000180000000     kernel32:KERNEL32.dll
 0000:fff79000       .debug$S                   0000000180000000     kernel32:KERNEL32.dll
 0000:fff79000       .debug$S                   0000000180000000     kernel32:KERNEL32.dll
 0000:fff79000       .debug$S                   0000000180000000     kernel32:KERNEL32.dll
 0000:fff79000       .debug$S                   0000000180000000     kernel32:KERNEL32.dll
 0000:fff79000       .debug$S                   0000000180000000     kernel32:KERNEL32.dll
 0000:fff79000       .debug$S                   0000000180000000     kernel32:KERNEL32.dll
 0000:fff79000       .debug$S                   0000000180000000     kernel32:KERNEL32.dll
 0000:fff79000       .debug$S                   0000000180000000     kernel32:KERNEL32.dll
 0000:fff79000       .debug$S                   0000000180000000     kernel32:KERNEL32.dll
 0000:fff79000       .debug$S                   0000000180000000     kernel32:KERNEL32.dll
 0000:fff79000       .debug$S                   0000000180000000     kernel32:KERNEL32.dll
 0000:fff79000       .debug$S                   0000000180000000     kernel32:KERNEL32.dll
 0000:fff79000       .debug$S                   0000000180000000     kernel32:KERNEL32.dll
 0000:fff79000       .debug$S                   0000000180000000     kernel32:KERNEL32.dll
 0000:fff79000       .debug$S                   0000000180000000     kernel32:KERNEL32.dll
 0000:fff79000       .debug$S                   0000000180000000     kernel32:KERNEL32.dll
 0000:fff79000       .debug$S                   0000000180000000     kernel32:KERNEL32.dll
 0000:fff79000       .debug$S                   0000000180000000     kernel32:KERNEL32.dll
 0000:fff79000       .debug$S                   0000000180000000     kernel32:KERNEL32.dll
 0000:fff79000       .debug$S                   0000000180000000     kernel32:KERNEL32.dll
 0000:fff79000       .debug$S                   0000000180000000     kernel32:KERNEL32.dll
 0000:fff79000       .debug$S                   0000000180000000     kernel32:KERNEL32.dll
 0000:fff79000       .debug$S                   0000000180000000     kernel32:KERNEL32.dll
 0000:fff79000       .debug$S                   0000000180000000     kernel32:KERNEL32.dll
 0000:fff79000       .debug$S                   0000000180000000     kernel32:KERNEL32.dll
 0000:fff79000       .debug$S                   0000000180000000     kernel32:KERNEL32.dll
 0000:fff79000       .debug$S                   0000000180000000     kernel32:KERNEL32.dll
 0000:fff79000       .debug$S                   0000000180000000     kernel32:KERNEL32.dll
 0000:fff79000       .debug$S                   0000000180000000     kernel32:KERNEL32.dll
 0000:fff79000       .debug$S                   0000000180000000     kernel32:KERNEL32.dll
 0000:fff79000       .debug$S                   0000000180000000     kernel32:KERNEL32.dll
 0000:fff79000       .debug$S                   0000000180000000     kernel32:KERNEL32.dll
 0000:fff79000       .debug$S                   0000000180000000     kernel32:KERNEL32.dll
 0000:fff79000       .debug$S                   0000000180000000     kernel32:KERNEL32.dll
 0000:fff79000       .debug$S                   0000000180000000     kernel32:KERNEL32.dll
 0000:fff79000       .debug$S                   0000000180000000     kernel32:KERNEL32.dll
 0000:fff79000       .debug$S                   0000000180000000     kernel32:KERNEL32.dll
 0000:fff79000       .debug$S                   0000000180000000     kernel32:KERNEL32.dll
 0000:fff79000       .debug$S                   0000000180000000     kernel32:KERNEL32.dll
 0000:fff79000       .debug$S                   0000000180000000     kernel32:KERNEL32.dll
 0000:fff79000       .debug$S                   0000000180000000     kernel32:KERNEL32.dll
 0000:fff79000       .debug$S                   0000000180000000     kernel32:KERNEL32.dll
 0000:fff79000       .debug$S                   0000000180000000     kernel32:KERNEL32.dll
 0000:fff79000       .debug$S                   0000000180000000     kernel32:KERNEL32.dll
 0000:fff79000       .debug$S                   0000000180000000     kernel32:KERNEL32.dll
 0000:fff79000       .debug$S                   0000000180000000     kernel32:KERNEL32.dll
 0000:fff79000       .debug$S                   0000000180000000     kernel32:KERNEL32.dll
 0000:fff79000       .debug$S                   0000000180000000     kernel32:KERNEL32.dll
 0000:fff79000       .debug$S                   0000000180000000     kernel32:KERNEL32.dll
 0000:fff79000       .debug$S                   0000000180000000     kernel32:KERNEL32.dll
 0000:fff79000       .debug$S                   0000000180000000     kernel32:KERNEL32.dll
 0000:fff79000       .debug$S                   0000000180000000     kernel32:KERNEL32.dll
 0000:fff79000       .debug$S                   0000000180000000     kernel32:KERNEL32.dll
 0000:fff79000       .debug$S                   0000000180000000     kernel32:KERNEL32.dll
 0000:fff79000       .debug$S                   0000000180000000     kernel32:KERNEL32.dll
 0000:fff79000       .debug$S                   0000000180000000     kernel32:KERNEL32.dll
 0000:fff79000       .debug$S                   0000000180000000     kernel32:KERNEL32.dll
 0000:fff79000       .debug$S                   0000000180000000     kernel32:KERNEL32.dll
 0000:fff79000       .debug$S                   0000000180000000     kernel32:KERNEL32.dll
 0000:fff79000       .debug$S                   0000000180000000     kernel32:KERNEL32.dll
 0000:fff79000       .debug$S                   0000000180000000     kernel32:KERNEL32.dll
 0000:fff79000       .debug$S                   0000000180000000     kernel32:KERNEL32.dll
 0000:fff79000       .debug$S                   0000000180000000     kernel32:KERNEL32.dll
 0000:fff79000       .debug$S                   0000000180000000     kernel32:KERNEL32.dll
 0000:fff79000       .debug$S                   0000000180000000     kernel32:KERNEL32.dll
 0000:fff79000       .debug$S                   0000000180000000     kernel32:KERNEL32.dll
 0000:fff79000       .debug$S                   0000000180000000     kernel32:KERNEL32.dll
 0000:fff79000       .debug$S                   0000000180000000     kernel32:KERNEL32.dll
 0000:fff79000       .debug$S                   0000000180000000     kernel32:KERNEL32.dll
 0000:fff79000       .debug$S                   0000000180000000     kernel32:KERNEL32.dll
 0000:fff79000       .debug$S                   0000000180000000     kernel32:KERNEL32.dll
 0000:fff79000       .debug$S                   0000000180000000     kernel32:KERNEL32.dll
 0000:fff79000       .debug$S                   0000000180000000     kernel32:KERNEL32.dll
 0000:fff79000       .debug$S                   0000000180000000     kernel32:KERNEL32.dll
 0000:fff79000       .debug$S                   0000000180000000     kernel32:KERNEL32.dll
 0000:fff79000       .debug$S                   0000000180000000     kernel32:KERNEL32.dll
 0000:fff79000       .debug$S                   0000000180000000     node:node.exe
 0000:fff79000       .debug$S                   0000000180000000     node:node.exe
 0000:fff79000       .debug$S                   0000000180000000     node:node.exe
 0000:fff79000       .debug$S                   0000000180000000     node:node.exe
 0000:fff79000       .debug$S                   0000000180000000     node:node.exe
 0000:fff79000       .debug$S                   0000000180000000     node:node.exe
 0000:fff79000       .debug$S                   0000000180000000     node:node.exe
 0000:fff79000       .debug$S                   0000000180000000     node:node.exe
 0000:fff79000       .debug$S                   0000000180000000     node:node.exe
 0000:fff79000       .debug$S                   0000000180000000     node:node.exe
 0000:fff79000       .debug$S                   0000000180000000     node:node.exe
 0000:fff79000       .debug$S                   0000000180000000     node:node.exe
 0000:fff79000       .debug$S                   0000000180000000     node:node.exe
 0000:fff79000       .debug$S                   0000000180000000     node:node.exe
 0000:fff79000       .debug$S                   0000000180000000     node:node.exe
 0000:fff79000       .debug$S                   0000000180000000     node:node.exe
 0000:fff79000       .debug$S                   0000000180000000     node:node.exe
 0000:fff79000       .debug$S                   0000000180000000     node:node.exe
 0000:fff79000       .debug$S                   0000000180000000     node:node.exe
 0000:fff79000       .debug$S                   0000000180000000     node:node.exe
 0000:fff79000       .debug$S                   0000000180000000     node:node.exe
 0000:fff79000       .debug$S                   0000000180000000     node:node.exe
 0000:fff79000       .debug$S                   0000000180000000     node:node.exe
 0000:fff79000       .debug$S                   0000000180000000     node:node.exe
 0000:fff79000       .debug$S                   0000000180000000     node:node.exe
 0000:fff79000       .debug$S                   0000000180000000     node:node.exe
 0000:fff79000       .debug$S                   0000000180000000     node:node.exe
 0000:fff79000       .debug$S                   0000000180000000     node:node.exe
 0000:fff79000       .debug$S                   0000000180000000     node:node.exe
 0000:fff79000       .debug$S                   0000000180000000     node:node.exe
 0000:fff79000       .debug$S                   0000000180000000     node:node.exe
 0000:fff79000       .debug$S                   0000000180000000     node:node.exe
 0000:fff79000       .debug$S                   0000000180000000     node:node.exe
 0000:fff79000       .debug$S                   0000000180000000     node:node.exe
 0000:fff79000       .debug$S                   0000000180000000     node:node.exe
 0000:fff79000       .debug$S                   0000000180000000     node:node.exe
 0000:fff79000       .debug$S                   0000000180000000     node:node.exe
 0000:fff79000       .debug$S                   0000000180000000     node:node.exe
 0000:fff79000       .debug$S                   0000000180000000     node:node.exe
 0000:fff79000       .debug$S                   0000000180000000     node:node.exe
 0000:fff79000       .debug$S                   0000000180000000     node:node.exe
 0000:fff79000       .debug$S                   0000000180000000     node:node.exe
 0000:fff79000       .debug$S                   0000000180000000     node:node.exe
 0000:fff79000       .debug$S                   0000000180000000     node:node.exe
 0000:fff79000       .debug$S                   0000000180000000     node:node.exe
 0000:fff79000       .debug$S                   0000000180000000     node:node.exe
 0000:fff79000       .debug$S                   0000000180000000     node:node.exe
 0000:fff79000       .debug$S                   0000000180000000     node:node.exe
 0000:fff79000       .debug$S                   0000000180000000     node:node.exe
 0000:fff79000       .debug$S                   0000000180000000     node:node.exe
 0000:fff79000       .debug$S                   0000000180000000     node:node.exe
 0000:fff79000       .debug$S                   0000000180000000     node:node.exe
 0000:fff79000       .debug$S                   0000000180000000     node:node.exe
 0000:fff79000       .debug$S                   0000000180000000     node:node.exe
 0000:fff79000       .debug$S                   0000000180000000     node:node.exe
 0000:fff79000       .debug$S                   0000000180000000     node:node.exe
 0000:fff79000       .debug$S                   0000000180000000     node:node.exe
 0000:fff79000       .debug$S                   0000000180000000     node:node.exe
 0000:fff79000       .debug$S                   0000000180000000     node:node.exe
 0000:fff79000       .debug$S                   0000000180000000     node:node.exe
 0000:fff79000       .debug$S                   0000000180000000     node:node.exe
 0000:fff79000       .debug$S                   0000000180000000     node:node.exe
 0000:fff79000       .debug$S                   0000000180000000     node:node.exe
 0000:fff79000       .debug$S                   0000000180000000     node:node.exe
 0000:fff79000       .debug$S                   0000000180000000     node:node.exe
 0000:fff79000       .debug$S                   0000000180000000     node:node.exe
 0000:fff79000       .debug$S                   0000000180000000     node:node.exe
 0000:fff79000       .debug$S                   0000000180000000     node:node.exe
 0000:fff79000       .debug$S                   0000000180000000     node:node.exe
 0000:fff79000       .debug$S                   0000000180000000     node:node.exe
 0000:fff79000       .debug$S                   0000000180000000     node:node.exe
 0000:fff79000       .debug$S                   0000000180000000     node:node.exe
 0000:fff79000       .debug$S                   0000000180000000     node:node.exe
 0000:fff79000       .debug$S                   0000000180000000     node:node.exe
 0000:fff79000       .debug$S                   0000000180000000     node:node.exe
 0000:fff79000       .debug$S                   0000000180000000     node:node.exe
 0000:fff79000       .debug$S                   0000000180000000     node:node.exe
 0000:fff79000       .debug$S                   0000000180000000     node:node.exe
 0000:fff79000       .debug$S                   0000000180000000     node:node.exe
 0000:fff79000       .debug$S                   0000000180000000     node:node.exe
 0000:fff79000       .debug$S                   0000000180000000     node:node.exe
 0000:fff79000       .debug$S                   0000000180000000     node:node.exe
 0000:fff79000       .debug$S                   0000000180000000     node:node.exe
 0000:fff79000       .debug$S                   0000000180000000     node:node.exe
 0000:fff79000       .debug$S                   0000000180000000     node:node.exe
 0000:fff79000       .debug$S                   0000000180000000     node:node.exe
 0000:fff79000       .debug$S                   0000000180000000     node:node.exe
 0000:fff79000       .debug$S                   0000000180000000     node:node.exe
 0000:fff79000       .debug$S                   0000000180000000     node:node.exe
 0000:fff79000       .debug$S                   0000000180000000     node:node.exe
 0000:fff79000       .debug$S                   0000000180000000     node:node.exe
 0000:fff79000       .debug$S                   0000000180000000     node:node.exe
 0000:fff79000       .debug$S                   0000000180000000     node:node.exe
 0000:fff79000       .debug$S                   0000000180000000     node:node.exe
 0000:fff79000       .debug$S                   0000000180000000     node:node.exe
 0000:fff79000       .debug$S                   0000000180000000     node:node.exe
 0000:fff79000       .debug$S                   0000000180000000     node:node.exe
 0000:fff79000       .debug$S                   0000000180000000     node:node.exe
 0000:fff79000       .debug$S                   0000000180000000     node:node.exe
 0000:fff79000       .debug$S                   0000000180000000     node:node.exe
 0000:fff79000       .debug$S                   0000000180000000     node:node.exe
 0000:fff79000       .debug$S                   0000000180000000     node:node.exe
 0000:fff79000       .debug$S                   0000000180000000     node:node.exe
 0000:fff79000       .debug$S                   0000000180000000     node:node.exe
 0000:fff79000       .debug$S                   0000000180000000     node:node.exe
 0000:fff79000       .debug$S                   0000000180000000     node:node.exe
 0000:fff79000       .debug$S                   0000000180000000     node:node.exe
 0000:fff79000       .debug$S                   0000000180000000     node:node.exe
 0000:fff79000       .debug$S                   0000000180000000     node:node.exe
 0000:fff79000       .debug$S                   0000000180000000     node:node.exe
 0000:fff79000       .debug$S                   0000000180000000     node:node.exe
 0000:fff79000       .debug$S                   0000000180000000     node:node.exe
 0000:fff79000       .debug$S                   0000000180000000     node:node.exe
 0000:fff79000       .debug$S                   0000000180000000     node:node.exe
 0000:fff79000       .debug$S                   0000000180000000     node:node.exe
 0000:fff79000       .debug$S                   0000000180000000     node:node.exe
 0000:fff79000       .debug$S                   0000000180000000     node:node.exe
 0000:fff79000       .debug$S                   0000000180000000     node:node.exe
 0000:fff79000       .debug$S                   0000000180000000     node:node.exe
 0000:fff79000       .debug$S                   0000000180000000     node:node.exe
 0000:fff79000       .debug$S                   0000000180000000     node:node.exe
 0000:fff79000       .debug$S                   0000000180000000     node:node.exe
 0000:fff79000       .debug$S                   0000000180000000     node:node.exe
 0001:00000000       .text                      0000000180001000     libcairo-2:D__a__temp_msys64_mingw64_lib_libcairo_2_lib_s01412.o
 0001:00000008       .text                      0000000180001008     libcairo-2:D__a__temp_msys64_mingw64_lib_libcairo_2_lib_s01403.o
 0001:00000010       .text                      0000000180001010     libcairo-2:D__a__temp_msys64_mingw64_lib_libcairo_2_lib_s01445.o
 0001:00000018       .text                      0000000180001018     libcairo-2:D__a__temp_msys64_mingw64_lib_libcairo_2_lib_s01204.o
 0001:00000020       .text                      0000000180001020     libcairo-2:D__a__temp_msys64_mingw64_lib_libcairo_2_lib_s01211.o
 0001:00000028       .text                      0000000180001028     libcairo-2:D__a__temp_msys64_mingw64_lib_libcairo_2_lib_s01413.o
 0001:00000030       .text                      0000000180001030     libcairo-2:D__a__temp_msys64_mingw64_lib_libcairo_2_lib_s01208.o
 0001:00000038       .text                      0000000180001038     libcairo-2:D__a__temp_msys64_mingw64_lib_libcairo_2_lib_s01286.o
 0001:00000040       .text                      0000000180001040     libcairo-2:D__a__temp_msys64_mingw64_lib_libcairo_2_lib_s01281.o
 0001:00000048       .text                      0000000180001048     libcairo-2:D__a__temp_msys64_mingw64_lib_libcairo_2_lib_s01452.o
 0001:00000050       .text                      0000000180001050     libcairo-2:D__a__temp_msys64_mingw64_lib_libcairo_2_lib_s01209.o
 0001:00000058       .text                      0000000180001058     libcairo-2:D__a__temp_msys64_mingw64_lib_libcairo_2_lib_s01116.o
 0001:00000060       .text                      0000000180001060     libcairo-2:D__a__temp_msys64_mingw64_lib_libcairo_2_lib_s01210.o
 0001:00000068       .text                      0000000180001068     libcairo-2:D__a__temp_msys64_mingw64_lib_libcairo_2_lib_s01414.o
 0001:00000070       .text                      0000000180001070     libcairo-2:D__a__temp_msys64_mingw64_lib_libcairo_2_lib_s01284.o
 0001:00000078       .text                      0000000180001078     libcairo-2:D__a__temp_msys64_mingw64_lib_libcairo_2_lib_s01387.o
 0001:00000080       .text                      0000000180001080     libcairo-2:D__a__temp_msys64_mingw64_lib_libcairo_2_lib_s01212.o
 0001:00000088       .text                      0000000180001088     libcairo-2:D__a__temp_msys64_mingw64_lib_libcairo_2_lib_s01113.o
 0001:00000090       .text                      0000000180001090     libcairo-2:D__a__temp_msys64_mingw64_lib_libcairo_2_lib_s01251.o
 0001:00000098       .text                      0000000180001098     libcairo-2:D__a__temp_msys64_mingw64_lib_libcairo_2_lib_s01255.o
 0001:000000a0       .text                      00000001800010a0     libcairo-2:D__a__temp_msys64_mingw64_lib_libcairo_2_lib_s01253.o
 0001:000000a8       .text                      00000001800010a8     libcairo-2:D__a__temp_msys64_mingw64_lib_libcairo_2_lib_s01259.o
 0001:000000b0       .text                      00000001800010b0     libcairo-2:D__a__temp_msys64_mingw64_lib_libcairo_2_lib_s01276.o
 0001:000000b8       .text                      00000001800010b8     libcairo-2:D__a__temp_msys64_mingw64_lib_libcairo_2_lib_s01219.o
 0001:000000c0       .text                      00000001800010c0     libcairo-2:D__a__temp_msys64_mingw64_lib_libcairo_2_lib_s01275.o
 0001:000000c8       .text                      00000001800010c8     libcairo-2:D__a__temp_msys64_mingw64_lib_libcairo_2_lib_s01271.o
 0001:000000d0       .text                      00000001800010d0     libcairo-2:D__a__temp_msys64_mingw64_lib_libcairo_2_lib_s01252.o
 0001:000000d8       .text                      00000001800010d8     libcairo-2:D__a__temp_msys64_mingw64_lib_libcairo_2_lib_s01224.o
 0001:000000e0       .text                      00000001800010e0     libcairo-2:D__a__temp_msys64_mingw64_lib_libcairo_2_lib_s01248.o
 0001:000000e8       .text                      00000001800010e8     libcairo-2:D__a__temp_msys64_mingw64_lib_libcairo_2_lib_s01214.o
 0001:000000f0       .text                      00000001800010f0     libcairo-2:D__a__temp_msys64_mingw64_lib_libcairo_2_lib_s01390.o
 0001:000000f8       .text                      00000001800010f8     libcairo-2:D__a__temp_msys64_mingw64_lib_libcairo_2_lib_s01264.o
 0001:00000100       .text                      0000000180001100     libcairo-2:D__a__temp_msys64_mingw64_lib_libcairo_2_lib_s01428.o
 0001:00000108       .text                      0000000180001108     libcairo-2:D__a__temp_msys64_mingw64_lib_libcairo_2_lib_s01349.o
 0001:00000110       .text                      0000000180001110     libcairo-2:D__a__temp_msys64_mingw64_lib_libcairo_2_lib_s01189.o
 0001:00000118       .text                      0000000180001118     libcairo-2:D__a__temp_msys64_mingw64_lib_libcairo_2_lib_s01104.o
 0001:00000120       .text                      0000000180001120     libcairo-2:D__a__temp_msys64_mingw64_lib_libcairo_2_lib_s01406.o
 0001:00000128       .text                      0000000180001128     libcairo-2:D__a__temp_msys64_mingw64_lib_libcairo_2_lib_s01317.o
 0001:00000130       .text                      0000000180001130     libcairo-2:D__a__temp_msys64_mingw64_lib_libcairo_2_lib_s01386.o
 0001:00000138       .text                      0000000180001138     libcairo-2:D__a__temp_msys64_mingw64_lib_libcairo_2_lib_s01263.o
 0001:00000140       .text                      0000000180001140     libcairo-2:D__a__temp_msys64_mingw64_lib_libcairo_2_lib_s01395.o
 0001:00000148       .text                      0000000180001148     libcairo-2:D__a__temp_msys64_mingw64_lib_libcairo_2_lib_s01402.o
 0001:00000150       .text                      0000000180001150     libcairo-2:D__a__temp_msys64_mingw64_lib_libcairo_2_lib_s01139.o
 0001:00000158       .text                      0000000180001158     libcairo-2:D__a__temp_msys64_mingw64_lib_libcairo_2_lib_s01385.o
 0001:00000160       .text                      0000000180001160     libcairo-2:D__a__temp_msys64_mingw64_lib_libcairo_2_lib_s01194.o
 0001:00000168       .text                      0000000180001168     libcairo-2:D__a__temp_msys64_mingw64_lib_libcairo_2_lib_s01218.o
 0001:00000170       .text                      0000000180001170     libcairo-2:D__a__temp_msys64_mingw64_lib_libcairo_2_lib_s01274.o
 0001:00000178       .text                      0000000180001178     libcairo-2:D__a__temp_msys64_mingw64_lib_libcairo_2_lib_s01140.o
 0001:00000180       .text                      0000000180001180     libcairo-2:D__a__temp_msys64_mingw64_lib_libcairo_2_lib_s01399.o
 0001:00000188       .text                      0000000180001188     libcairo-2:D__a__temp_msys64_mingw64_lib_libcairo_2_lib_s01347.o
 0001:00000190       .text                      0000000180001190     libcairo-2:D__a__temp_msys64_mingw64_lib_libcairo_2_lib_s01216.o
 0001:00000198       .text                      0000000180001198     libcairo-2:D__a__temp_msys64_mingw64_lib_libcairo_2_lib_s01379.o
 0001:000001a0       .text                      00000001800011a0     libcairo-2:D__a__temp_msys64_mingw64_lib_libcairo_2_lib_s01246.o
 0001:000001a8       .text                      00000001800011a8     libcairo-2:D__a__temp_msys64_mingw64_lib_libcairo_2_lib_s01302.o
 0001:000001b0       .text                      00000001800011b0     libcairo-2:D__a__temp_msys64_mingw64_lib_libcairo_2_lib_s01404.o
 0001:000001b8       .text                      00000001800011b8     libcairo-2:D__a__temp_msys64_mingw64_lib_libcairo_2_lib_s01243.o
 0001:000001c0       .text                      00000001800011c0     libcairo-2:D__a__temp_msys64_mingw64_lib_libcairo_2_lib_s01186.o
 0001:000001c8       .text                      00000001800011c8     libcairo-2:D__a__temp_msys64_mingw64_lib_libcairo_2_lib_s01273.o
 0001:000001d0       .text                      00000001800011d0     libcairo-2:D__a__temp_msys64_mingw64_lib_libcairo_2_lib_s01191.o
 0001:000001d8       .text                      00000001800011d8     libcairo-2:D__a__temp_msys64_mingw64_lib_libcairo_2_lib_s01105.o
 0001:000001e0       .text                      00000001800011e0     libcairo-2:D__a__temp_msys64_mingw64_lib_libcairo_2_lib_s01176.o
 0001:000001e8       .text                      00000001800011e8     libcairo-2:D__a__temp_msys64_mingw64_lib_libcairo_2_lib_s01394.o
 0001:000001f0       .text                      00000001800011f0     libcairo-2:D__a__temp_msys64_mingw64_lib_libcairo_2_lib_s01112.o
 0001:000001f8       .text                      00000001800011f8     libcairo-2:D__a__temp_msys64_mingw64_lib_libcairo_2_lib_s01392.o
 0001:00000200       .text                      0000000180001200     libcairo-2:D__a__temp_msys64_mingw64_lib_libcairo_2_lib_s01350.o
 0001:00000208       .text                      0000000180001208     libcairo-2:D__a__temp_msys64_mingw64_lib_libcairo_2_lib_s01485.o
 0001:00000210       .text                      0000000180001210     libcairo-2:D__a__temp_msys64_mingw64_lib_libcairo_2_lib_s01260.o
 0001:00000218       .text                      0000000180001218     libcairo-2:D__a__temp_msys64_mingw64_lib_libcairo_2_lib_s01388.o
 0001:00000220       .text                      0000000180001220     libcairo-2:D__a__temp_msys64_mingw64_lib_libcairo_2_lib_s01427.o
 0001:00000228       .text                      0000000180001228     libcairo-2:D__a__temp_msys64_mingw64_lib_libcairo_2_lib_s01111.o
 0001:00000230       .text                      0000000180001230     libcairo-2:D__a__temp_msys64_mingw64_lib_libcairo_2_lib_s01141.o
 0001:00000238       .text                      0000000180001238     libcairo-2:D__a__temp_msys64_mingw64_lib_libcairo_2_lib_s01269.o
 0001:00000240       .text                      0000000180001240     libcairo-2:D__a__temp_msys64_mingw64_lib_libcairo_2_lib_s01348.o
 0001:00000248       .text                      0000000180001248     libcairo-2:D__a__temp_msys64_mingw64_lib_libcairo_2_lib_s01405.o
 0001:00000250       .text                      0000000180001250     libcairo-2:D__a__temp_msys64_mingw64_lib_libcairo_2_lib_s01290.o
 0001:00000258       .text                      0000000180001258     libcairo-2:D__a__temp_msys64_mingw64_lib_libcairo_2_lib_s01178.o
 0001:00000260       .text                      0000000180001260     libcairo-2:D__a__temp_msys64_mingw64_lib_libcairo_2_lib_s01190.o
 0001:00000268       .text                      0000000180001268     libcairo-2:D__a__temp_msys64_mingw64_lib_libcairo_2_lib_s01261.o
 0001:00000270       .text                      0000000180001270     libcairo-2:D__a__temp_msys64_mingw64_lib_libcairo_2_lib_s01102.o
 0001:00000278       .text                      0000000180001278     libcairo-2:D__a__temp_msys64_mingw64_lib_libcairo_2_lib_s01244.o
 0001:00000280       .text                      0000000180001280     libcairo-2:D__a__temp_msys64_mingw64_lib_libcairo_2_lib_s01203.o
 0001:00000288       .text                      0000000180001288     libcairo-2:D__a__temp_msys64_mingw64_lib_libcairo_2_lib_s01187.o
 0001:00000290       .text                      0000000180001290     libcairo-2:D__a__temp_msys64_mingw64_lib_libcairo_2_lib_s01215.o
 0001:00000298       .text                      0000000180001298     libcairo-2:D__a__temp_msys64_mingw64_lib_libcairo_2_lib_s01247.o
 0001:000002a0       .text                      00000001800012a0     libcairo-2:D__a__temp_msys64_mingw64_lib_libcairo_2_lib_s01377.o
 0001:000002a8       .text                      00000001800012a8     libcairo-2:D__a__temp_msys64_mingw64_lib_libcairo_2_lib_s01179.o
 0001:000002b0       .text                      00000001800012b0     libcairo-2:D__a__temp_msys64_mingw64_lib_libcairo_2_lib_s01378.o
 0001:000002b8       .text                      00000001800012b8     libcairo-2:D__a__temp_msys64_mingw64_lib_libcairo_2_lib_s01471.o
 0001:000002c0       .text                      00000001800012c0     libcairo-2:D__a__temp_msys64_mingw64_lib_libcairo_2_lib_s01108.o
 0001:000002c8       .text                      00000001800012c8     libcairo-2:D__a__temp_msys64_mingw64_lib_libcairo_2_lib_s01103.o
 0001:000002d0       .text                      00000001800012d0     libcairo-2:D__a__temp_msys64_mingw64_lib_libcairo_2_lib_s01188.o
 0001:000002d8       .text                      00000001800012d8     libcairo-2:D__a__temp_msys64_mingw64_lib_libcairo_2_lib_s01270.o
 0001:000002e0       .text                      00000001800012e0     libcairo-2:D__a__temp_msys64_mingw64_lib_libcairo_2_lib_s01107.o
 0001:000002e8       .text                      00000001800012e8     libcairo-2:D__a__temp_msys64_mingw64_lib_libcairo_2_lib_s01249.o
 0001:000002f0       .text                      00000001800012f0     libcairo-2:D__a__temp_msys64_mingw64_lib_libcairo_2_lib_s01389.o
 0001:000002f8       .text                      00000001800012f8     libcairo-2:D__a__temp_msys64_mingw64_lib_libcairo_2_lib_s01177.o
 0001:00000300       .text                      0000000180001300     libcairo-2:D__a__temp_msys64_mingw64_lib_libcairo_2_lib_s01472.o
 0001:00000308       .text                      0000000180001308     libcairo-2:D__a__temp_msys64_mingw64_lib_libcairo_2_lib_s01266.o
 0001:00000310       .text                      0000000180001310     libcairo-2:D__a__temp_msys64_mingw64_lib_libcairo_2_lib_s01114.o
 0001:00000318       .text                      0000000180001318     libcairo-2:D__a__temp_msys64_mingw64_lib_libcairo_2_lib_s01167.o
 0001:00000320       .text                      0000000180001320     libcairo-2:D__a__temp_msys64_mingw64_lib_libcairo_2_lib_s01206.o
 0001:00000328       .text                      0000000180001328     libcairo-2:D__a__temp_msys64_mingw64_lib_libcairo_2_lib_s01207.o
 0001:00000330       .text                      0000000180001330     libcairo-2:D__a__temp_msys64_mingw64_lib_libcairo_2_lib_s01205.o
 0001:00000338       .text                      0000000180001338     libcairo-2:D__a__temp_msys64_mingw64_lib_libcairo_2_lib_s01442.o
 0001:00000340       .text                      0000000180001340     libcairo-2:D__a__temp_msys64_mingw64_lib_libcairo_2_lib_s01487.o
 0001:00000350       .text                      0000000180001350     libpng16-16:D__a__temp_msys64_mingw64_lib_libpng16_16_lib_s00019.o
 0001:00000358       .text                      0000000180001358     libpng16-16:D__a__temp_msys64_mingw64_lib_libpng16_16_lib_s00155.o
 0001:00000360       .text                      0000000180001360     libpng16-16:D__a__temp_msys64_mingw64_lib_libpng16_16_lib_s00247.o
 0001:00000368       .text                      0000000180001368     libpng16-16:D__a__temp_msys64_mingw64_lib_libpng16_16_lib_s00233.o
 0001:00000370       .text                      0000000180001370     libpng16-16:D__a__temp_msys64_mingw64_lib_libpng16_16_lib_s00204.o
 0001:00000378       .text                      0000000180001378     libpng16-16:D__a__temp_msys64_mingw64_lib_libpng16_16_lib_s00198.o
 0001:00000380       .text                      0000000180001380     libpng16-16:D__a__temp_msys64_mingw64_lib_libpng16_16_lib_s00129.o
 0001:00000388       .text                      0000000180001388     libpng16-16:D__a__temp_msys64_mingw64_lib_libpng16_16_lib_s00058.o
 0001:00000390       .text                      0000000180001390     libpng16-16:D__a__temp_msys64_mingw64_lib_libpng16_16_lib_s00260.o
 0001:00000398       .text                      0000000180001398     libpng16-16:D__a__temp_msys64_mingw64_lib_libpng16_16_lib_s00206.o
 0001:000003a0       .text                      00000001800013a0     libpng16-16:D__a__temp_msys64_mingw64_lib_libpng16_16_lib_s00259.o
 0001:000003a8       .text                      00000001800013a8     libpng16-16:D__a__temp_msys64_mingw64_lib_libpng16_16_lib_s00044.o
 0001:000003b0       .text                      00000001800013b0     libpng16-16:D__a__temp_msys64_mingw64_lib_libpng16_16_lib_s00205.o
 0001:000003b8       .text                      00000001800013b8     libpng16-16:D__a__temp_msys64_mingw64_lib_libpng16_16_lib_s00150.o
 0001:000003c0       .text                      00000001800013c0     libpng16-16:D__a__temp_msys64_mingw64_lib_libpng16_16_lib_s00181.o
 0001:000003c8       .text                      00000001800013c8     libpng16-16:D__a__temp_msys64_mingw64_lib_libpng16_16_lib_s00016.o
 0001:000003d0       .text                      00000001800013d0     libpng16-16:D__a__temp_msys64_mingw64_lib_libpng16_16_lib_s00168.o
 0001:000003d8       .text                      00000001800013d8     libpng16-16:D__a__temp_msys64_mingw64_lib_libpng16_16_lib_s00149.o
 0001:000003e0       .text                      00000001800013e0     libpng16-16:D__a__temp_msys64_mingw64_lib_libpng16_16_lib_s00245.o
 0001:000003e8       .text                      00000001800013e8     libpng16-16:D__a__temp_msys64_mingw64_lib_libpng16_16_lib_s00011.o
 0001:000003f0       .text                      00000001800013f0     libpng16-16:D__a__temp_msys64_mingw64_lib_libpng16_16_lib_s00180.o
 0001:000003f8       .text                      00000001800013f8     libpng16-16:D__a__temp_msys64_mingw64_lib_libpng16_16_lib_s00255.o
 0001:00000400       .text                      0000000180001400     libpng16-16:D__a__temp_msys64_mingw64_lib_libpng16_16_lib_s00020.o
 0001:00000408       .text                      0000000180001408     libpng16-16:D__a__temp_msys64_mingw64_lib_libpng16_16_lib_s00015.o
 0001:00000410       .text                      0000000180001410     libjpeg-8:D__a__temp_msys64_mingw64_lib_libjpeg_8_lib_s00091.o
 0001:00000418       .text                      0000000180001418     libjpeg-8:D__a__temp_msys64_mingw64_lib_libjpeg_8_lib_s00090.o
 0001:00000420       .text                      0000000180001420     libjpeg-8:D__a__temp_msys64_mingw64_lib_libjpeg_8_lib_s00029.o
 0001:00000428       .text                      0000000180001428     libjpeg-8:D__a__temp_msys64_mingw64_lib_libjpeg_8_lib_s00096.o
 0001:00000430       .text                      0000000180001430     libjpeg-8:D__a__temp_msys64_mingw64_lib_libjpeg_8_lib_s00046.o
 0001:00000438       .text                      0000000180001438     libjpeg-8:D__a__temp_msys64_mingw64_lib_libjpeg_8_lib_s00087.o
 0001:00000440       .text                      0000000180001440     libjpeg-8:D__a__temp_msys64_mingw64_lib_libjpeg_8_lib_s00052.o
 0001:00000448       .text                      0000000180001448     libjpeg-8:D__a__temp_msys64_mingw64_lib_libjpeg_8_lib_s00106.o
 0001:00000450       .text                      0000000180001450     libjpeg-8:D__a__temp_msys64_mingw64_lib_libjpeg_8_lib_s00093.o
 0001:00000458       .text                      0000000180001458     libjpeg-8:D__a__temp_msys64_mingw64_lib_libjpeg_8_lib_s00030.o
 0001:00000460       .text                      0000000180001460     libjpeg-8:D__a__temp_msys64_mingw64_lib_libjpeg_8_lib_s00047.o
 0001:00000468       .text                      0000000180001468     libjpeg-8:D__a__temp_msys64_mingw64_lib_libjpeg_8_lib_s00080.o
 0001:00000470       .text                      0000000180001470     libjpeg-8:D__a__temp_msys64_mingw64_lib_libjpeg_8_lib_s00094.o
 0001:00000478       .text                      0000000180001478     libjpeg-8:D__a__temp_msys64_mingw64_lib_libjpeg_8_lib_s00098.o
 0001:00000480       .text                      0000000180001480     libjpeg-8:D__a__temp_msys64_mingw64_lib_libjpeg_8_lib_s00053.o
